(dp1
S'818'
p2
(dp3
S'id'
p4
V818
p5
sS'title'
p6
VRadio Heaven
p7
ssS'819'
p8
(dp9
g4
V819
p10
sg6
VWinder Ellinikos
p11
ssS'346'
p12
(dp13
S'url'
p14
S'http://metro903.live24.gr/metro903-1000'
p15
sg4
V346
p16
sg6
VMetro Fm 90.3
p17
ssS'347'
p18
(dp19
g4
V347
p20
sg6
V\u0395\u03bb\u03bb\u03b7\u03bd\u03b9\u03ba\u03cc\u03c2 90.3
p21
ssS'340'
p22
(dp23
g14
S'http://s6.onweb.gr:8056'
p24
sg4
V340
p25
sg6
V\u03a1\u03ac\u03b4\u03b9\u03bf \u03a6\u03ac\u03c1\u03bf\u03c2 92.7
p26
ssS'341'
p27
(dp28
g14
S'http://s3.onweb.gr:8060'
p29
sg4
V341
p30
sg6
V\u03a0\u03af\u03bd\u03b4\u03bf\u03c2 Fm 107.7
p31
ssS'342'
p32
(dp33
g4
V342
p34
sg6
VStar 99
p35
ssS'343'
p36
(dp37
g4
V343
p38
sg6
VPop Fm 89.1
p39
ssS'810'
p40
(dp41
S'id'
p42
V810
p43
sS'title'
p44
V365 Radio
p45
ssS'811'
p46
(dp47
g4
V811
p48
sg6
V\u03a1\u03ac\u03b4\u03b9\u03bf \u0391\u03af\u03b3\u03b9\u03bd\u03b1
p49
ssS'812'
p50
(dp51
g14
S'http://live.e-streaming.eu:8120/'
p52
sg4
V812
p53
sg6
V\u03a1\u03ac\u03b4\u03b9\u03bf \u039c\u03c9\u03c1\u03b9\u03ac\u03c2 102.7
p54
ssS'504'
p55
(dp56
g14
S'mms://live.onestreaming.com/magiafm'
p57
sg4
V504
p58
sg6
V\u039c\u03b1\u03b3\u03b5\u03af\u03b1 Fm 104.7
p59
ssS'348'
p60
(dp61
g14
S'http://live.isolservers.com:8400'
p62
sg4
V348
p63
sg6
V\u03a3\u03b5\u03af\u03c1\u03b9\u03bf\u03c2 Fm 95.8
p64
ssS'815'
p65
(dp66
g4
V815
p67
sg6
VFresh Web Radio
p68
ssS'816'
p69
(dp70
g14
S'http://www.streamyourdream.org:8000/urbanradio'
p71
sg4
V816
p72
sg6
VUrban Radio
p73
ssS'817'
p74
(dp75
g14
S'http://66.90.104.41:8356/'
p76
sg4
V817
p77
sg6
VD Radio
p78
ssS'595'
p79
(dp80
g4
V595
p81
sg6
V\u03a9\u03bc\u03ad\u03b3\u03b1 Fm 90
p82
ssS'719'
p83
(dp84
g14
S'http://208.43.121.133:9652/'
p85
sg4
V719
p86
sg6
V\u03a0\u03cc\u03bd\u03c4\u03bf\u03c2 \u039b\u03b5\u03bb\u03ad\u03b2\u03c9\u03c3\u03b5 101.3
p87
ssS'718'
p88
(dp89
g4
V718
p90
sg6
VPlus Elegance
p91
ssS'716'
p92
(dp93
g14
S'http://stream-push2.live24.gr/synorafm-3462'
p94
sg4
V716
p95
sg6
V\u03a3\u03cd\u03bd\u03bf\u03c1\u03b1 Fm 92.2
p96
ssS'714'
p97
(dp98
g14
S'http://eco.onestreaming.com:8072'
p99
sg4
V714
p100
sg6
VLove Radio 97.2
p101
ssS'713'
p102
(dp103
g4
V713
p104
sg6
VRadio Alpha Omega
p105
ssS'711'
p106
(dp107
g14
S'http://75.75.226.26:8204'
p108
sg4
V711
p109
sg6
VAlpha Fm 104.7
p110
ssS'710'
p111
(dp112
g4
V710
p113
sg6
VSport Fm \u03a1\u03ad\u03b8\u03c5\u03bc\u03bd\u03bf 103.3
p114
ssS'618'
p115
(dp116
g14
S'http://shoutcast.24radio.gr:8038/'
p117
sg4
V618
p118
sg6
VViva Gr 102.8
p119
ssS'1065'
p120
(dp121
g14
S'http://eco.onestreaming.com:8222/'
p122
sg4
V1065
p123
sg6
VPlay Radio
p124
ssS'619'
p125
(dp126
g4
V619
p127
sg6
VTechno Time Radio
p128
ssS'427'
p129
(dp130
g4
V427
p131
sg6
VThessaloniki Dee Jay 89.4
p132
ssS'298'
p133
(dp134
g4
V298
p135
sg6
V\u0395\u03bb\u03bb\u03b7\u03bd\u03b9\u03ba\u03cc\u03c2 107.2
p136
ssS'299'
p137
(dp138
g14
S'mms://1045fm.live24.gr/1045fm/'
p139
sg4
V299
p140
sg6
V\u03a1\u03c5\u03b8\u03bc\u03cc\u03c2 104.5
p141
ssS'296'
p142
(dp143
g4
V296
p144
sg6
VDance Radio Chill Out
p145
ssS'297'
p146
(dp147
g4
V297
p148
sg6
V\u039b\u03ac\u03bc\u03c8\u03b7 Fm 105.7
p149
ssS'295'
p150
(dp151
g4
V295
p152
sg6
VDance Radio Global
p153
ssS'292'
p154
(dp155
g4
V292
p156
sg6
VI. Galaxy Sport Fm 90.8
p157
ssS'293'
p158
(dp159
g4
V293
p160
sg6
V\u0395\u03c1\u03c9\u03c4\u03cc\u03ba\u03c1\u03b9\u03c4\u03bf\u03c2 87.9
p161
ssS'290'
p162
(dp163
g14
S'http://ice.motionfm.com:80/motiontwo_free'
p164
sg4
V290
p165
sg6
VSmooth Motion Fm
p166
ssS'291'
p167
(dp168
g14
S'http://85.17.75.142/echoes'
p169
sg4
V291
p170
sg6
VEchoes
p171
ssS'591'
p172
(dp173
g4
V591
p174
sg6
VPlus Amor
p175
ssS'590'
p176
(dp177
g14
S'http://eco.onestreaming.com:8257'
p178
sg4
V590
p179
sg6
VRadio Star 95,5
p180
ssS'1085'
p181
(dp182
g14
S'http://shoutcast.24radio.gr:8022'
p183
sg4
V1085
p184
sg6
VHot Rockin Radio
p185
ssS'592'
p186
(dp187
g4
V592
p188
sg6
VPlus Dance
p189
ssS'199'
p190
(dp191
g14
S'http://live.onestreaming.com/lihnari'
p192
sg4
V199
p193
sg6
V\u039b\u03c5\u03c7\u03bd\u03ac\u03c1\u03b9 91.4
p194
ssS'594'
p195
(dp196
g4
V594
p197
sg6
VOxygen Fm 95.3
p198
ssS'597'
p199
(dp200
g14
S'http://live.onestreaming.com/blacklemon'
p201
sg4
V597
p202
sg6
VBlack Lemon Radio 
p203
ssS'596'
p204
(dp205
g4
V596
p206
sg6
VRadio Project
p207
ssS'195'
p208
(dp209
g14
S'http://s6.onweb.gr:8012'
p210
sg4
V195
p211
sg6
VTop FM 106.4
p212
ssS'194'
p213
(dp214
g4
V194
p215
sg6
V\u03a1\u03ac\u03b4\u03b9\u03bf \u03a0\u03ac\u03c4\u03c1\u03b1 106.5
p216
ssS'197'
p217
(dp218
S'url'
p219
S'http://s3.onweb.gr:8888'
p220
sg4
V197
p221
sg6
VLoud 88.8
p222
ssS'196'
p223
(dp224
g4
V196
p225
sg6
V\u03a1\u03ac\u03b4\u03b9\u03bf \u03a3\u03c4\u03bf\u03c1\u03ba 89.8
p226
ssS'191'
p227
(dp228
g219
S'http://s4.onweb.gr:8468'
p229
sg4
V191
p230
sg6
V\u03a1\u03ac\u03b4\u03b9\u03bf \u039b\u03ad\u03c7\u03bf\u03b2\u03bf 97.1
p231
ssS'190'
p232
(dp233
g4
V190
p234
sg6
V\u03a1\u03ac\u03b4\u03b9\u03bf \u03a6\u03bb\u03ce\u03c1\u03b9\u03bd\u03b1 101.5
p235
ssS'193'
p236
(dp237
g219
S'http://live.onestreaming.com/toxotis'
p238
sg4
V193
p239
sg6
V\u03a4\u03bf\u03be\u03cc\u03c4\u03b7\u03c2 Fm 96.3
p240
ssS'192'
p241
(dp242
g219
S'http://72.55.146.84:8002/'
p243
sg4
V192
p244
sg6
V\u0395\u03c1\u03c9\u03c4\u03b9\u03ba\u03cc\u03c2 99.5
p245
ssS'270'
p246
(dp247
g219
S'http://s3.onweb.gr:8046'
p248
sg4
V270
p249
sg6
VEnjoy Radio 107
p250
ssS'271'
p251
(dp252
g4
V271
p253
sg6
V\u039b\u03ac\u03bc\u03c8\u03b7 103.3
p254
ssS'272'
p255
(dp256
g219
S'http://78.129.159.205:8048'
p257
sg4
V272
p258
sg6
V\u0399\u03b5\u03c1\u03ac \u039c\u03b7\u03c4\u03c1\u03cc\u03c0\u03bf\u03bb\u03b7 88.4
p259
ssS'273'
p260
(dp261
g219
S'mms://radiogamma.live24.gr/radiogamma'
p262
sg4
V273
p263
sg6
V\u03a1\u03ac\u03b4\u03b9\u03bf \u0393\u03ac\u03bc\u03bc\u03b1 94
p264
ssS'274'
p265
(dp266
g219
S'http://s1.onweb.gr:8898'
p267
sg4
V274
p268
sg6
V\u039d\u03b5\u03bc\u03ad\u03b1 Radio 107.6
p269
ssS'275'
p270
(dp271
g219
S'http://s6.onweb.gr:8008'
p272
sg4
V275
p273
sg6
VJust 96.4
p274
ssS'276'
p275
(dp276
g219
S'http://s3.onweb.gr:8510'
p277
sg4
V276
p278
sg6
V\u039b\u03bf\u03c5\u03c4\u03c1\u03ac\u03ba\u03b9 Fm 96.9
p279
ssS'277'
p280
(dp281
g219
S'http://s3.onweb.gr:8472/'
p282
sg4
V277
p283
sg6
VL Radio 87.5
p284
ssS'278'
p285
(dp286
g219
S'http://s1.onweb.gr:8828'
p287
sg4
V278
p288
sg6
V\u03a1\u03ac\u03b4\u03b9\u03bf \u0395\u03bd\u03ad\u03c1\u03b3\u03b5\u03b9\u03b1 106.4
p289
ssS'279'
p290
(dp291
g219
S'http://stream.kiss922.gr:59922/'
p292
sg4
V279
p293
sg6
VKiss 93.8
p294
ssS'738'
p295
(dp296
g4
V738
p297
sg6
V\u0397\u03c7\u03cc\u03c1\u03b1\u03bc\u03b1 93.3
p298
ssS'524'
p299
(dp300
g4
V524
p301
sg6
VRussian Wave 105.6
p302
ssS'525'
p303
(dp304
g4
V525
p305
sg6
VPost Rocking
p306
ssS'526'
p307
(dp308
g4
V526
p309
sg6
V\u03a3\u03ba\u03ac\u03ca \u0391\u03c1\u03b3\u03bf\u03bb\u03af\u03b4\u03b1\u03c2 102.3
p310
ssS'527'
p311
(dp312
g4
V527
p313
sg6
VNoise Fm 100.5
p314
ssS'520'
p315
(dp316
g4
V520
p317
sg6
VArion Kids
p318
ssS'521'
p319
(dp320
g219
S'http://eco.onestreaming.com:8266'
p321
sg4
V521
p322
sg6
V\u0397\u03c7\u03ce Radio 102.7
p323
ssS'523'
p324
(dp325
g219
S'http://live.onestreaming.com/orthodoxia'
p326
sg4
V523
p327
sg6
V\u039f\u03c1\u03b8\u03bf\u03b4\u03bf\u03be\u03af\u03b1 \u03ba\u03b1\u03b9 \u03a0\u03b1\u03c1\u03ac\u03b4\u03bf\u03c3\u03b7
p328
ssS'1014'
p329
(dp330
g219
S'http://188.138.19.96:8030/'
p331
sg4
V1014
p332
sg6
VDeejay Fm 107.3
p333
ssS'528'
p334
(dp335
g4
V528
p336
sg6
VGreekzlive Radio
p337
ssS'529'
p338
(dp339
g219
S'http://shoutcast.24radio.gr:8010/'
p340
sg4
V529
p341
sg6
VNetcruise Radio
p342
ssS'449'
p343
(dp344
g4
V449
p345
sg6
VCocktail Radio
p346
ssS'448'
p347
(dp348
g219
S'http://eco.onestreaming.com:8005/stream'
p349
sg4
V448
p350
sg6
VLoco Radio
p351
ssS'443'
p352
(dp353
g219
S'http://www.tuningradio.gr:8000/'
p354
sg4
V443
p355
sg6
VTuning Radio
p356
ssS'442'
p357
(dp358
g4
V442
p359
sg6
V\u03a1\u03ac\u03b4\u03b9\u03bf \u03a6\u03ac\u03c3\u03b7
p360
ssS'441'
p361
(dp362
g4
V441
p363
sg6
VHot Station
p364
ssS'440'
p365
(dp366
g4
V440
p367
sg6
VActive Radio
p368
ssS'447'
p369
(dp370
g4
V447
p371
sg6
VMango Radio
p372
ssS'446'
p373
(dp374
S'url'
p375
S'http://live.waveradio.gr:8000/listen'
p376
sg4
V446
p377
sg6
VWave Radio
p378
ssS'445'
p379
(dp380
g4
V445
p381
sg6
VNotes Radio
p382
ssS'444'
p383
(dp384
g4
V444
p385
sg6
VBlue Radio
p386
ssS'108'
p387
(dp388
g4
V108
p389
sg6
VEpirusMusic
p390
ssS'109'
p391
(dp392
g4
V109
p393
sg6
VBlu Radio
p394
ssS'102'
p395
(dp396
g4
V102
p397
sg6
VTrip Radio
p398
ssS'103'
p399
(dp400
g375
S'http://live.onestreaming.com/deltaradio'
p401
sg4
V103
p402
sg6
VIEK Delta Radio
p403
ssS'100'
p404
(dp405
g4
V100
p406
sg6
VEvia Channel 94.2
p407
ssS'101'
p408
(dp409
g4
V101
p410
sg6
VStudio E 103
p411
ssS'107'
p412
(dp413
g375
S'http://s4.onweb.gr:8062/'
p414
sg4
V107
p415
sg6
V\u039e\u03b5\u03bd\u03cd\u03c7\u03c4\u03b7\u03c2
p416
ssS'104'
p417
(dp418
g4
V104
p419
sg6
V1431 AM
p420
ssS'105'
p421
(dp422
g375
S'http://live.onestreaming.com/bestmytilini'
p423
sg4
V105
p424
sg6
VBest Fm 98.1
p425
ssS'39'
p426
(dp427
g375
S'http://parea104.live24.gr/parea104'
p428
sg4
V39
p429
sg6
V\u03a0\u03b1\u03c1\u03ad\u03b1 104
p430
ssS'38'
p431
(dp432
g375
S'mms://johngreek.live24.gr/polis2795'
p433
sg4
V38
p434
sg6
VNRJ Radio 88.6
p435
ssS'907'
p436
(dp437
g4
V907
p438
sg6
VRadio Digital
p439
ssS'904'
p440
(dp441
g4
V904
p442
sg6
VSuper Radio
p443
ssS'33'
p444
(dp445
g375
S'mms://nitro.live24.gr/nitro4555'
p446
sg4
V33
p447
sg6
VNitro 102.5
p448
ssS'32'
p449
(dp450
g375
S'mms://kissfm.live24.gr/kiss2111'
p451
sg4
V32
p452
sg6
VKiss 92.9
p453
ssS'31'
p454
(dp455
g375
S'mms://best.live24.gr/best1222'
p456
sg4
V31
p457
sg6
VBest 92.6
p458
ssS'30'
p459
(dp460
g375
S'http://loveradio.live24.gr/loveradio-1000'
p461
sg4
V30
p462
sg6
VLove Radio 97.5
p463
ssS'37'
p464
(dp465
g375
S'http://dromos898.live24.gr/dromos898'
p466
sg4
V37
p467
sg6
V\u0394\u03c1\u03cc\u03bc\u03bf\u03c2 Fm 89.8
p468
ssS'36'
p469
(dp470
g4
V36
p471
sg6
VRadio 9 98.9
p472
ssS'35'
p473
(dp474
g4
V35
p475
sg6
VHi Jack
p476
ssS'34'
p477
(dp478
g375
S'mms://sfera.live24.gr/sfera4132'
p479
sg4
V34
p480
sg6
VSfera 102.2
p481
ssS'641'
p482
(dp483
g4
V641
p484
sg6
VCosmos Fm 103.8
p485
ssS'640'
p486
(dp487
g375
S'http://s4.onweb.gr:8442/'
p488
sg4
V640
p489
sg6
VRadio Amore
p490
ssS'643'
p491
(dp492
g375
S'http://174.36.237.66:8112/'
p493
sg4
V643
p494
sg6
VEnergy Fm 101
p495
ssS'645'
p496
(dp497
g4
V645
p498
sg6
VPrime Radio 100.3
p499
ssS'644'
p500
(dp501
g375
S'http://s3.onweb.gr:8474/'
p502
sg4
V644
p503
sg6
VFresh Radio
p504
ssS'88'
p505
(dp506
g4
V88
p507
sg6
V\u03a3 \u03b1\u03b3\u03b1\u03c0\u03ce 96.1
p508
ssS'646'
p509
(dp510
g375
S'http://s5.onweb.gr:8504/'
p511
sg4
V646
p512
sg6
V\u03a6\u03ac\u03c1\u03bf\u03c2 Fm 104
p513
ssS'649'
p514
(dp515
g375
S'http://eco.onestreaming.com:8294'
p516
sg4
V649
p517
sg6
VPower Fm 92.6
p518
ssS'648'
p519
(dp520
g4
V648
p521
sg6
VView Fm 103.9
p522
ssS'435'
p523
(dp524
g4
V435
p525
sg6
VCoolfm.eu
p526
ssS'432'
p527
(dp528
g4
V432
p529
sg6
VSplash Radio
p530
ssS'433'
p531
(dp532
g4
V433
p533
sg6
V\u0394\u03b9\u03b1\u03b8\u03b5\u03c4\u03b9\u03ba\u03ae
p534
ssS'1002'
p535
(dp536
g4
V1002
p537
sg6
V\u03a1\u03c5\u03b8\u03bc\u03cc\u03c2 Fm12 93.5
p538
ssS'339'
p539
(dp540
g375
S'http://live.skyradio.gr:9920'
p541
sg4
V339
p542
sg6
VSky Radio 99.2
p543
ssS'338'
p544
(dp545
g375
S'http://94.23.159.115:8088/'
p546
sg4
V338
p547
sg6
VSafari 104.7
p548
ssS'335'
p549
(dp550
g375
S'http://eco.onestreaming.com:8070'
p551
sg4
V335
p552
sg6
V\u0392\u03ae\u03bc\u03b1 Fm 90.1
p553
ssS'334'
p554
(dp555
g4
V334
p556
sg6
V\u039c\u03cd\u03b8\u03bf\u03c2 93.4
p557
ssS'337'
p558
(dp559
g4
V337
p560
sg6
V\u03a1\u03ac\u03b4\u03b9\u03bf \u0398\u03b5\u03c3\u03c0\u03c1\u03c9\u03c4\u03af\u03b1 97.1
p561
ssS'336'
p562
(dp563
g4
V336
p564
sg6
V\u03a1\u03ac\u03b4\u03b9\u03bf \u03a0\u03c1\u03ad\u03b2\u03b5\u03b6\u03b1 93
p565
ssS'331'
p566
(dp567
g375
S'http://s2.onweb.gr:8632'
p568
sg4
V331
p569
sg6
V\u0391\u03ba\u03c4\u03af\u03bd\u03b1 Fm 107.6
p570
ssS'330'
p571
(dp572
g375
S'mms://radio.istoikona.com/cosmos'
p573
sg4
V330
p574
sg6
VCosmos Radio 95.2
p575
ssS'332'
p576
(dp577
g4
V332
p578
sg6
VRadio Blackman 103.1
p579
ssS'89'
p580
(dp581
g375
S'http://shout.streamwithq.gr:4144/'
p582
sg4
V89
p583
sg6
VStar 97.1
p584
ssS'558'
p585
(dp586
g4
V558
p587
sg6
VXLR8 Net
p588
ssS'344'
p589
(dp590
g375
S'http://78.129.143.157:8000/starfm'
p591
sg4
V344
p592
sg6
VStar Fm 97.1
p593
ssS'345'
p594
(dp595
g375
S'http://live.onestreaming.com/karpenisi'
p596
sg4
V345
p597
sg6
V\u03a1\u03ac\u03b4\u03b9\u03bf \u039a\u03b1\u03c1\u03c0\u03b5\u03bd\u03ae\u03c3\u03b9 97.5
p598
ssS'748'
p599
(dp600
g375
S'http://nyc04.egihosting.com/458378'
p601
sg4
V748
p602
sg6
VCity International 106.1
p603
ssS'98'
p604
(dp605
g4
V98
p606
sg6
VGnet Radio
p607
ssS'91'
p608
(dp609
g375
S'http://sc2.greekstream.net:4008'
p610
sg4
V91
p611
sg6
V\u03a3\u03c4\u03b1\u03b8\u03bc\u03cc\u03c2
p612
ssS'90'
p613
(dp614
g375
S'http://stream.greekradios.gr:9060'
p615
sg4
V90
p616
sg6
VZoo Radio 90.8
p617
ssS'93'
p618
(dp619
g4
V93
p620
sg6
VGrassagoogoo
p621
ssS'92'
p622
(dp623
g4
V92
p624
sg6
V\u039a\u03bf\u03c3\u03bc\u03bf\u03c1\u03ac\u03b4\u03b9\u03bf 95.1
p625
ssS'95'
p626
(dp627
g4
V95
p628
sg6
VRadio Jukebox
p629
ssS'94'
p630
(dp631
g4
V94
p632
sg6
VRock Machine
p633
ssS'97'
p634
(dp635
g4
V97
p636
sg6
VAlpha 100.5
p637
ssS'96'
p638
(dp639
g375
S'http://webradio.musicheaven.gr:9850'
p640
sg4
V96
p641
sg6
VMusic Heaven
p642
ssS'349'
p643
(dp644
g375
S'http://s1.onweb.gr:8860'
p645
sg4
V349
p646
sg6
V\u03a3\u03c4\u03c5\u03bb\u03af\u03b4\u03b1 Fm 94.1
p647
ssS'153'
p648
(dp649
g4
V153
p650
sg6
VRed 96.3
p651
ssS'740'
p652
(dp653
g375
S'http://85.17.30.90:8044/'
p654
sg4
V740
p655
sg6
VStar Fm 95.7
p656
ssS'742'
p657
(dp658
g4
V742
p659
sg6
V\u03a1\u03ac\u03b4\u03b9\u03bf \u0391\u03bc\u03c6\u03b9\u03bb\u03bf\u03c7\u03af\u03b1 104.5
p660
ssS'743'
p661
(dp662
g375
S'http://eco.onestreaming.com:8286'
p663
sg4
V743
p664
sg6
V\u039b\u03ac\u03ba\u03ba\u03b1 \u03a3\u03bf\u03cd\u03bb\u03b9 Radio
p665
ssS'559'
p666
(dp667
g375
S'http://208.43.115.44:9888/'
p668
sg4
V559
p669
sg6
V\u0395\u03bb\u03bb\u03b7\u03bd\u03b9\u03ba\u03cc \u03a6\u03b1\u03b9\u03bd\u03cc\u03bc\u03b5\u03bd\u03bf
p670
ssS'745'
p671
(dp672
g4
V745
p673
sg6
VMoreradio
p674
ssS'555'
p675
(dp676
g375
S'http://72.55.146.84:8004/'
p677
sg4
V555
p678
sg6
VDiva Fm 91.6
p679
ssS'554'
p680
(dp681
g375
S'http://s7.onweb.gr:8552/'
p682
sg4
V554
p683
sg6
VHot 101.2
p684
ssS'556'
p685
(dp686
g4
V556
p687
sg6
VLemon Radio
p688
ssS'551'
p689
(dp690
g375
S'http://live.onestreaming.com/radiosamos'
p691
sg4
V551
p692
sg6
V\u03a1\u03ac\u03b4\u03b9\u03bf \u03a3\u03ac\u03bc\u03bf\u03c2 102
p693
ssS'550'
p694
(dp695
g4
V550
p696
sg6
VHuts Radio
p697
ssS'553'
p698
(dp699
g4
V553
p700
sg6
VStudio Fm 1 105.4
p701
ssS'552'
p702
(dp703
g375
S'http://golive.onestreaming.com/astraradio'
p704
sg4
V552
p705
sg6
VAstra Radio 93.2
p706
ssS'238'
p707
(dp708
g375
S'http://85.17.30.90:9986'
p709
sg4
V238
p710
sg6
V\u0397\u03c7\u03cc\u03c1\u03b1\u03bc\u03b1 100.8
p711
ssS'239'
p712
(dp713
g375
S'http://s1.onweb.gr:8052'
p714
sg4
V239
p715
sg6
V\u03a0\u03c1\u03ce\u03c4\u03bf Fm 99
p716
ssS'234'
p717
(dp718
g4
V234
p719
sg6
V\u03a0\u03cc\u03bb\u03b9\u03c2 99.4
p720
ssS'235'
p721
(dp722
g375
S'http://s1.onweb.gr:8824'
p723
sg4
V235
p724
sg6
V\u03a1\u03ac\u03b4\u03b9\u03bf 2 97.1
p725
ssS'236'
p726
(dp727
g375
S'http://live.onestreaming.com/radiovelika'
p728
sg4
V236
p729
sg6
VRadio Velika 92.2
p730
ssS'237'
p731
(dp732
g4
V237
p733
sg6
VBest Radio 93.9
p734
ssS'230'
p735
(dp736
g4
V230
p737
sg6
V\u03a1\u03ac\u03b4\u03b9\u03bf \u03a6\u03ac\u03c1\u03bf\u03c2 91.8
p738
ssS'231'
p739
(dp740
g4
V231
p741
sg6
VHeart Fm 105.1
p742
ssS'232'
p743
(dp744
g4
V232
p745
sg6
VAstra 97.3
p746
ssS'233'
p747
(dp748
g4
V233
p749
sg6
V\u03a1\u03ac\u03b4\u03b9\u03bf \u039a\u03b9\u03b2\u03c9\u03c4\u03cc\u03c2 87.8
p750
ssS'1055'
p751
(dp752
g375
S'http://eco.onestreaming.com:8014/live'
p753
sg4
V1055
p754
sg6
VBleep Radio
p755
ssS'1059'
p756
(dp757
g375
S'http://188.40.131.14:6004/'
p758
sg4
V1059
p759
sg6
VCosi Radio
p760
ssS'155'
p761
(dp762
g375
S'mms://a1758.l3271933757.c32719.g.lm.akamaistream.net/D/1758/32719/v0001/reflector:33757'
p763
sg4
V155
p764
sg6
V102 Fm
p765
ssS'146'
p766
(dp767
g375
S'mms://radio.istoikona.com/starfmcy'
p768
sg4
V146
p769
sg6
VStar Fm 93.7
p770
ssS'147'
p771
(dp772
g375
S'mms://radio.istoikona.com/rockfm'
p773
sg4
V147
p774
sg6
VRock Fm 98.5
p775
ssS'144'
p776
(dp777
g4
V144
p778
sg6
VMusicNetCy \u0388\u03bd\u03c4\u03b5\u03c7\u03bd\u03bf
p779
ssS'145'
p780
(dp781
g4
V145
p782
sg6
VKiss 89.0
p783
ssS'142'
p784
(dp785
g375
S'mms://radio.istoikona.com/sport1'
p786
sg4
V142
p787
sg6
VSports 1 93.7
p788
ssS'143'
p789
(dp790
g4
V143
p791
sg6
VChoice Fm 104.3
p792
ssS'140'
p793
(dp794
g375
S'mms://radio.istoikona.com/kanali61'
p795
sg4
V140
p796
sg6
V\u039a\u03b1\u03bd\u03ac\u03bb\u03b9 6 106
p797
ssS'141'
p798
(dp799
g375
S'mms://live.istoikona.com/astra'
p800
sg4
V141
p801
sg6
VAstra 92.8
p802
ssS'612'
p803
(dp804
g375
S'http://s3.onweb.gr:8536/'
p805
sg4
V612
p806
sg6
V\u0391\u03c1\u03b3\u03bf\u03c3\u03b1\u03c1\u03c9\u03bd\u03b9\u03ba\u03cc\u03c2 106.4
p807
ssS'613'
p808
(dp809
g4
V613
p810
sg6
VLa Radio
p811
ssS'610'
p812
(dp813
g375
S'http://www.streamyourdream.org/djlarisa'
p814
sg4
V610
p815
sg6
VLarissa Dee Jay 101.8
p816
ssS'611'
p817
(dp818
g4
V611
p819
sg6
VParanoise Radio
p820
ssS'616'
p821
(dp822
g375
S'http://109.169.26.78:9294'
p823
sg4
V616
p824
sg6
VMood Radio
p825
ssS'617'
p826
(dp827
g4
V617
p828
sg6
VSeek Fm
p829
ssS'614'
p830
(dp831
g375
S'http://radio.mythosfm.gr:8010'
p832
sg4
V614
p833
sg6
V\u039c\u03cd\u03b8\u03bf\u03c2 Fm 90.6
p834
ssS'149'
p835
(dp836
g375
S'mms://a1113.l3271935112.c32719.g.lm.akamaistream.net/D/1113/32719/v0001/reflector:35112'
p837
sg4
V149
p838
sg6
V\u0395\u03a1\u0391 \u03a3\u03c0\u03bf\u03c1 101.8
p839
ssS'510'
p840
(dp841
g375
S'http://shoutcast.24radio.gr:8062/'
p842
sg4
V510
p843
sg6
V\u03a1\u03ac\u03b4\u03b9\u03bf \u039a\u03b1\u03c3\u03c4\u03bf\u03c1\u03b9\u03ac 93 Fm
p844
ssS'513'
p845
(dp846
g375
S'http://188.40.131.14:8004'
p847
sg4
V513
p848
sg6
VSpace Fm 107
p849
ssS'946'
p850
(dp851
g4
V946
p852
sg6
VMadbox Radio
p853
ssS'515'
p854
(dp855
g375
S'http://eco.onestreaming.com:8168'
p856
sg4
V515
p857
sg6
VRadio In \u039b\u03b1\u03ca\u03ba\u03ac
p858
ssS'944'
p859
(dp860
g4
V944
p861
sg6
VEiva Radio
p862
ssS'945'
p863
(dp864
g4
V945
p865
sg6
VFly Fm
p866
ssS'943'
p867
(dp868
g4
V943
p869
sg6
VEnallax Radio
p870
ssS'940'
p871
(dp872
g4
V940
p873
sg6
VRadio Mostra
p874
ssS'941'
p875
(dp876
g375
S'http://live.onestreaming.com/aeolos'
p877
sg4
V941
p878
sg6
V\u03a1\u03ac\u03b4\u03b9\u03bf \u0391\u03af\u03bf\u03bb\u03bf\u03c2 92.8
p879
ssS'689'
p880
(dp881
g4
V689
p882
sg6
VStatus Radio.net
p883
ssS'1001'
p884
(dp885
g375
S'http://shout.streamwithq.gr:4104/'
p886
sg4
V1001
p887
sg6
VAntenna Fm12 94.4
p888
ssS'685'
p889
(dp890
g375
S'http://live.onestreaming.com/koziani'
p891
sg4
V685
p892
sg6
V\u03a1\u03ac\u03b4\u03b9\u03bf \u039a\u03bf\u03b6\u03b9\u03ac\u03bd\u03b7
p893
ssS'684'
p894
(dp895
g4
V684
p896
sg6
VDerti 104.9
p897
ssS'687'
p898
(dp899
g375
S'http://live.onestreaming.com/radioionia'
p900
sg4
V687
p901
sg6
V\u03a1\u03ac\u03b4\u03b9\u03bf \u0399\u03c9\u03bd\u03af\u03b1 95.2
p902
ssS'686'
p903
(dp904
g375
S'http://s1.onweb.gr:8852/'
p905
sg4
V686
p906
sg6
V\u039a\u03c1\u03b7\u03c4\u03b9\u03ba\u03cc\u03c2 Fm 88.7
p907
ssS'681'
p908
(dp909
g375
S'http://s2.onweb.gr:8602/'
p910
sg4
V681
p911
sg6
V\u039a\u03bb\u03af\u03ba Fm 106.2
p912
ssS'680'
p913
(dp914
g375
S'http://live.onestreaming.com/super88'
p915
sg4
V680
p916
sg6
VSuper Radio 88
p917
ssS'683'
p918
(dp919
g4
V683
p920
sg6
V\u03a3\u03b1\u03bd\u03c4\u03bf\u03c1\u03af\u03bd\u03b7 106.4
p921
ssS'682'
p922
(dp923
g4
V682
p924
sg6
VTi Amo Fm 102.7
p925
ssS'133'
p926
(dp927
g4
V133
p928
sg6
VLove Radio 100.7
p929
ssS'132'
p930
(dp931
g375
S'http://live.onestreaming.com/mixfm'
p932
sg4
V132
p933
sg6
VMix Fm 102.3
p934
ssS'131'
p935
(dp936
g4
V131
p937
sg6
VEnergy 107.6
p938
ssS'130'
p939
(dp940
g375
S'mms://live.istoikona.com/sferacy'
p941
sg4
V130
p942
sg6
VSfera 96.8
p943
ssS'498'
p944
(dp945
g375
S'http://www.streamyourdream.org/djvolos'
p946
sg4
V498
p947
sg6
VVolos Dee Jay 90.7
p948
ssS'136'
p949
(dp950
g4
V136
p951
sg6
VRadio Dee Jay 93.6
p952
ssS'135'
p953
(dp954
g4
V135
p955
sg6
VSuper Sport Fm 104
p956
ssS'134'
p957
(dp958
g375
S'http://golive.onestreaming.com/radioproto'
p959
sg4
V134
p960
sg6
V\u03a1\u03ac\u03b4\u03b9\u03bf \u03a0\u03c1\u03ce\u03c4\u03bf 99.3
p961
ssS'494'
p962
(dp963
g375
S'http://208.43.115.44:8070'
p964
sg4
V494
p965
sg6
V\u0397\u03c7\u03cc\u03c1\u03b1\u03bc\u03b1
p966
ssS'495'
p967
(dp968
g4
V495
p969
sg6
VBalloni Radio
p970
ssS'139'
p971
(dp972
g375
S'mms://live.istoikona.com/topfmcy'
p973
sg4
V139
p974
sg6
VTop Fm 99.9
p975
ssS'497'
p976
(dp977
g375
S'http://drs953.live24.gr/drs953'
p978
sg4
V497
p979
sg6
VDRS 95.3 Disco Radio
p980
ssS'490'
p981
(dp982
g4
V490
p983
sg6
V\u039a\u03b1\u03c3\u03c4\u03ad\u03bb\u03bb\u03b9\u03b1 Radio
p984
ssS'491'
p985
(dp986
g4
V491
p987
sg6
VTEI Radio Digital
p988
ssS'492'
p989
(dp990
g4
V492
p991
sg6
V\u0394\u03c5\u03c4\u03b9\u03ba\u03ac Fm 96.1
p992
ssS'493'
p993
(dp994
g375
S'http://s3.onweb.gr:8524/'
p995
sg4
V493
p996
sg6
VInternational Fm 107.5
p997
ssS'24'
p998
(dp999
g375
S'mms://galaxy.live24.gr/galaxy9292'
p1000
sg4
V24
p1001
sg6
VGalaxy 92
p1002
ssS'25'
p1003
(dp1004
g375
S'http://realfm.live24.gr/realfm'
p1005
sg4
V25
p1006
sg6
VReal Fm 97.8
p1007
ssS'26'
p1008
(dp1009
g375
S'http://village883.live24.gr/village883'
p1010
sg4
V26
p1011
sg6
VV Fm 88.3
p1012
ssS'27'
p1013
(dp1014
g375
S'mms://derti.live24.gr/derty1000'
p1015
sg4
V27
p1016
sg6
VDerti 98.6
p1017
ssS'20'
p1018
(dp1019
g375
S'http://91.132.6.21:8001'
p1020
sg4
V20
p1021
sg6
VAthens Dee Jay 95.2
p1022
ssS'21'
p1023
(dp1024
g4
V21
p1025
sg6
VRock Fm 96.9
p1026
ssS'22'
p1027
(dp1028
g375
S'mms://orange.live24.gr/orange9320'
p1029
sg4
V22
p1030
sg6
VHappy 93.2
p1031
ssS'23'
p1032
(dp1033
g375
S'mms://enleuko.live24.gr/enleuko877'
p1034
sg4
V23
p1035
sg6
V\u0395\u03bd \u039b\u03b5\u03c5\u03ba\u03ce 87.7
p1036
ssS'28'
p1037
(dp1038
g375
S'http://diesi.live24.gr/diesi1013'
p1039
sg4
V28
p1040
sg6
V\u0394\u03af\u03b5\u03c3\u03b7 101.3
p1041
ssS'29'
p1042
(dp1043
g375
S'mms://sportfm.live24.gr/sportfm7712'
p1044
sg4
V29
p1045
sg6
VNova Sport Fm 94.6
p1046
ssS'407'
p1047
(dp1048
g4
V407
p1049
sg6
V\u03a1\u03ac\u03b4\u03b9\u03bf \u03a7\u03b5\u03c1\u03c3\u03cc\u03bd\u03b7\u03c3\u03c3\u03bf\u03c2 97.2
p1050
ssS'406'
p1051
(dp1052
g4
V406
p1053
sg6
VMetro 89.2
p1054
ssS'405'
p1055
(dp1056
g375
S'http://s3.onweb.gr:8438/'
p1057
sg4
V405
p1058
sg6
VMax 92.5
p1059
ssS'404'
p1060
(dp1061
g4
V404
p1062
sg6
VLava Fm 107.7
p1063
ssS'403'
p1064
(dp1065
g4
V403
p1066
sg6
V\u039d\u03ad\u03bf \u03a1\u03b1\u03b4\u03b9\u03cc\u03c6\u03c9\u03bd\u03bf 102.3
p1067
ssS'402'
p1068
(dp1069
g375
S'http://eco.onestreaming.com:8237/live'
p1070
sg4
V402
p1071
sg6
VRadio 98.4
p1072
ssS'401'
p1073
(dp1074
g375
S'http://s4.onweb.gr:8484'
p1075
sg4
V401
p1076
sg6
V\u039d\u03cc\u03c4\u03bf\u03c2 101.8
p1077
ssS'400'
p1078
(dp1079
g4
V400
p1080
sg6
V\u03a1\u03ac\u03b4\u03b9\u03bf \u039c\u03b1\u03c1\u03c4\u03c5\u03c1\u03af\u03b1 95.5
p1081
ssS'933'
p1082
(dp1083
g375
S'http://shoutcast.24radio.gr:8042/'
p1084
sg4
V933
p1085
sg6
VSfera 91
p1086
ssS'932'
p1087
(dp1088
g375
S'http://www.ghostradio.gr/world-128'
p1089
sg4
V932
p1090
sg6
VGhost Radio
p1091
ssS'409'
p1092
(dp1093
g4
V409
p1094
sg6
V\u0389\u03c7\u03bf\u03c2 Fm 94.2
p1095
ssS'934'
p1096
(dp1097
g4
V934
p1098
sg6
VMusic Box Fm
p1099
ssS'379'
p1100
(dp1101
g4
V379
p1102
sg6
VSmooth Traxx
p1103
ssS'378'
p1104
(dp1105
g4
V378
p1106
sg6
V\u03a7\u03c1\u03b9\u03c3\u03c4\u03b9\u03b1\u03bd\u03b9\u03ba\u03ae \u0391\u03bb\u03ae\u03b8\u03b5\u03b9\u03b1 88.4
p1107
ssS'371'
p1108
(dp1109
g375
S'http://s1.onweb.gr:8008/'
p1110
sg4
V371
p1111
sg6
VAquarius 105.5
p1112
ssS'370'
p1113
(dp1114
g4
V370
p1115
sg6
V\u0395\u03bd\u03b1\u03bb\u03bb\u03ac\u03be Fm 99.9
p1116
ssS'373'
p1117
(dp1118
g375
S'mms://m2.onweb.gr/amorefm'
p1119
sg4
V373
p1120
sg6
VAmore Fm 107.9
p1121
ssS'372'
p1122
(dp1123
g375
S'http://s4.onweb.gr:8080'
p1124
sg4
V372
p1125
sg6
V\u03a1\u03ac\u03b4\u03b9\u03bf \u03a5\u03c0\u03ac\u03c1\u03c7\u03c9 103.7
p1126
ssS'375'
p1127
(dp1128
g375
S'mms://radiofeeds1.mediabox.gr/attradio'
p1129
sg4
V375
p1130
sg6
VAttradio
p1131
ssS'820'
p1132
(dp1133
g375
S'http://shoutcast.24radio.gr:8066/'
p1134
sg4
V820
p1135
sg6
VBee Radio
p1136
ssS'377'
p1137
(dp1138
g375
S'http://live.onestreaming.com/spyridon'
p1139
sg4
V377
p1140
sg6
V\u0386\u03b3\u03b9\u03bf\u03c2 \u03a3\u03c0\u03c5\u03c1\u03af\u03b4\u03c9\u03bd 91.1
p1141
ssS'376'
p1142
(dp1143
g4
V376
p1144
sg6
VIEK Delta Radio Alt.
p1145
ssS'709'
p1146
(dp1147
g4
V709
p1148
sg6
VEnergy Corfu 95.7
p1149
ssS'704'
p1150
(dp1151
g375
S'http://eco.onestreaming.com:8226'
p1152
sg4
V704
p1153
sg6
VTop Fm 96.9
p1154
ssS'705'
p1155
(dp1156
g4
V705
p1157
sg6
VStatus Radio 94.2
p1158
ssS'706'
p1159
(dp1160
g375
S'http://live.onestreaming.com/novamusic'
p1161
sg4
V706
p1162
sg6
VNova Radio 93.1
p1163
ssS'707'
p1164
(dp1165
g375
S'http://46.4.82.77:9998/'
p1166
sg4
V707
p1167
sg6
V\u03a7\u03c9\u03c1\u03af\u03c2 \u038c\u03c1\u03b9\u03b1
p1168
ssS'700'
p1169
(dp1170
g4
V700
p1171
sg6
VHello Radio
p1172
ssS'701'
p1173
(dp1174
g4
V701
p1175
sg6
VRadio Hxos Maik
p1176
ssS'702'
p1177
(dp1178
g375
S'http://relay4.mindradio.gr:80/live'
p1179
sg4
V702
p1180
sg6
VMind Radio
p1181
ssS'703'
p1182
(dp1183
g375
S'http://159.253.149.12:8094'
p1184
sg4
V703
p1185
sg6
VTropic Radio
p1186
ssS'393'
p1187
(dp1188
g375
S'http://s9.onweb.gr:8044/'
p1189
sg4
V393
p1190
sg6
VMad 95
p1191
ssS'392'
p1192
(dp1193
g375
S'http://s9.onweb.gr:8802'
p1194
sg4
V392
p1195
sg6
V\u03a1\u03ac\u03b4\u03b9\u03bf \u039b\u03b1\u03c3\u03ae\u03b8\u03b9 92.3
p1196
ssS'391'
p1197
(dp1198
g375
S'http://live.onestreaming.com/planetradio'
p1199
sg4
V391
p1200
sg6
VPlanet Radio 90.6
p1201
ssS'390'
p1202
(dp1203
g375
S'http://s4.onweb.gr:8466/'
p1204
sg4
V390
p1205
sg6
VRadio Melody 88
p1206
ssS'397'
p1207
(dp1208
g4
V397
p1209
sg6
V\u03a1\u03ac\u03b4\u03b9\u03bf \u039a\u03c1\u03ae\u03c4\u03b7 101.5
p1210
ssS'396'
p1211
(dp1212
g375
S'http://live.onestreaming.com/hxofm'
p1213
sg4
V396
p1214
sg6
V\u0397\u03c7\u03ce Fm 99.8
p1215
ssS'395'
p1216
(dp1217
g4
V395
p1218
sg6
V\u0394\u03af\u03b1\u03c5\u03bb\u03bf\u03c2 96.9
p1219
ssS'394'
p1220
(dp1221
g4
V394
p1222
sg6
VAtlantis Fm 105.2
p1223
ssS'82'
p1224
(dp1225
g375
S'http://imagine.1stepstream.com:8000/live'
p1226
sg4
V82
p1227
sg6
VImagine 89.7
p1228
ssS'83'
p1229
(dp1230
g4
V83
p1231
sg6
VVelvet 96.8
p1232
ssS'80'
p1233
(dp1234
g4
V80
p1235
sg6
VFm 100
p1236
ssS'398'
p1237
(dp1238
g4
V398
p1239
sg6
V\u039b\u03b1\u03c4\u03ce Fm 103.3
p1240
ssS'86'
p1241
(dp1242
g375
S'http://stream.greekradios.gr:4000'
p1243
sg4
V86
p1244
sg6
VRainbow 89
p1245
ssS'87'
p1246
(dp1247
g375
S'http://83.133.127.198:9096'
p1248
sg4
V87
p1249
sg6
VRock Radio 104.7
p1250
ssS'84'
p1251
(dp1252
g4
V84
p1253
sg6
V\u03a0\u03b1\u03bb\u03bc\u03cc\u03c2 96.5
p1254
ssS'85'
p1255
(dp1256
g4
V85
p1257
sg6
V\u038c\u03bb\u03b1 Fm 91.4
p1258
ssS'797'
p1259
(dp1260
g4
V797
p1261
sg6
VGiga Fm 105.4
p1262
ssS'794'
p1263
(dp1264
g4
V794
p1265
sg6
VRadio Mora
p1266
ssS'793'
p1267
(dp1268
g4
V793
p1269
sg6
V\u03a1\u03ac\u03b4\u03b9\u03bf \u0388\u03bd\u03c4\u03b5\u03c7\u03bd\u03bf\u03c2
p1270
ssS'791'
p1271
(dp1272
g375
S'http://shoutcast.24radio.gr:8056/'
p1273
sg4
V791
p1274
sg6
V\u03a1\u03ac\u03b4\u03b9\u03bf \u039c\u03ad\u03bb\u03b9 106
p1275
ssS'790'
p1276
(dp1277
g375
S'http://75.75.226.26:7099'
p1278
sg4
V790
p1279
sg6
VBlue Station
p1280
ssS'799'
p1281
(dp1282
g375
S'http://s8.onweb.gr:8706'
p1283
sg4
V799
p1284
sg6
VFresh 92.9
p1285
ssS'798'
p1286
(dp1287
g4
V798
p1288
sg6
VSchool Radio Ekali
p1289
ssS'170'
p1290
(dp1291
g4
V170
p1292
sg6
VDance Radio Deep House
p1293
ssS'586'
p1294
(dp1295
g375
S'http://ams02.egihosting.com/6020'
p1296
sg4
V586
p1297
sg6
VMelody 96.8
p1298
ssS'587'
p1299
(dp1300
g375
S'http://s6.onweb.gr:8046'
p1301
sg4
V587
p1302
sg6
VRadio Cafe 96.7
p1303
ssS'584'
p1304
(dp1305
g375
S'http://85.25.171.129:6000'
p1306
sg4
V584
p1307
sg6
V\u03a1\u03ac\u03b4\u03b9\u03bf \u0391\u03af\u03b3\u03b9\u03bf 99.2
p1308
ssS'585'
p1309
(dp1310
g4
V585
p1311
sg6
V\u03a1\u03ac\u03b4\u03b9\u03bf \u0395\u03bd\u03b7\u03bc\u03ad\u03c1\u03c9\u03c3\u03b7 92.2
p1312
ssS'582'
p1313
(dp1314
g375
S'http://78.46.46.214:7048'
p1315
sg4
V582
p1316
sg6
VMusic Art Club
p1317
ssS'583'
p1318
(dp1319
g4
V583
p1320
sg6
VAir 104.4
p1321
ssS'580'
p1322
(dp1323
g375
S'http://live.onestreaming.com/mixgrevena'
p1324
sg4
V580
p1325
sg6
VMix Fm 102.2
p1326
ssS'581'
p1327
(dp1328
g4
V581
p1329
sg6
VAntenna Star 105.9
p1330
ssS'588'
p1331
(dp1332
g375
S'http://s4.onweb.gr:8414'
p1333
sg4
V588
p1334
sg6
VMedia 92
p1335
ssS'589'
p1336
(dp1337
g375
S'http://s1.onweb.gr:8410/'
p1338
sg4
V589
p1339
sg6
VVenus Radio 99.3
p1340
ssS'245'
p1341
(dp1342
g4
V245
p1343
sg6
V\u039e\u03ac\u03bd\u03b8\u03b7 Dee Jay 90.6
p1344
ssS'244'
p1345
(dp1346
g375
S'http://s3.onweb.gr:8520'
p1347
sg4
V244
p1348
sg6
V\u03a1/\u03a3 \u0391\u03b3\u03b9\u03ac\u03c2 94.2
p1349
ssS'247'
p1350
(dp1351
g375
S'http://62.212.82.142:8033'
p1352
sg4
V247
p1353
sg6
VLive Fm 89.6
p1354
ssS'246'
p1355
(dp1356
g4
V246
p1357
sg6
V\u03a3\u03bf\u03ba Fm 104.8
p1358
ssS'241'
p1359
(dp1360
g4
V241
p1361
sg6
V\u0391\u03c1\u03b9\u03c3\u03c4\u03b5\u03c1\u03ac \u03a3\u03c4\u03b1 Fm 90.1
p1362
ssS'148'
p1363
(dp1364
g4
V148
p1365
sg6
V\u03a1\u03ac\u03b4\u03b9\u03bf \u03a0\u03ac\u03c6\u03bf\u03c2 93.7
p1366
ssS'243'
p1367
(dp1368
g375
S'http://eco.onestreaming.com:8103'
p1369
sg4
V243
p1370
sg6
V\u03a1/\u03a3 \u039a\u03b9\u03c3\u03c3\u03ac\u03b2\u03bf\u03c5 97.8
p1371
ssS'242'
p1372
(dp1373
g375
S'http://m1.onweb.gr/palace'
p1374
sg4
V242
p1375
sg6
VPalace 91.4
p1376
ssS'615'
p1377
(dp1378
g4
V615
p1379
sg6
VUp Fm 92.5
p1380
ssS'249'
p1381
(dp1382
g375
S'http://hotsoft.ws:8086/magicfm'
p1383
sg4
V249
p1384
sg6
VMagic Fm 98.2
p1385
ssS'248'
p1386
(dp1387
g4
V248
p1388
sg6
VKosmos Fm 100
p1389
ssS'519'
p1390
(dp1391
g375
S'http://188.40.131.14:8068/'
p1392
sg4
V519
p1393
sg6
VRadio Lepanto 101.4
p1394
ssS'518'
p1395
(dp1396
g4
V518
p1397
sg6
VStar Fm 90.9
p1398
ssS'511'
p1399
(dp1400
g4
V511
p1401
sg6
V\u03a7\u03af\u03bf\u03c2 Fm 97.8
p1402
ssS'1006'
p1403
(dp1404
g4
V1006
p1405
sg6
VMidnight Radio
p1406
ssS'1005'
p1407
(dp1408
g375
S'http://s2.onweb.gr:8654/'
p1409
sg4
V1005
p1410
sg6
VRadio1 Dance
p1411
ssS'512'
p1412
(dp1413
g4
V512
p1414
sg6
VDream On
p1415
ssS'1003'
p1416
(dp1417
g375
S'http://208.43.115.44:8138/'
p1418
sg4
V1003
p1419
sg6
VCannibal Radio
p1420
ssS'514'
p1421
(dp1422
g375
S'http://live.onestreaming.com/avanti'
p1423
sg4
V514
p1424
sg6
VAvanti Fm 98.3
p1425
ssS'517'
p1426
(dp1427
g4
V517
p1428
sg6
VRock Way
p1429
ssS'1000'
p1430
(dp1431
g375
S'http://shout.streamwithq.gr:4066/'
p1432
sg4
V1000
p1433
sg6
V\u0391\u03ba\u03c4\u03af\u03bd\u03b1 Radio 104.7
p1434
ssS'623'
p1435
(dp1436
g4
V623
p1437
sg6
VVeto Fm 91
p1438
ssS'622'
p1439
(dp1440
g375
S'http://radionostalgiagr.dyndns.org:2314/'
p1441
sg4
V622
p1442
sg6
V\u03a1\u03ac\u03b4\u03b9\u03bf \u039d\u03bf\u03c3\u03c4\u03b1\u03bb\u03b3\u03af\u03b1
p1443
ssS'621'
p1444
(dp1445
g375
S'mms://captainjack.live24.gr/captainjack9660'
p1446
sg4
V621
p1447
sg6
V\u0394\u03af\u03c6\u03c9\u03bd\u03bf 96.6
p1448
ssS'620'
p1449
(dp1450
g4
V620
p1451
sg6
V\u03a1/\u03a3 \u039c\u03b5\u03c3\u03bf\u03bb\u03bf\u03b3\u03b3\u03af\u03bf\u03c5 92
p1452
ssS'627'
p1453
(dp1454
g4
V627
p1455
sg6
VArtemis Fm 94.4
p1456
ssS'626'
p1457
(dp1458
g375
S'http://golive.onestreaming.com/musices'
p1459
sg4
V626
p1460
sg6
VMusicES Radio
p1461
ssS'624'
p1462
(dp1463
g4
V624
p1464
sg6
V\u039a\u03b1\u03bd\u03ac\u03bb\u03b9 1 90.4
p1465
ssS'593'
p1466
(dp1467
g219
S'http://78.46.46.214:7054'
p1468
sg4
V593
p1469
sg6
V\u03a1\u03ac\u03b4\u03b9\u03bf \u03a4\u03c1\u03b9\u03c6\u03c5\u03bb\u03af\u03b1\u03c2 101.3
p1470
ssS'179'
p1471
(dp1472
g375
S'http://s5.onweb.gr:8506/'
p1473
sg4
V179
p1474
sg6
VTraffic Fm 91.8
p1475
ssS'178'
p1476
(dp1477
g4
V178
p1478
sg6
VJust Radio 93
p1479
ssS'177'
p1480
(dp1481
g375
S'mms://kiss-fm-kard.live24.gr/kiss-fm-kard'
p1482
sg4
V177
p1483
sg6
VKiss 100.4
p1484
ssS'176'
p1485
(dp1486
g4
V176
p1487
sg6
VDiscomania
p1488
ssS'175'
p1489
(dp1490
g375
S'http://live.onestreaming.com/paradiseradio'
p1491
sg4
V175
p1492
sg6
VParadise 90.3
p1493
ssS'174'
p1494
(dp1495
g4
V174
p1496
sg6
VNoize Radio 93.5
p1497
ssS'173'
p1498
(dp1499
g375
S'http://s6.onweb.gr:8032'
p1500
sg4
V173
p1501
sg6
VKiss 96.1
p1502
ssS'172'
p1503
(dp1504
g375
S'http://eco.onestreaming.com:8068'
p1505
sg4
V172
p1506
sg6
VTop Fm
p1507
ssS'171'
p1508
(dp1509
g375
S'mms://live.onestreaming.com/radio996/'
p1510
sg4
V171
p1511
sg6
VRadio 99.6
p1512
ssS'198'
p1513
(dp1514
g4
V198
p1515
sg6
VHot Mix Fm 88
p1516
ssS'977'
p1517
(dp1518
g375
S'http://50.7.243.50:8062/'
p1519
sg4
V977
p1520
sg6
VLight Radio
p1521
ssS'183'
p1522
(dp1523
g4
V183
p1524
sg6
VNRG 89.5
p1525
ssS'654'
p1526
(dp1527
g4
V654
p1528
sg6
V\u0394\u03af\u03b1\u03c5\u03bb\u03bf\u03c2 91.1
p1529
ssS'182'
p1530
(dp1531
g4
V182
p1532
sg6
V\u03a1\u03ac\u03b4\u03b9\u03bf \u0388\u03bd\u03c4\u03b1\u03c3\u03b7 93.5
p1533
ssS'599'
p1534
(dp1535
g14
S'http://sportfmpatras.live24.gr/sportfmpatras'
p1536
sg4
V599
p1537
sg6
VSport Fm \u03a0\u03ac\u03c4\u03c1\u03b1\u03c2 96.3 
p1538
ssS'180'
p1539
(dp1540
g4
V180
p1541
sg6
VNRG 95
p1542
ssS'181'
p1543
(dp1544
g4
V181
p1545
sg6
VCapital 90.7
p1546
ssS'186'
p1547
(dp1548
g375
S'http://live.onestreaming.com/elladaradio'
p1549
sg4
V186
p1550
sg6
V\u0395\u03bb\u03bb\u03ac\u03b4\u03b1 Fm 96.7
p1551
ssS'653'
p1552
(dp1553
g4
V653
p1554
sg6
VBest Radio 101.1
p1555
ssS'184'
p1556
(dp1557
g4
V184
p1558
sg6
VMax 100.2
p1559
ssS'185'
p1560
(dp1561
g375
S'http://avantifm.live24.gr/avantifm'
p1562
sg4
V185
p1563
sg6
VAvanti 107.6
p1564
ssS'652'
p1565
(dp1566
g4
V652
p1567
sg6
V\u03a7\u03b1\u03bd\u03b9\u03ac Fm 33
p1568
ssS'188'
p1569
(dp1570
g4
V188
p1571
sg6
V\u03a1\u03ac\u03b4\u03b9\u03bf \u039c\u03b5\u03b8\u03cc\u03c1\u03b9\u03bf\u03c2 96
p1572
ssS'189'
p1573
(dp1574
g375
S'http://eco.onestreaming.com:8107/'
p1575
sg4
V189
p1576
sg6
V\u039a\u03b1\u03c3\u03c4\u03bf\u03c1\u03b9\u03ac Fm 91.5
p1577
ssS'658'
p1578
(dp1579
g375
S'http://radio.metalzone.gr/listen.php?type=asx'
p1580
sg4
V658
p1581
sg6
VMetal Zone
p1582
ssS'187'
p1583
(dp1584
g4
V187
p1585
sg6
V\u0395\u03bb\u03bb\u03ac\u03b4\u03b1 Fm 98.7
p1586
ssS'650'
p1587
(dp1588
g375
S'http://shoutcast.24radio.gr:8068'
p1589
sg4
V650
p1590
sg6
V\u0388\u03bd\u03c4\u03b5\u03c7\u03bd\u03bf\u03c2 Fm
p1591
ssS'651'
p1592
(dp1593
g4
V651
p1594
sg6
V\u03a1\u03ac\u03b4\u03b9\u03bf \u0395\u03c0\u03b9\u03bb\u03bf\u03b3\u03ad\u03c2 102.8
p1595
ssS'17'
p1596
(dp1597
g375
S'http://shoutcast.24radio.gr:8000'
p1598
sg4
V17
p1599
sg6
VHybrid Radio 94.9
p1600
ssS'19'
p1601
(dp1602
g375
S'mms://nordr.live24.gr/rythmos949ath'
p1603
sg4
V19
p1604
sg6
V\u03a1\u03c5\u03b8\u03bc\u03cc\u03c2 94.9
p1605
ssS'18'
p1606
(dp1607
g375
S'http://shoutcast.24radio.gr:8002'
p1608
sg4
V18
p1609
sg6
VRockStar
p1610
ssS'947'
p1611
(dp1612
g4
V947
p1613
sg6
VWild Radio
p1614
ssS'659'
p1615
(dp1616
g4
V659
p1617
sg6
V\u03a1\u03ac\u03b4\u03b9\u03bf \u03a7\u03b1\u03bb\u03ba\u03af\u03b4\u03b1 99.6
p1618
ssS'568'
p1619
(dp1620
g4
V568
p1621
sg6
V\u0391\u03b8\u03bb\u03b7\u03c4\u03b9\u03ba\u03ac \u039d\u03ad\u03b1 98.7
p1622
ssS'116'
p1623
(dp1624
S'id'
p1625
V116
p1626
sS'title'
p1627
VPirate Fm 91
p1628
ssS'657'
p1629
(dp1630
g4
V657
p1631
sg6
VCity 93
p1632
ssS'809'
p1633
(dp1634
g375
S'http://66.90.104.41:8090'
p1635
sg4
V809
p1636
sg6
VAsteras Radio
p1637
ssS'322'
p1638
(dp1639
g375
S'http://shout.streamwithq.gr:4110/'
p1640
sg4
V322
p1641
sg6
VRadio Retro 105.4
p1642
ssS'323'
p1643
(dp1644
g375
S'http://live.onestreaming.com/radionetlamia'
p1645
sg4
V323
p1646
sg6
VRadio Net 101.9
p1647
ssS'320'
p1648
(dp1649
g375
S'http://hotsoft.ws:8086/mk?.wma'
p1650
sg4
V320
p1651
sg6
V\u039c\u03bf\u03c5\u03c3\u03b9\u03ba\u03cc \u039a\u03b1\u03bd\u03ac\u03bb\u03b9 101.3
p1652
ssS'808'
p1653
(dp1654
g375
S'mms://live.onestreaming.com/starfmdm'
p1655
sg4
V808
p1656
sg6
VStar Fm 93.3
p1657
ssS'326'
p1658
(dp1659
g4
V326
p1660
sg6
VSports \u0395\u03c0\u03b9\u03bb\u03bf\u03b3\u03ad\u03c2 105.5
p1661
ssS'324'
p1662
(dp1663
g375
S'mms://live.istoikona.com/topfm'
p1664
sg4
V324
p1665
sg6
VTop Fm 102.4
p1666
ssS'325'
p1667
(dp1668
g4
V325
p1669
sg6
VSport Fm \u039e\u03ac\u03bd\u03b8\u03b7 98.4
p1670
ssS'328'
p1671
(dp1672
g4
V328
p1673
sg6
VRadio 24
p1674
ssS'329'
p1675
(dp1676
g375
S'http://www.streamyourdream.org:8000/acroama'
p1677
sg4
V329
p1678
sg6
V\u0391\u03ba\u03c1\u03cc\u03b1\u03bc\u03b1 99.8
p1679
ssS'688'
p1680
(dp1681
g375
S'http://78.46.46.215:7056'
p1682
sg4
V688
p1683
sg6
VBaby Radio
p1684
ssS'775'
p1685
(dp1686
g375
S'http://streaming.hotmix-radio.net/hotmixradio-80-128.mp3'
p1687
sg4
V775
p1688
sg6
VYeah! Radio
p1689
ssS'774'
p1690
(dp1691
g4
V774
p1692
sg6
VMusicmania
p1693
ssS'203'
p1694
(dp1695
g375
S'http://stream.greekradios.gr:8050'
p1696
sg4
V203
p1697
sg6
V\u03a0\u03b1\u03bb\u03bc\u03cc\u03c2 99.5
p1698
ssS'202'
p1699
(dp1700
g375
S'http://s1.onweb.gr:8076/'
p1701
sg4
V202
p1702
sg6
VRadio1 88
p1703
ssS'771'
p1704
(dp1705
g375
S'http://streams.gr:8060/gafm'
p1706
sg4
V771
p1707
sg6
V\u0393\u03b1\u03bb\u03b1\u03be\u03af\u03b1\u03c2 Fm 92.1
p1708
ssS'204'
p1709
(dp1710
g4
V204
p1711
sg6
VHot Radio 99
p1712
ssS'773'
p1713
(dp1714
g4
V773
p1715
sg6
VAlpha 94.7
p1716
ssS'206'
p1717
(dp1718
g4
V206
p1719
sg6
VRodos Fm 90.7
p1720
ssS'209'
p1721
(dp1722
g4
V209
p1723
sg6
V\u03a1\u03ac\u03b4\u03b9\u03bf \u039b\u03b5\u03c5\u03ba\u03af\u03bc\u03bc\u03b7 105.5
p1724
ssS'208'
p1725
(dp1726
g4
V208
p1727
sg6
VPrisma Fm 91.8
p1728
ssS'779'
p1729
(dp1730
g4
V779
p1731
sg6
V\u03a1\u03c5\u03b8\u03bc\u03cc\u03c2 Fm 106
p1732
ssS'778'
p1733
(dp1734
g375
S'http://live.camstreams.com/misconfig.wmv'
p1735
sg4
V778
p1736
sg6
V\u03a3\u03c6\u03b7\u03bd\u03ac\u03ba\u03b9\u03b1 Fm 97.3
p1737
ssS'77'
p1738
(dp1739
g375
S'http://78.129.143.157:8000/heartfm'
p1740
sg4
V77
p1741
sg6
VHeart 93.1
p1742
ssS'76'
p1743
(dp1744
g4
V76
p1745
sg6
V\u039b\u03b1\u03ca\u03ba\u03cc\u03c2 87.6
p1746
ssS'75'
p1747
(dp1748
g4
V75
p1749
sg6
VRSO 91.7
p1750
ssS'74'
p1751
(dp1752
g4
V74
p1753
sg6
VMetropolis 95.5
p1754
ssS'73'
p1755
(dp1756
g375
S'http://178.32.72.194:8050/eroticos'
p1757
sg4
V73
p1758
sg6
V\u0395\u03c1\u03c9\u03c4\u03b9\u03ba\u03cc\u03c2 94.8
p1759
ssS'72'
p1760
(dp1761
g375
S'http://178.32.72.194:8060/rthes'
p1762
sg4
V72
p1763
sg6
V\u03a1\u03ac\u03b4\u03b9\u03bf \u0398\u03b5\u03c3\u03c3\u03b1\u03bb\u03bf\u03bd\u03af\u03ba\u03b7 94.5
p1764
ssS'71'
p1765
(dp1766
g375
S'http://eco.onestreaming.com:8083'
p1767
sg4
V71
p1768
sg6
VSunshine 107.7
p1769
ssS'70'
p1770
(dp1771
g375
S'http://eco.onestreaming.com:8081'
p1772
sg4
V70
p1773
sg6
VLibero 107.4
p1774
ssS'655'
p1775
(dp1776
g4
V655
p1777
sg6
VPowerMix Fm
p1778
ssS'79'
p1779
(dp1780
g375
S'http://golive.onestreaming.com/sport103'
p1781
sg4
V79
p1782
sg6
VSport 103 Fm
p1783
ssS'78'
p1784
(dp1785
g375
S'http://sc2.greekstream.net:4012'
p1786
sg4
V78
p1787
sg6
V\u0388\u03ba\u03c6\u03c1\u03b1\u03c3\u03b7 92.4
p1788
ssS'1040'
p1789
(dp1790
g375
S'http://s2.onweb.gr:8604/'
p1791
sg4
V1040
p1792
sg6
V\u03a7\u03b1\u03bd\u03b9\u03ac Fm 98.9
p1793
ssS'1048'
p1794
(dp1795
g375
S'http://85.17.177.77:8010'
p1796
sg4
V1048
p1797
sg6
VGo Radio
p1798
ssS'358'
p1799
(dp1800
g4
V358
p1801
sg6
V\u0394\u03c5\u03c4\u03b9\u03ba\u03cc\u03c2 103.7
p1802
ssS'669'
p1803
(dp1804
g4
V669
p1805
sg6
V\u039b\u03ac\u03bc\u03c8\u03b7 106.3
p1806
ssS'668'
p1807
(dp1808
g375
S'http://s6.onweb.gr:8018/'
p1809
sg4
V668
p1810
sg6
V\u03a1\u03ac\u03b4\u03b9\u03bf \u03a0\u03b9\u03b5\u03c1\u03af\u03b1 104.2
p1811
ssS'667'
p1812
(dp1813
g4
V667
p1814
sg6
VSafari 106.7
p1815
ssS'666'
p1816
(dp1817
g4
V666
p1818
sg6
VHit Fm 103.5
p1819
ssS'664'
p1820
(dp1821
g375
S'http://s5.onweb.gr:8488'
p1822
sg4
V664
p1823
sg6
VCavo Paradiso Radio
p1824
ssS'663'
p1825
(dp1826
g375
S'http://s2.onweb.gr:8648/'
p1827
sg4
V663
p1828
sg6
V\u03a1\u03ac\u03b4\u03b9\u03bf \u0391\u03c0\u03cc\u03bb\u03bb\u03c9\u03bd
p1829
ssS'662'
p1830
(dp1831
g4
V662
p1832
sg6
VElectrocaine Radio
p1833
ssS'661'
p1834
(dp1835
g375
S'http://s3.onweb.gr:8514'
p1836
sg4
V661
p1837
sg6
VMelody Fm 88.8
p1838
ssS'660'
p1839
(dp1840
g4
V660
p1841
sg6
VVenus 91.1
p1842
ssS'215'
p1843
(dp1844
g4
V215
p1845
sg6
V\u03a3\u03c4\u03af\u03b3\u03bc\u03b1 Radio 97.6
p1846
ssS'692'
p1847
(dp1848
g4
V692
p1849
sg6
VAlina Radio
p1850
ssS'693'
p1851
(dp1852
g4
V693
p1853
sg6
V\u039b\u03ac\u03bc\u03c8\u03b7 88.6
p1854
ssS'690'
p1855
(dp1856
g4
V690
p1857
sg6
VGap Radio
p1858
ssS'691'
p1859
(dp1860
g375
S'http://minorefm.live24.gr/minorefm'
p1861
sg4
V691
p1862
sg6
V\u039c\u03b9\u03bd\u03cc\u03c1\u03b5 Fm
p1863
ssS'696'
p1864
(dp1865
g375
S'http://108.60.201.114:8150'
p1866
sg4
V696
p1867
sg6
V\u0395\u03bb\u03bb\u03b7\u03bd\u03b9\u03ba\u03cc\u03c2 Fm
p1868
ssS'697'
p1869
(dp1870
g4
V697
p1871
sg6
VRadio Romeos Fm 94
p1872
ssS'694'
p1873
(dp1874
g4
V694
p1875
sg6
VDance Radio Progressive
p1876
ssS'695'
p1877
(dp1878
g375
S'http://s1.onweb.gr:8034/'
p1879
sg4
V695
p1880
sg6
V\u039c\u03bf\u03c5\u03c3\u03b9\u03ba\u03cc\u03c2 \u0393\u03b1\u03bb\u03b1\u03be\u03af\u03b1\u03c2 105.8
p1881
ssS'699'
p1882
(dp1883
g4
V699
p1884
sg6
VPlace Fm
p1885
ssS'543'
p1886
(dp1887
g4
V543
p1888
sg6
V\u03a1\u03ac\u03b4\u03b9\u03bf \u0391\u03ba\u03b1\u03c1\u03bd\u03b1\u03bd\u03af\u03b1 97.1
p1889
ssS'540'
p1890
(dp1891
g4
V540
p1892
sg6
VGalaxy Fm 106.1
p1893
ssS'541'
p1894
(dp1895
g375
S'http://shoutcast.24radio.gr:8014'
p1896
sg4
V541
p1897
sg6
VMaster Fm 90.2
p1898
ssS'546'
p1899
(dp1900
g4
V546
p1901
sg6
VSiesta Radio
p1902
ssS'547'
p1903
(dp1904
g375
S'http://shout.streamwithq.gr:4100/'
p1905
sg4
V547
p1906
sg6
V\u039a\u03c1\u03b7\u03c4\u03b9\u03ba\u03ae \u03a1\u03b1\u03b4\u03b9\u03bf\u03c6\u03c9\u03bd\u03af\u03b1 \u0391\u03c4\u03c4\u03b9\u03ba\u03ae\u03c2 91.4
p1907
ssS'544'
p1908
(dp1909
g375
S'http://78.46.46.215:7040/'
p1910
sg4
V544
p1911
sg6
V\u0395\u03c1\u03c9\u03b4\u03b9\u03cc\u03c2 \u039b\u03b1\u03b9\u03ba\u03cc\u03c2
p1912
ssS'545'
p1913
(dp1914
g375
S'http://147.102.85.34:8000'
p1915
sg4
V545
p1916
sg6
V98 Fm
p1917
ssS'548'
p1918
(dp1919
g4
V548
p1920
sg6
V\u03a1\u03ac\u03b4\u03b9\u03bf \u039a\u03c1\u03ae\u03c4\u03b5\u03c2
p1921
ssS'549'
p1922
(dp1923
g375
S'mms://live.istoikona.com/lgr'
p1924
sg4
V549
p1925
sg6
VLGR 103.3
p1926
ssS'994'
p1927
(dp1928
g375
S'http://109.169.26.190:8018'
p1929
sg4
V994
p1930
sg6
VGr8 Radio
p1931
ssS'990'
p1932
(dp1933
g4
V990
p1934
sg6
VPs Radio
p1935
ssS'993'
p1936
(dp1937
g375
S'http://shout.streamwithq.gr:4138/'
p1938
sg4
V993
p1939
sg6
V\u0391\u03bb\u03ae\u03b8\u03b5\u03b9\u03b1 Fm 96.3 
p1940
ssS'992'
p1941
(dp1942
g375
S'http://p8060.thewood.gr:9596/'
p1943
sg4
V992
p1944
sg6
VAthens One Fm
p1945
ssS'999'
p1946
(dp1947
g375
S'http://178.32.57.58:8557/'
p1948
sg4
V999
p1949
sg6
VDisco 80\u005c's Radio
p1950
ssS'998'
p1951
(dp1952
g375
S'http://shoutcast.24radio.gr:8022/'
p1953
sg4
V998
p1954
sg6
VDance Radio Cyprus
p1955
ssS'120'
p1956
(dp1957
g4
V120
p1958
sg6
V\u03a1\u03ac\u03b4\u03b9\u03bf \u0391\u03ba\u03c1\u03af\u03c4\u03b5\u03c2 102.3
p1959
ssS'121'
p1960
(dp1961
g375
S'http://eco.onestreaming.com:8150'
p1962
sg4
V121
p1963
sg6
VYou Fm 100.1
p1964
ssS'123'
p1965
(dp1966
g375
S'http://stream.kiss922.gr:59922/'
p1967
sg4
V123
p1968
sg6
VKiss 92.2
p1969
ssS'124'
p1970
(dp1971
g375
S'http://golive.onestreaming.com/thepopfm'
p1972
sg4
V124
p1973
sg6
VThe Pop Fm 98.6
p1974
ssS'125'
p1975
(dp1976
g375
S'http://live.onestreaming.com/radioactive'
p1977
sg4
V125
p1978
sg6
VRadio Active 91.3
p1979
ssS'126'
p1980
(dp1981
g375
S'http://live.onestreaming.com/anemosfm'
p1982
sg4
V126
p1983
sg6
V\u0386\u03bd\u03b5\u03bc\u03bf\u03c2 95.6
p1984
ssS'127'
p1985
(dp1986
g375
S'http://s4.onweb.gr:8428'
p1987
sg4
V127
p1988
sg6
V\u0391\u03c1\u03c7\u03b9\u03c0\u03ad\u03bb\u03b1\u03b3\u03bf\u03c2 87.6
p1989
ssS'128'
p1990
(dp1991
g4
V128
p1992
sg6
VLove Radio 88.2
p1993
ssS'129'
p1994
(dp1995
g375
S'mms://live.istoikona.com/super'
p1996
sg4
V129
p1997
sg6
VSuper Radio 104.7
p1998
ssS'214'
p1999
(dp2000
g4
V214
p2001
sg6
V\u03a1\u03ac\u03b4\u03b9\u03bf \u0395\u03c0\u03c4\u03ac\u03bd\u03b7\u03c3\u03b1 98.8
p2002
ssS'414'
p2003
(dp2004
g375
S'mms://194.219.230.1:3690'
p2005
sg4
V414
p2006
sg6
VMega Creta 103.1
p2007
ssS'415'
p2008
(dp2009
g4
V415
p2010
sg6
V\u0394\u03af\u03ba\u03c4\u03c5\u03bf 102.4
p2011
ssS'416'
p2012
(dp2013
g4
V416
p2014
sg6
VAqualand Radio 94.8
p2015
ssS'410'
p2016
(dp2017
g4
V410
p2018
sg6
V\u039a\u03bd\u03c9\u03c3\u03cc\u03c2 Fm 100.6
p2019
ssS'411'
p2020
(dp2021
g375
S'http://eco.onestreaming.com:8209'
p2022
sg4
V411
p2023
sg6
VCool Fm 106.8
p2024
ssS'412'
p2025
(dp2026
g375
S'http://live.onestreaming.com/lampsifmcrete'
p2027
sg4
V412
p2028
sg6
V\u039b\u03ac\u03bc\u03c8\u03b7 92.9
p2029
ssS'413'
p2030
(dp2031
g4
V413
p2032
sg6
VAlpha Radio 106.2
p2033
ssS'137'
p2034
(dp2035
g4
V137
p2036
sg6
V\u039a\u03bb\u03af\u03ba Fm 105.6
p2037
ssS'922'
p2038
(dp2039
g375
S'http://67.212.189.122:8151'
p2040
sg4
V922
p2041
sg6
V\u039c\u03ac\u03bd\u03b4\u03c1\u03b1 \u03a1\u03ac\u03b4\u03b9\u03bf
p2042
ssS'319'
p2043
(dp2044
g4
V319
p2045
sg6
VStudio A 102.7
p2046
ssS'318'
p2047
(dp2048
g375
S'http://live.onestreaming.com/radioelassona'
p2049
sg4
V318
p2050
sg6
V\u03a1\u03ac\u03b4\u03b9\u03bf \u0395\u03bb\u03b1\u03c3\u03c3\u03cc\u03bd\u03b1 88.4
p2051
ssS'313'
p2052
(dp2053
g4
V313
p2054
sg6
V\u038c\u03bc\u03bf\u03c1\u03c6\u03b7 \u03a0\u03cc\u03bb\u03b7 89.9
p2055
ssS'312'
p2056
(dp2057
g375
S'http://s1.onweb.gr:8028/'
p2058
sg4
V312
p2059
sg6
V\u039a\u03cd\u03bc\u03b1 Fm 90.3
p2060
ssS'311'
p2061
(dp2062
g375
S'http://live.onestreaming.com/style100'
p2063
sg4
V311
p2064
sg6
VStyle 100
p2065
ssS'310'
p2066
(dp2067
g4
V310
p2068
sg6
V\u039b\u03cc\u03b3\u03bf\u03c2 Radio 101.1
p2069
ssS'317'
p2070
(dp2071
g4
V317
p2072
sg6
V\u03a1\u03ac\u03b4\u03b9\u03bf \u0389\u03c0\u03b5\u03b9\u03c1\u03bf\u03c2 94.5
p2073
ssS'316'
p2074
(dp2075
g4
V316
p2076
sg6
VCreta Planet 
p2077
ssS'315'
p2078
(dp2079
g375
S'http://live.onestreaming.com/elpar'
p2080
sg4
V315
p2081
sg6
V\u0395\u03bb\u03bb\u03b7\u03bd\u03b9\u03ba\u03cc \u03a0\u03b1\u03c1\u03b1\u03b4\u03bf\u03c3\u03b9\u03b1\u03ba\u03cc
p2082
ssS'314'
p2083
(dp2084
g4
V314
p2085
sg6
V\u0396\u03b9\u03b6\u03ac\u03bd\u03b9\u03bf 89.2
p2086
ssS'496'
p2087
(dp2088
g4
V496
p2089
sg6
V\u0395\u03bb\u03bb\u03b7\u03bd\u03bf\u03a1\u03ac\u03b4\u03b9\u03bf
p2090
ssS'138'
p2091
(dp2092
g375
S'mms://radio.istoikona.com/zenith'
p2093
sg4
V138
p2094
sg6
VZenith Radio 96.4
p2095
ssS'368'
p2096
(dp2097
g375
S'mms://broadcast.hol.gr/IonionFMU'
p2098
sg4
V368
p2099
sg6
V\u0399\u03cc\u03bd\u03b9\u03bf\u03bd Fm \u0397\u03bb\u03b5\u03af\u03b1\u03c2 95.5
p2100
ssS'369'
p2101
(dp2102
g375
S'http://shoutcast.24radio.gr:8044/'
p2103
sg4
V369
p2104
sg6
VRSA 91.1
p2105
ssS'366'
p2106
(dp2107
g375
S'http://46.4.65.194:8021'
p2108
sg4
V366
p2109
sg6
VVox 103.3
p2110
ssS'367'
p2111
(dp2112
g4
V367
p2113
sg6
VOrt Fm 92.3
p2114
ssS'364'
p2115
(dp2116
g375
S'http://s6.onweb.gr:8034'
p2117
sg4
V364
p2118
sg6
V\u03a1\u03ac\u03b4\u03b9\u03bf \u039c\u03bf\u03af\u03c1\u03b5\u03c2 97.1
p2119
ssS'365'
p2120
(dp2121
g375
S'http://s5.onweb.gr:8418'
p2122
sg4
V365
p2123
sg6
V\u03a3\u03bf\u03c7\u03cc\u03c2 Fm 88.7
p2124
ssS'362'
p2125
(dp2126
g375
S'http://s3.onweb.gr:8500'
p2127
sg4
V362
p2128
sg6
V\u0391\u03c1\u03bc\u03bf\u03bd\u03af\u03b1 Fm 103.2
p2129
ssS'363'
p2130
(dp2131
g375
S'http://s3.onweb.gr:8438'
p2132
sg4
V363
p2133
sg6
V\u039b\u03ad\u03c3\u03c7\u03b7 97.6
p2134
ssS'360'
p2135
(dp2136
g375
S'http://s1.onweb.gr:8098/'
p2137
sg4
V360
p2138
sg6
V\u03a0\u03ac\u03c1\u03bf\u03c2 Fm 98.5
p2139
ssS'361'
p2140
(dp2141
g375
S'http://s1.onweb.gr:8066'
p2142
sg4
V361
p2143
sg6
V\u0391\u03ba\u03c1\u03cc\u03b1\u03bc\u03b1 94.6
p2144
ssS'952'
p2145
(dp2146
g4
V952
p2147
sg6
VSunshine Radio
p2148
ssS'380'
p2149
(dp2150
g4
V380
p2151
sg6
V\u0397\u03c7\u03ce Fm 102.1
p2152
ssS'381'
p2153
(dp2154
g4
V381
p2155
sg6
VRadio Point
p2156
ssS'382'
p2157
(dp2158
g4
V382
p2159
sg6
VBassline Chill Out
p2160
ssS'383'
p2161
(dp2162
g4
V383
p2163
sg6
VBassline Progressive Trance
p2164
ssS'384'
p2165
(dp2166
g4
V384
p2167
sg6
VUnderground Radio 100.3
p2168
ssS'385'
p2169
(dp2170
g4
V385
p2171
sg6
VDream Fm 103.5
p2172
ssS'386'
p2173
(dp2174
g4
V386
p2175
sg6
VParadise Radio 104.6
p2176
ssS'387'
p2177
(dp2178
g4
V387
p2179
sg6
VLips Radio
p2180
ssS'388'
p2181
(dp2182
g375
S'http://s6.onweb.gr:8036/'
p2183
sg4
V388
p2184
sg6
V\u039a\u03ad\u03bd\u03c4\u03c1\u03bf \u039a\u03b1\u03c1\u03b4\u03b9\u03ac\u03c2 95
p2185
ssS'389'
p2186
(dp2187
g4
V389
p2188
sg6
VClub Fm 93.7
p2189
ssS'784'
p2190
(dp2191
g375
S'http://shout.streamwithq.gr:4064/'
p2192
sg4
V784
p2193
sg6
V\u0393\u03ac\u03c5\u03b4\u03bf\u03c2 Fm 88.8
p2194
ssS'785'
p2195
(dp2196
g4
V785
p2197
sg6
VEnjoy Radio 105.7
p2198
ssS'786'
p2199
(dp2200
g4
V786
p2201
sg6
VAthens Fm
p2202
ssS'780'
p2203
(dp2204
g375
S'http://s6.onweb.gr:8002/'
p2205
sg4
V780
p2206
sg6
VLegend Fm 101.6
p2207
ssS'781'
p2208
(dp2209
g4
V781
p2210
sg6
VKing Fm 107.8
p2211
ssS'782'
p2212
(dp2213
g4
V782
p2214
sg6
VRockha Radio
p2215
ssS'788'
p2216
(dp2217
g375
S'http://83.170.89.19:9868'
p2218
sg4
V788
p2219
sg6
VGod Radio
p2220
ssS'789'
p2221
(dp2222
g4
V789
p2223
sg6
VMagic Fm 100
p2224
ssS'579'
p2225
(dp2226
g375
S'http://live.onestreaming.com/ant1cy'
p2227
sg4
V579
p2228
sg6
VAnt1 Fm 102.7
p2229
ssS'578'
p2230
(dp2231
g4
V578
p2232
sg6
VStatus Radio
p2233
ssS'604'
p2234
(dp2235
g375
S'http://shoutcast.24radio.gr:8006'
p2236
sg4
V604
p2237
sg6
VKiss 101.3
p2238
ssS'573'
p2239
(dp2240
g375
S'http://s3.onweb.gr:8474'
p2241
sg4
V573
p2242
sg6
VStudio A 1000
p2243
ssS'572'
p2244
(dp2245
g4
V572
p2246
sg6
VDeep Breath
p2247
ssS'571'
p2248
(dp2249
g4
V571
p2250
sg6
VStudio 306
p2251
ssS'570'
p2252
(dp2253
g375
S'http://208.43.115.44:8262/'
p2254
sg4
V570
p2255
sg6
VMr Soul Radio
p2256
ssS'577'
p2257
(dp2258
g4
V577
p2259
sg6
VPing Pong Radio
p2260
ssS'576'
p2261
(dp2262
g4
V576
p2263
sg6
V\u039c\u03b5\u03bb\u03c9\u03b4\u03b9\u03ba\u03cc\u03c2
p2264
ssS'575'
p2265
(dp2266
g4
V575
p2267
sg6
VR06
p2268
ssS'574'
p2269
(dp2270
g4
V574
p2271
sg6
VWasteland 
p2272
ssS'60'
p2273
(dp2274
g375
S'http://shoutcast.24radio.gr:8074'
p2275
sg4
V60
p2276
sg6
VRadio 98.2
p2277
ssS'61'
p2278
(dp2279
g375
S'http://shout.streamwithq.gr:4044/'
p2280
sg4
V61
p2281
sg6
VFly 95.9
p2282
ssS'258'
p2283
(dp2284
g4
V258
p2285
sg6
V\u0391\u03bd\u03b1\u03c4\u03bf\u03bb\u03b9\u03ba\u03cc\u03c2 Fm 95.8
p2286
ssS'259'
p2287
(dp2288
g375
S'http://174.36.237.66:8220/'
p2289
sg4
V259
p2290
sg6
V\u03a1\u03c5\u03b8\u03bc\u03cc\u03c2 Fm 103.8
p2291
ssS'64'
p2292
(dp2293
g375
S'mms://radiofeeds1.mediabox.gr/kentrofm'
p2294
sg4
V64
p2295
sg6
V\u039a\u03ad\u03bd\u03c4\u03c1\u03bf Fm 98.2
p2296
ssS'66'
p2297
(dp2298
g375
S'http://streamx2.greekradios.gr:8000'
p2299
sg4
V66
p2300
sg6
VRepublic 100.3
p2301
ssS'67'
p2302
(dp2303
S'url'
p2304
S'http://radio.onweb.gr:8078/'
p2305
sg1625
V67
p2306
sg1627
VRock 105.5
p2307
ssS'252'
p2308
(dp2309
g375
S'http://62.1.195.86:2281'
p2310
sg4
V252
p2311
sg6
V\u03a7\u03b9\u03b1\u03ba\u03ae \u03a6\u03c9\u03bd\u03ae 90
p2312
ssS'69'
p2313
(dp2314
g4
V69
p2315
sg6
VAnt1 97.5
p2316
ssS'250'
p2317
(dp2318
g375
S'http://s3.onweb.gr:8032'
p2319
sg4
V250
p2320
sg6
VD-Code 96.2
p2321
ssS'251'
p2322
(dp2323
g375
S'http://s1.onweb.gr:8040'
p2324
sg4
V251
p2325
sg6
V\u03a1\u03ac\u03b4\u03b9\u03bf \u03a1\u03b9\u03b6\u03af\u03c4\u03b5\u03c2 92.4
p2326
ssS'256'
p2327
(dp2328
g375
S'http://shoutcast.24radio.gr:8064/'
p2329
sg4
V256
p2330
sg6
VCool Fm 90.7
p2331
ssS'257'
p2332
(dp2333
g375
S'http://s6.onweb.gr:8026'
p2334
sg4
V257
p2335
sg6
VOrange Radio 91.1
p2336
ssS'254'
p2337
(dp2338
g375
S'http://live.onestreaming.com/aegeanant1'
p2339
sg4
V254
p2340
sg6
VAnt1 \u0391\u03b9\u03b3\u03b1\u03af\u03bf\u03c5 105
p2341
ssS'255'
p2342
(dp2343
g4
V255
p2344
sg6
V\u03a1\u03ac\u03b4\u03b9\u03bf \u0386\u03bb\u03c6\u03b1 96
p2345
ssS'603'
p2346
(dp2347
g4
V603
p2348
sg6
V\u03a3\u03c5\u03bd \u0388\u03bd\u03b1 Radio 95.8
p2349
ssS'156'
p2350
(dp2351
g375
S'mms://a1933.l3271921932.c32719.g.lm.akamaistream.net/D/1933/32719/v0001/reflector:21932'
p2352
sg4
V156
p2353
sg6
V\u03a4\u03c1\u03af\u03c4\u03bf \u03a0\u03c1\u03cc\u03b3\u03c1\u03b1\u03bc\u03bc\u03b1 \u0392\u03c1\u03b1\u03c7\u03ad\u03b1
p2354
ssS'730'
p2355
(dp2356
g4
V730
p2357
sg6
V96.5 Fm
p2358
ssS'732'
p2359
(dp2360
g4
V732
p2361
sg6
VOriginal Radio 94.4
p2362
ssS'735'
p2363
(dp2364
g4
V735
p2365
sg6
VClubs Radio
p2366
ssS'734'
p2367
(dp2368
S'url'
p2369
S'http://shoutcast.24radio.gr:8072'
p2370
sS'id'
p2371
V734
p2372
sS'title'
p2373
V34o River Party (Live)
p2374
ssS'737'
p2375
(dp2376
g375
S'http://72.55.146.84:8020/'
p2377
sg4
V737
p2378
sg6
VSiera Fm 105.3
p2379
ssS'736'
p2380
(dp2381
g219
S'http://78.129.143.157:8000/arisfm'
p2382
sg4
V736
p2383
sg6
V\u0384\u0391\u03c1\u03b7\u03c2 Fm 92.8
p2384
ssS'739'
p2385
(dp2386
g375
S'http://s3.onweb.gr:8532/'
p2387
sg4
V739
p2388
sg6
V\u0393\u03bb\u03ad\u03bd\u03c4\u03b9 Fm 101.1
p2389
ssS'507'
p2390
(dp2391
g4
V507
p2392
sg6
V\u03a7\u03ce\u03c1\u03bf\u03c2 94.2
p2393
ssS'1030'
p2394
(dp2395
g375
S'mms://a1235.l4434955234.c44349.g.lm.akamaistream.net/D/1235/44349/v0001/reflector:55234'
p2396
sg4
V1030
p2397
sg6
VPlay 88.9
p2398
ssS'505'
p2399
(dp2400
g375
S'http://91.121.143.17:8000/'
p2401
sg4
V505
p2402
sg6
V1Mix Radio
p2403
ssS'502'
p2404
(dp2405
g4
V502
p2406
sg6
VBest Radio 94.7
p2407
ssS'1037'
p2408
(dp2409
g375
S'http://62.212.82.142:8012/'
p2410
sg4
V1037
p2411
sg6
VSferikos 99.3
p2412
ssS'500'
p2413
(dp2414
g375
S'http://shoutcast.24radio.gr:8086/'
p2415
sg4
V500
p2416
sg6
V\u039d\u03b9\u03ba\u03bf\u03bb\u03ac\u03bf\u03c5 Radio
p2417
ssS'501'
p2418
(dp2419
g375
S'http://live.onestreaming.com/mesogios'
p2420
sg4
V501
p2421
sg6
V\u039c\u03b5\u03c3\u03cc\u03b3\u03b5\u03b9\u03bf\u03c2 Fm 105.4
p2422
ssS'631'
p2423
(dp2424
g375
S'http://216.66.84.2:9108'
p2425
sg4
V631
p2426
sg6
VHeat Radio 88.3
p2427
ssS'633'
p2428
(dp2429
g4
V633
p2430
sg6
V69 Music 
p2431
ssS'634'
p2432
(dp2433
g375
S'http://eco.onestreaming.com:8077'
p2434
sg4
V634
p2435
sg6
VMaroni Radio
p2436
ssS'635'
p2437
(dp2438
g4
V635
p2439
sg6
VDalkas 88.2
p2440
ssS'636'
p2441
(dp2442
g4
V636
p2443
sg6
V1\u03bf \u03a0\u03c1\u03cc\u03b3\u03c1\u03b1\u03bc\u03bc\u03b1 \u03a7\u03af\u03bf\u03c5
p2444
ssS'637'
p2445
(dp2446
g4
V637
p2447
sg6
VStudio 54
p2448
ssS'465'
p2449
(dp2450
g4
V465
p2451
sg6
VFlash 94.5
p2452
ssS'639'
p2453
(dp2454
g375
S'http://81.171.50.130:9124'
p2455
sg4
V639
p2456
sg6
VHellas Web Radio
p2457
ssS'467'
p2458
(dp2459
g375
S'http://178.33.248.236:8006'
p2460
sg4
V467
p2461
sg6
VFun Radio
p2462
ssS'461'
p2463
(dp2464
g4
V461
p2465
sg6
VOff Radio
p2466
ssS'460'
p2467
(dp2468
g375
S'http://sentrafm.live24.gr/sentrafm'
p2469
sg4
V460
p2470
sg6
VSentra Fm 103.3
p2471
ssS'463'
p2472
(dp2473
g375
S'http://shoutcast.24radio.gr:8046/'
p2474
sg4
V463
p2475
sg6
VViva Fm 95.3
p2476
ssS'462'
p2477
(dp2478
g4
V462
p2479
sg6
V\u039c\u03b5\u03bb\u03c9\u03b4\u03b9\u03ba\u03cc\u03c2 105.7
p2480
ssS'901'
p2481
(dp2482
g375
S'http://s3.onweb.gr:8808'
p2483
sg4
V901
p2484
sg6
V\u03a1\u03b1\u03b4\u03b9\u03bf\u03ba\u03c1\u03ae\u03c4\u03b5\u03c2
p2485
ssS'168'
p2486
(dp2487
g375
S'http://s1.onweb.gr:8854'
p2488
sg4
V168
p2489
sg6
VPower 100.2
p2490
ssS'169'
p2491
(dp2492
g375
S'http://s1.onweb.gr:8068'
p2493
sg4
V169
p2494
sg6
VSuper 90.4
p2495
ssS'164'
p2496
(dp2497
g4
V164
p2498
sg6
VClub Radio
p2499
ssS'165'
p2500
(dp2501
g4
V165
p2502
sg6
VRadio Dee Jay 94.2
p2503
ssS'166'
p2504
(dp2505
g375
S'http://live.onestreaming.com/mousikokanali'
p2506
sg4
V166
p2507
sg6
V\u039c\u03bf\u03c5\u03c3\u03b9\u03ba\u03cc \u039a\u03b1\u03bd\u03ac\u03bb\u03b9 105.1
p2508
ssS'167'
p2509
(dp2510
g4
V167
p2511
sg6
VMRB Radio 101
p2512
ssS'160'
p2513
(dp2514
g4
V160
p2515
sg6
VUplifted
p2516
ssS'161'
p2517
(dp2518
g375
S'mms://golive.onestreaming.com/ydrogeios'
p2519
sg4
V161
p2520
sg6
V\u03a5\u03b4\u03c1\u03cc\u03b3\u03b5\u03b9\u03bf\u03c2 106.9
p2521
ssS'162'
p2522
(dp2523
g375
S'http://s3.onweb.gr:8808/'
p2524
sg4
V162
p2525
sg6
VVenus Fm 105.1
p2526
ssS'163'
p2527
(dp2528
g375
S'http://ice.motionfm.com:80/motionone_free'
p2529
sg4
V163
p2530
sg6
VHouse Motion Fm
p2531
ssS'963'
p2532
(dp2533
g4
V963
p2534
sg6
VBrake Fm 101.6
p2535
ssS'969'
p2536
(dp2537
g375
S'http://shout.streamwithq.gr:4042/'
p2538
sg4
V969
p2539
sg6
VRockarolla Radio
p2540
ssS'1103'
p2541
(dp2542
g4
V1103
p2543
sg6
VBeautyWar
p2544
ssS'408'
p2545
(dp2546
g375
S'http://s8.onweb.gr:8702'
p2547
sg4
V408
p2548
sg6
V\u03a1\u03b1\u03b4\u03b9\u03bf\u03ba\u03cd\u03bc\u03b1\u03c4\u03b1 102.6
p2549
ssS'600'
p2550
(dp2551
g375
S'http://stream.xromafm.gr:59102/'
p2552
sg4
V600
p2553
sg6
V\u03a7\u03c1\u03ce\u03bc\u03b1 Fm 102.1
p2554
ssS'890'
p2555
(dp2556
g375
S'http://golive.onestreaming.com/akousgazi'
p2557
sg4
V890
p2558
sg6
VAkous Gazi
p2559
ssS'891'
p2560
(dp2561
g4
V891
p2562
sg6
VAkous Terra
p2563
ssS'892'
p2564
(dp2565
g375
S'http://golive.onestreaming.com/akousdeluxe'
p2566
sg4
V892
p2567
sg6
VAkous Deluxe
p2568
ssS'893'
p2569
(dp2570
g375
S'http://golive.onestreaming.com/akousstage'
p2571
sg4
V893
p2572
sg6
VAkous Stage
p2573
ssS'894'
p2574
(dp2575
g375
S'http://eco.onestreaming.com:8189/'
p2576
sg4
V894
p2577
sg6
V\u03a1\u03c5\u03b8\u03bc\u03cc\u03c2 988
p2578
ssS'895'
p2579
(dp2580
g375
S'http://188.40.95.16:7100/'
p2581
sg4
V895
p2582
sg6
VMusic Fm
p2583
ssS'896'
p2584
(dp2585
g4
V896
p2586
sg6
V\u03a1\u03ac\u03b4\u03b9\u03bf \u039b\u03ae\u03bc\u03bd\u03bf\u03c2
p2587
ssS'1138'
p2588
(dp2589
S'url'
p2590
S'http://85.25.134.18:8920'
p2591
sS'id'
p2592
V1138
p2593
sS'title'
p2594
VRadio 322
p2595
ssS'357'
p2596
(dp2597
g375
S'http://s1.onweb.gr:8420'
p2598
sg4
V357
p2599
sg6
V\u0396\u03c5\u03b3\u03cc\u03c2 Fm 100
p2600
ssS'356'
p2601
(dp2602
g4
V356
p2603
sg6
V\u03a1\u03b1\u03b4\u03b9\u03cc\u03c6\u03c9\u03bd\u03bf \u0392\u03cc\u03bb\u03bf\u03c2 104.6
p2604
ssS'355'
p2605
(dp2606
g4
V355
p2607
sg6
VLove Radio 105.5
p2608
ssS'354'
p2609
(dp2610
g375
S'http://s1.onweb.gr:8838'
p2611
sg4
V354
p2612
sg6
VMaximum 93.6
p2613
ssS'353'
p2614
(dp2615
g375
S'http://rs2.radiostreamer.com/radioalfa'
p2616
sg4
V353
p2617
sg6
V\u0386\u03bb\u03c6\u03b1 104
p2618
ssS'352'
p2619
(dp2620
g375
S'http://live.onestreaming.com/polis'
p2621
sg4
V352
p2622
sg6
VPolis 102.6
p2623
ssS'351'
p2624
(dp2625
g375
S'http://shout.streamwithq.gr:4052/'
p2626
sg4
V351
p2627
sg6
V\u0395\u03bb\u03bb\u03b7\u03bd\u03b9\u03ba\u03cc\u03c2 88.9
p2628
ssS'350'
p2629
(dp2630
g375
S'http://plaisioradio.live24.gr/plaisioradio'
p2631
sg4
V350
p2632
sg6
VPlaisio Radio
p2633
ssS'803'
p2634
(dp2635
g375
S'http://shoutcast.24radio.gr:8058/'
p2636
sg4
V803
p2637
sg6
VSfera 989
p2638
ssS'802'
p2639
(dp2640
g4
V802
p2641
sg6
VNRJ Radio 98
p2642
ssS'801'
p2643
(dp2644
g375
S'mms://starradio.no-ip.biz:2380'
p2645
sg4
V801
p2646
sg6
VStar Fm 106.7
p2647
ssS'800'
p2648
(dp2649
g4
V800
p2650
sg6
VRadio 6 95.4
p2651
ssS'807'
p2652
(dp2653
g375
S'http://eco.onestreaming.com:8148/'
p2654
sg4
V807
p2655
sg6
VYes! 91.2
p2656
ssS'806'
p2657
(dp2658
g375
S'http://shoutcast.24radio.gr:8018/'
p2659
sg4
V806
p2660
sg6
VWest Radio
p2661
ssS'359'
p2662
(dp2663
g375
S'http://live.onestreaming.com/kanali3'
p2664
sg4
V359
p2665
sg6
V\u039a\u03b1\u03bd\u03ac\u03bb\u03b9 3 104
p2666
ssS'804'
p2667
(dp2668
g4
V804
p2669
sg6
VNikos Radio
p2670
ssS'216'
p2671
(dp2672
g375
S'http://live.onestreaming.com/rythmos943'
p2673
sg4
V216
p2674
sg6
V\u03a1\u03cd\u03b8\u03bc\u03bf\u03c2 94.3
p2675
ssS'217'
p2676
(dp2677
g4
V217
p2678
sg6
VAthletic Radio 104.2
p2679
ssS'768'
p2680
(dp2681
g4
V768
p2682
sg6
V\u0399\u03cc\u03bd\u03b9\u03bf\u03bd Fm \u03a0\u03ac\u03c4\u03c1\u03b1\u03c2 95.7
p2683
ssS'769'
p2684
(dp2685
g4
V769
p2686
sg6
VTop Fm 105
p2687
ssS'213'
p2688
(dp2689
g375
S'http://s1.onweb.gr:8836'
p2690
sg4
V213
p2691
sg6
VLife Radio 102.9
p2692
ssS'210'
p2693
(dp2694
g375
S'http://s1.onweb.gr:8422'
p2695
sg4
V210
p2696
sg6
VPop Fm 102.1
p2697
ssS'211'
p2698
(dp2699
g375
S'http://s1.onweb.gr:8800/'
p2700
sg4
V211
p2701
sg6
VStar 88.8
p2702
ssS'762'
p2703
(dp2704
g4
V762
p2705
sg6
VFasma Fm 99.7
p2706
ssS'42'
p2707
(dp2708
g4
V42
p2709
sg6
V\u0391\u03b8\u03ae\u03bd\u03b1 9.84
p2710
ssS'760'
p2711
(dp2712
g4
V760
p2713
sg6
VSportive Radio
p2714
ssS'761'
p2715
(dp2716
g375
S'http://64.111.18.90:8005/'
p2717
sg4
V761
p2718
sg6
Vskglobe.net
p2719
ssS'766'
p2720
(dp2721
g375
S'http://208.43.115.44:9846/'
p2722
sg4
V766
p2723
sg6
V\u03a1\u03ac\u03b4\u03b9\u03bf \u0395\u03cd\u03b2\u03bf\u03b9\u03b1 104.1
p2724
ssS'764'
p2725
(dp2726
g375
S'http://live.e-streaming.eu:8110/'
p2727
sg4
V764
p2728
sg6
V\u0391\u03ba\u03c4\u03af\u03bd\u03b1 Radio 95
p2729
ssS'219'
p2730
(dp2731
g375
S'http://freeradio.live24.gr/freeradio-1000'
p2732
sg4
V219
p2733
sg6
VFree Radio  98
p2734
ssS'957'
p2735
(dp2736
g4
V957
p2737
sg6
V\u039d\u03b1\u03c5\u03ac\u03b3\u03b9\u03b1
p2738
ssS'1033'
p2739
(dp2740
g375
S'http://72.233.114.175:8020/'
p2741
sg4
V1033
p2742
sg6
VPowershots!
p2743
ssS'1072'
p2744
(dp2745
g375
S'http://109.169.26.190:8048'
p2746
sg4
V1072
p2747
sg6
VGr8 Radio Greek
p2748
ssS'1073'
p2749
(dp2750
g375
S'http://shoutcast.24radio.gr:8070'
p2751
sg4
V1073
p2752
sg6
V\u0394\u03b7\u03bc\u03bf\u03c4\u03b9\u03ba\u03ae \u0391\u03bd\u03b8\u03bf\u03bb\u03bf\u03b3\u03af\u03b1 88.8
p2753
ssS'289'
p2754
(dp2755
g375
S'http://ice.motionfm.com:80/motionthree_free'
p2756
sg4
V289
p2757
sg6
VLounge Motion Fm
p2758
ssS'288'
p2759
(dp2760
g375
S'http://s1.onweb.gr:8056'
p2761
sg4
V288
p2762
sg6
VStar Fm 94.1
p2763
ssS'321'
p2764
(dp2765
g4
V321
p2766
sg6
V\u03a1\u03b1\u03b4/\u03bd\u03af\u03b1 \u039a\u03bf\u03b6\u03ac\u03bd\u03b7\u03c2 102.3
p2767
ssS'281'
p2768
(dp2769
g375
S'http://s1.onweb.gr:8096'
p2770
sg4
V281
p2771
sg6
V\u03a1\u03ac\u03b4\u03b9\u03bf \u039a\u03c5\u03c0\u03b1\u03c1\u03b9\u03c3\u03c3\u03af\u03b1 93.6
p2772
ssS'280'
p2773
(dp2774
g4
V280
p2775
sg6
V\u0397\u03bb\u03ad\u03ba\u03c4\u03c1\u03b1 98.8
p2776
ssS'283'
p2777
(dp2778
g375
S'http://broadcast.hol.gr/kanali20'
p2779
sg4
V283
p2780
sg6
V\u039a\u03b1\u03bd\u03ac\u03bb\u03b9 20 107.5
p2781
ssS'282'
p2782
(dp2783
g4
V282
p2784
sg6
V\u03a0\u03b1\u03bb\u03bc\u03cc\u03c2 90.5
p2785
ssS'285'
p2786
(dp2787
g4
V285
p2788
sg6
VLight Kiss 89
p2789
ssS'284'
p2790
(dp2791
g375
S'mms://broadcast.hol.gr/cityfm'
p2792
sg4
V284
p2793
sg6
VCity Radio 103.3
p2794
ssS'287'
p2795
(dp2796
g375
S'mms://live.onestreaming.com/politia'
p2797
sg4
V287
p2798
sg6
V\u03a0\u03bf\u03bb\u03b9\u03c4\u03b5\u03af\u03b1 90.7
p2799
ssS'286'
p2800
(dp2801
g375
S'http://eco.onestreaming.com:8272'
p2802
sg4
V286
p2803
sg6
VFly 89.7
p2804
ssS'678'
p2805
(dp2806
g375
S'http://s1.onweb.gr:8866/'
p2807
sg4
V678
p2808
sg6
VSuper 92.6
p2809
ssS'679'
p2810
(dp2811
g375
S'http://shout.streamwithq.gr:4126/'
p2812
sg4
V679
p2813
sg6
VKiss 107
p2814
ssS'674'
p2815
(dp2816
g375
S'http://mvradio.serverroom.us:9842'
p2817
sg4
V674
p2818
sg6
VMv Radio
p2819
ssS'675'
p2820
(dp2821
g375
S'http://psychoradio.servemp3.com'
p2822
sg4
V675
p2823
sg6
VPsycho Radio
p2824
ssS'676'
p2825
(dp2826
g375
S'http://live.onestreaming.com/star884'
p2827
sg4
V676
p2828
sg6
VStar 88.4
p2829
ssS'677'
p2830
(dp2831
g4
V677
p2832
sg6
VFantasy 100.1
p2833
ssS'670'
p2834
(dp2835
g375
S'http://live.onestreaming.com/makistia'
p2836
sg4
V670
p2837
sg6
V\u03a1\u03ac\u03b4\u03b9\u03bf \u039c\u03b1\u03ba\u03b9\u03c3\u03c4\u03af\u03b1 98.6
p2838
ssS'671'
p2839
(dp2840
g4
V671
p2841
sg6
VPowerMix Fm Greek
p2842
ssS'672'
p2843
(dp2844
g4
V672
p2845
sg6
V\u03a1\u03ac\u03b4\u03b9\u03bf \u0392\u03ad\u03c1\u03b1 91.8
p2846
ssS'673'
p2847
(dp2848
g4
V673
p2849
sg6
V\u03a1\u03ac\u03b4\u03b9\u03bf TRT 95.1
p2850
ssS'263'
p2851
(dp2852
g375
S'http://eco.onestreaming.com:8185'
p2853
sg4
V263
p2854
sg6
V\u0394\u03b7\u03bc\u03bf\u03c4\u03b9\u03ba\u03cc\u03c2 \u03a4\u03c1\u03af\u03c0\u03bf\u03bb\u03b7\u03c2 91.5
p2855
ssS'262'
p2856
(dp2857
g375
S'http://shoutcast.24radio.gr:8012/'
p2858
sg4
V262
p2859
sg6
VMust Fm 97
p2860
ssS'261'
p2861
(dp2862
g4
V261
p2863
sg6
VStyle Fm 89.6
p2864
ssS'260'
p2865
(dp2866
g4
V260
p2867
sg6
VStar Fm 92.9
p2868
ssS'267'
p2869
(dp2870
g375
S'http://smartfm.serverroom.us:8030'
p2871
sg4
V267
p2872
sg6
VSmart Fm 100.7
p2873
ssS'266'
p2874
(dp2875
g375
S'mms://broadcast.hol.gr/IonionFMU'
p2876
sg4
V266
p2877
sg6
VIonion Fm 95.8
p2878
ssS'265'
p2879
(dp2880
g375
S'http://208.43.115.44:8016/'
p2881
sg4
V265
p2882
sg6
VHorizon Fm 96.5
p2883
ssS'264'
p2884
(dp2885
g4
V264
p2886
sg6
V\u0391\u03c1\u03bc\u03bf\u03bd\u03af\u03b1 Fm 93.8
p2887
ssS'1031'
p2888
(dp2889
g4
V1031
p2890
sg6
VSeal Radio
p2891
ssS'269'
p2892
(dp2893
g375
S'mms://broadcast.hol.gr/mojoradio'
p2894
sg4
V269
p2895
sg6
VMojo Radio 107.7
p2896
ssS'268'
p2897
(dp2898
g375
S'http://217.172.179.76:8500/'
p2899
sg4
V268
p2900
sg6
VWave 97.4
p2901
ssS'436'
p2902
(dp2903
g4
V436
p2904
sg6
VRadio Air
p2905
ssS'59'
p2906
(dp2907
g375
S'http://shoutcast.24radio.gr:8036'
p2908
sg4
V59
p2909
sg6
VKiss 100.6
p2910
ssS'58'
p2911
(dp2912
g4
V58
p2913
sg6
V\u039a\u03c1\u03b7\u03c4\u03b9\u03ba\u03cc\u03c1\u03b1\u03bc\u03b1 93.8
p2914
ssS'55'
p2915
(dp2916
g4
V55
p2917
sg6
V\u03a3\u03c4\u03bf \u039a\u03cc\u03ba\u03ba\u03b9\u03bd\u03bf 105.5
p2918
ssS'54'
p2919
(dp2920
g375
S'mms://a1232.l3271935231.c32719.g.lm.akamaistream.net/D/1232/32719/v0001/reflector:35231'
p2921
sg4
V54
p2922
sg6
VKosmos 93.6
p2923
ssS'57'
p2924
(dp2925
g4
V57
p2926
sg6
V\u03a1\u03ac\u03b4\u03b9\u03bf \u03a0\u03cc\u03bd\u03c4\u03bf\u03c2 106.5
p2927
ssS'56'
p2928
(dp2929
g4
V56
p2930
sg6
V\u03a7\u03c1\u03b9\u03c3\u03c4\u03b9\u03b1\u03bd\u03b9\u03c3\u03bc\u03cc\u03c2
p2931
ssS'51'
p2932
(dp2933
g4
V51
p2934
sg6
V\u039c\u03b5\u03bb\u03c9\u03b4\u03af\u03b1 99.2
p2935
ssS'62'
p2936
(dp2937
g375
S'http://shoutcast.24radio.gr:8060/'
p2938
sg4
V62
p2939
sg6
VLife Radio 91.6
p2940
ssS'53'
p2941
(dp2942
g375
S'mms://ant1.live24.gr/ant1'
p2943
sg4
V53
p2944
sg6
VAnt1 97.2
p2945
ssS'52'
p2946
(dp2947
g4
V52
p2948
sg6
V\u039b\u03ac\u03bc\u03c8\u03b7 92.3
p2949
ssS'537'
p2950
(dp2951
g4
V537
p2952
sg6
VMusic Life 95.1
p2953
ssS'536'
p2954
(dp2955
g4
V536
p2956
sg6
VDolce Radio 89.5
p2957
ssS'63'
p2958
(dp2959
g4
V63
p2960
sg6
VHit Fm 92.9
p2961
ssS'533'
p2962
(dp2963
g4
V533
p2964
sg6
VMy World
p2965
ssS'532'
p2966
(dp2967
g4
V532
p2968
sg6
VRadio 88\u03bc\u03b9\u03c3\u03cc
p2969
ssS'531'
p2970
(dp2971
g375
S'http://live.onestreaming.com/greek4u'
p2972
sg4
V531
p2973
sg6
VGr4u
p2974
ssS'152'
p2975
(dp2976
g375
S'mms://a1318.l3271931317.c32719.g.lm.akamaistream.net/D/1318/32719/v0001/reflector:31317'
p2977
sg4
V152
p2978
sg6
V\u03a4\u03c1\u03af\u03c4\u03bf  90.9
p2979
ssS'539'
p2980
(dp2981
g4
V539
p2982
sg6
V\u03a1\u03ac\u03b4\u03b9\u03bf \u039c\u03b5\u03c3\u03c3\u03ac\u03c4\u03b9\u03b4\u03b1 98
p2983
ssS'538'
p2984
(dp2985
g375
S'http://972fm.no-ip.info:8000'
p2986
sg4
V538
p2987
sg6
V97.2 Fm Stereo
p2988
ssS'201'
p2989
(dp2990
g4
V201
p2991
sg6
V\u0391\u03b3\u03ad\u03c1\u03b9 Fm 102
p2992
ssS'988'
p2993
(dp2994
g4
V988
p2995
sg6
V\u0397\u03c7\u03bf\u03c2 Radio
p2996
ssS'200'
p2997
(dp2998
g375
S'http://eco.onestreaming.com:8129'
p2999
sg4
V200
p3000
sg6
V\u039c\u03b5\u03bb\u03c9\u03b4\u03af\u03b1 88
p3001
ssS'981'
p3002
(dp3003
g375
S'http://199.16.186.34:8236/'
p3004
sg4
V981
p3005
sg6
VElektrik Dreams
p3006
ssS'50'
p3007
(dp3008
g4
V50
p3009
sg6
VX Fm 94.3
p3010
ssS'115'
p3011
(dp3012
g4
V115
p3013
sg6
V\u03a1\u03ac\u03b4\u03b9\u03bf \u0391\u03bb\u03ae\u03b8\u03b5\u03b9\u03b1 95.7
p3014
ssS'68'
p3015
(dp3016
g375
S'http://golive.onestreaming.com/radioena'
p3017
sg4
V68
p3018
sg6
V99 Fm \u03a1\u03ac\u03b4\u03b9\u03bf 1
p3019
ssS'776'
p3020
(dp3021
g375
S'mms://a323.l6160932322.c61609.e.lm.akamaistream.net/D/323/61609/v0001/reflector:32322'
p3022
sg4
V776
p3023
sg6
V\u0396\u03bf\u03cd\u03b3\u03ba\u03bb\u03b1 Radio
p3024
ssS'111'
p3025
(dp3026
g375
S'http://golive.onestreaming.com/arion'
p3027
sg4
V111
p3028
sg6
VArion Radio
p3029
ssS'110'
p3030
(dp3031
g375
S'http://golive.onestreaming.com/athensparty'
p3032
sg4
V110
p3033
sg6
VAthens Party
p3034
ssS'113'
p3035
(dp3036
g375
S'http://188.40.131.14:8062'
p3037
sg4
V113
p3038
sg6
VJay Radio
p3039
ssS'112'
p3040
(dp3041
g4
V112
p3042
sg6
V\u0388\u03c1\u03c9\u03c4\u03b1\u03c2
p3043
ssS'205'
p3044
(dp3045
g375
S'http://live.onestreaming.com/arhagelos'
p3046
sg4
V205
p3047
sg6
V\u03a1\u03ac\u03b4\u03b9\u03bf \u0391\u03c1\u03c7\u03ac\u03b3\u03b3\u03b5\u03bb\u03bf\u03c2 94.1
p3048
ssS'119'
p3049
(dp3050
g375
S'http://s1.onweb.gr:8812'
p3051
sg4
V119
p3052
sg6
V\u03a1\u03b1\u03b4\u03b9\u03bf\u03ba\u03cd\u03bc\u03b1\u03c4\u03b1 104.4
p3053
ssS'118'
p3054
(dp3055
g4
V118
p3056
sg6
V\u039b\u03c5\u03b4\u03af\u03b1 Fm 94.2
p3057
ssS'207'
p3058
(dp3059
g4
V207
p3060
sg6
V\u03a3\u03ac\u03bc\u03bf\u03c2 Fm 97.3
p3061
ssS'953'
p3062
(dp3063
g375
S'http://live.onestreaming.com/notesserres'
p3064
sg4
V953
p3065
sg6
V\u03a1\u03ac\u03b4\u03b9\u03bf \u039d\u03cc\u03c4\u03b5\u03c2 106
p3066
ssS'429'
p3067
(dp3068
g4
V429
p3069
sg6
V\u03a1\u03c5\u03b8\u03bc\u03cc\u03c2 104
p3070
ssS'428'
p3071
(dp3072
g4
V428
p3073
sg6
V\u03a0\u03b1\u03bd\u03cc\u03c1\u03b1\u03bc\u03b1 98.4
p3074
ssS'534'
p3075
(dp3076
g375
S'http://eco.onestreaming.com:8152/stream'
p3077
sg4
V534
p3078
sg6
VAction Radio 98.2
p3079
ssS'919'
p3080
(dp3081
g375
S'http://r3.webradiostreams.com:7120/'
p3082
sg4
V919
p3083
sg6
VStudio 20 101.1
p3084
ssS'918'
p3085
(dp3086
g4
V918
p3087
sg6
VRadio Must Athens
p3088
ssS'914'
p3089
(dp3090
g375
S'http://178.32.57.58:8345/'
p3091
sg4
V914
p3092
sg6
VMagic Fm 102.9
p3093
ssS'916'
p3094
(dp3095
g4
V916
p3096
sg6
V\u03a1\u03ac\u03b4\u03b9\u03bf \u039f\u03bc\u03ac\u03b4\u03b1R
p3097
ssS'913'
p3098
(dp3099
g4
V913
p3100
sg6
VClassical Radio
p3101
ssS'300'
p3102
(dp3103
g375
S'http://eco.onestreaming.com:8173'
p3104
sg4
V300
p3105
sg6
VCity Fm 100
p3106
ssS'301'
p3107
(dp3108
g375
S'http://78.46.106.4:8010'
p3109
sg4
V301
p3110
sg6
VMusic Club 105.8
p3111
ssS'302'
p3112
(dp3113
g4
V302
p3114
sg6
VEros Radio 93
p3115
ssS'303'
p3116
(dp3117
g4
V303
p3118
sg6
VRadio Erotic
p3119
ssS'304'
p3120
(dp3121
g375
S'http://media15.internet.gr/dreamfm'
p3122
sg4
V304
p3123
sg6
VDream Fm 90.6
p3124
ssS'305'
p3125
(dp3126
g4
V305
p3127
sg6
VKiss Gold
p3128
ssS'306'
p3129
(dp3130
g4
V306
p3131
sg6
VCoast Fm 91.4
p3132
ssS'821'
p3133
(dp3134
g4
V821
p3135
sg6
VFree Angel 91.8
p3136
ssS'374'
p3137
(dp3138
g375
S'http://s5.onweb.gr:8030'
p3139
sg4
V374
p3140
sg6
VHit Fm 89.3
p3141
ssS'954'
p3142
(dp3143
g4
V954
p3144
sg6
VRock 69
p3145
ssS'753'
p3146
(dp3147
g375
S'http://shoutcast.24radio.gr:8042/'
p3148
sg4
V753
p3149
sg6
VSpace Fm 107.5
p3150
ssS'569'
p3151
(dp3152
g375
S'http://159.253.149.12:8138'
p3153
sg4
V569
p3154
sg6
V\u03a1\u03ac\u03b4\u03b9\u03bf \u039a\u03b1\u03bb\u03ac\u03b2\u03c1\u03c5\u03c4\u03b1 106.5
p3155
ssS'751'
p3156
(dp3157
g375
S'http://s2.onweb.gr:8608/'
p3158
sg4
V751
p3159
sg6
V\u0395\u03c0\u03b9\u03ba\u03bf\u03b9\u03bd\u03c9\u03bd\u03af\u03b1 Fm 89.1
p3160
ssS'750'
p3161
(dp3162
g375
S'http://208.43.115.44:8068'
p3163
sg4
V750
p3164
sg6
V\u0391\u03be\u03ac\u03c2 Radio
p3165
ssS'757'
p3166
(dp3167
g375
S'http://shoutcast.24radio.gr:8052/'
p3168
sg4
V757
p3169
sg6
V\u0391\u03b9\u03b3\u03b1\u03af\u03bf Live 95.8
p3170
ssS'756'
p3171
(dp3172
g4
V756
p3173
sg6
V\u03a1\u03ac\u03b4\u03b9\u03bf \u0395\u03c0\u03ac\u03bb
p3174
ssS'755'
p3175
(dp3176
g375
S'http://shoutcast.24radio.gr:8050/'
p3177
sg4
V755
p3178
sg6
Vgopop.gr Top 40 Channel
p3179
ssS'754'
p3180
(dp3181
g375
S'http://shoutcast.24radio.gr:8048/'
p3182
sg4
V754
p3183
sg6
Vgopop.gr Disco Channel
p3184
ssS'560'
p3185
(dp3186
g375
S'http://eco.onestreaming.com:8324'
p3187
sg4
V560
p3188
sg6
VRodon 95 Fm
p3189
ssS'561'
p3190
(dp3191
g375
S'http://eco.onestreaming.com:8238'
p3192
sg4
V561
p3193
sg6
VSfera 94.1
p3194
ssS'759'
p3195
(dp3196
g375
S'http://s3.onweb.gr:8530/'
p3197
sg4
V759
p3198
sg6
VStyl Fm 104.8
p3199
ssS'758'
p3200
(dp3201
g4
V758
p3202
sg6
V\u03a1\u03b1\u03b4\u03b9\u03bf\u03c6\u03c9\u03bd\u03af\u03b1 \u039a\u03c5\u03ba\u03bb\u03ac\u03b4\u03c9\u03bd
p3203
ssS'564'
p3204
(dp3205
g4
V564
p3206
sg6
VAria Fm 107.4
p3207
ssS'566'
p3208
(dp3209
g375
S'http://208.43.115.44:9844/'
p3210
sg4
V566
p3211
sg6
V\u0395\u03bb\u03bb\u03b7\u03bd\u03ac\u03b4\u03b9\u03ba\u03bf Fm
p3212
ssS'567'
p3213
(dp3214
g4
V567
p3215
sg6
VAthens Winder Radio
p3216
ssS'506'
p3217
(dp3218
g4
V506
p3219
sg6
V\u03a1\u03ac\u03b4\u03b9\u03bf \u039d\u03b1\u03cd\u03c0\u03b1\u03ba\u03c4\u03bf\u03c2
p3220
ssS'229'
p3221
(dp3222
g4
V229
p3223
sg6
V\u0391\u03bd\u03b4\u03c1\u03bf\u03bc\u03ad\u03b4\u03b1 Net
p3224
ssS'228'
p3225
(dp3226
g375
S'mms://radio.greekstream.net/ekrixi'
p3227
sg4
V228
p3228
sg6
V\u0388\u03ba\u03c1\u03b7\u03be\u03b7 Fm 99.7
p3229
ssS'227'
p3230
(dp3231
g375
S'http://s1.onweb.gr:8408'
p3232
sg4
V227
p3233
sg6
VStudio 3 103.5
p3234
ssS'226'
p3235
(dp3236
g375
S'http://wm3.greekstream.net/sindosfm'
p3237
sg4
V226
p3238
sg6
V\u039a\u03b1\u03bb\u03b1\u03bc\u03b1\u03c1\u03b9\u03ac Fm 101.7
p3239
ssS'225'
p3240
(dp3241
g375
S'http://shout.plusradio.gr:8120/'
p3242
sg4
V225
p3243
sg6
VPlus Radio 102.6
p3244
ssS'223'
p3245
(dp3246
g375
S'http://s3.onweb.gr:8436'
p3247
sg4
V223
p3248
sg6
V\u03a1\u03ac\u03b4\u03b9\u03bf \u0394\u0395\u0398 104.9
p3249
ssS'222'
p3250
(dp3251
g4
V222
p3252
sg6
V\u0395\u03c0\u03b9\u03ba\u03bf\u03b9\u03bd\u03c9\u03bd\u03af\u03b1 Fm 94
p3253
ssS'221'
p3254
(dp3255
g375
S'mms://a999.l3271920998.c32719.g.lm.akamaistream.net/D/999/32719/v0001/reflector:20998'
p3256
sg4
V221
p3257
sg6
V\u0397 \u03a6\u03c9\u03bd\u03ae \u03c4\u03b7\u03c2 \u0395\u03bb\u03bb\u03ac\u03b4\u03b1\u03c2
p3258
ssS'220'
p3259
(dp3260
g4
V220
p3261
sg6
V\u03a6\u03b9\u03bb\u03af\u03b1 107 Fm
p3262
ssS'1027'
p3263
(dp3264
g375
S'http://85.25.106.162:8330/'
p3265
sg4
V1027
p3266
sg6
VSoul Radio
p3267
ssS'1026'
p3268
(dp3269
g4
V1026
p3270
sg6
VRelax Fm 88.2
p3271
ssS'114'
p3272
(dp3273
g4
V114
p3274
sg6
V\u03a1\u03ac\u03b4\u03b9\u03bf \u039c\u03b1\u03c3\u03c4\u03af\u03c7\u03b1 107.7
p3275
ssS'1028'
p3276
(dp3277
g4
V1028
p3278
sg6
V\u03a0\u03b1\u03bd\u03b9\u03ba\u03cc\u03c2 Fm
p3279
ssS'503'
p3280
(dp3281
g2592
V503
p3282
sg2594
V\u03a1\u03ac\u03b4\u03b9\u03bf \u03a6\u03b1\u03bd\u03c4\u03b1\u03c3\u03af\u03b1
p3283
ssS'726'
p3284
(dp3285
g375
S'http://s2.onweb.gr:8624'
p3286
sg4
V726
p3287
sg6
VAlfa Radio 96
p3288
ssS'724'
p3289
(dp3290
g375
S'http://shoutcast.24radio.gr:8072'
p3291
sg4
V724
p3292
sg6
V\u03a1\u03ac\u03b4\u03b9\u03bf \u0386\u03c3\u03c4\u03c5 90.6
p3293
ssS'725'
p3294
(dp3295
g375
S'http://shoutcast.24radio.gr:8004/'
p3296
sg4
V725
p3297
sg6
VAthens Jukebox Radio
p3298
ssS'723'
p3299
(dp3300
g375
S'http://s5.onweb.gr:8502'
p3301
sg4
V723
p3302
sg6
V\u0394\u03af\u03b1\u03c5\u03bb\u03bf\u03c2 \u039a\u03b1\u03c1\u03b4\u03af\u03c4\u03c3\u03b1\u03c2 102.8
p3303
ssS'720'
p3304
(dp3305
g4
V720
p3306
sg6
VVelvet.
p3307
ssS'721'
p3308
(dp3309
g375
S'http://208.43.81.168:8748'
p3310
sg4
V721
p3311
sg6
VIoannina Dee Jay 89.6
p3312
ssS'728'
p3313
(dp3314
g375
S'http://s2.onweb.gr:8646/'
p3315
sg4
V728
p3316
sg6
VVibe Fm 95.4
p3317
ssS'151'
p3318
(dp3319
g375
S'mms://a1782.l3271951781.c32719.g.lm.akamaistream.net/D/1782/32719/v0001/reflector:51781'
p3320
sg4
V151
p3321
sg6
V\u0394\u03b5\u03cd\u03c4\u03b5\u03c1\u03bf 103.7
p3322
ssS'150'
p3323
(dp3324
g375
S'mms://a1709.l3271943708.c32719.g.lm.akamaistream.net/D/1709/32719/v0001/reflector:43708'
p3325
sg4
V150
p3326
sg6
VNet 105.8
p3327
ssS'607'
p3328
(dp3329
g375
S'http://s2.onweb.gr:8600/'
p3330
sg4
V607
p3331
sg6
VDream Radio
p3332
ssS'606'
p3333
(dp3334
g4
V606
p3335
sg6
VLive Dreams
p3336
ssS'601'
p3337
(dp3338
g4
V601
p3339
sg6
VGlam Radio
p3340
ssS'154'
p3341
(dp3342
g375
S'mms://a1964.l3271953963.c32719.g.lm.akamaistream.net/D/1964/32719/v0001/reflector:53963'
p3343
sg4
V154
p3344
sg6
V95.8 Fm
p3345
ssS'157'
p3346
(dp3347
g375
S'http://a240.l827440239.c8274.g.lm.akamaistream.net/D/240/8274/v0001/reflector:40239'
p3348
sg4
V157
p3349
sg6
V\u03a3\u03ba\u03ac\u03ca 100.3
p3350
ssS'602'
p3351
(dp3352
g4
V602
p3353
sg6
V\u03a0\u03b1\u03bb\u03bc\u03cc\u03c2 105.4
p3354
ssS'159'
p3355
(dp3356
g375
S'http://topmelody1.selfip.net:8000'
p3357
sg4
V159
p3358
sg6
VTop Melody 104.9
p3359
ssS'158'
p3360
(dp3361
g375
S'mms://era.aegean.gr/era'
p3362
sg4
V158
p3363
sg6
V\u0395\u03a1\u0391 \u0392. \u0391\u03b9\u03b3\u03b1\u03af\u03bf\u03c5 103
p3364
ssS'609'
p3365
(dp3366
g4
V609
p3367
sg6
VRadio Piotita
p3368
ssS'608'
p3369
(dp3370
g375
S'http://golive.onestreaming.com/arionlaikos'
p3371
sg4
V608
p3372
sg6
VArion \u039b\u03b1\u03ca\u03ba\u03cc\u03c2
p3373
ssS'469'
p3374
(dp3375
g4
V469
p3376
sg6
V\u03a1\u03ac\u03b4\u03b9\u03bf \u039a\u03b1\u03bb\u03bb\u03af\u03c0\u03bf\u03bb\u03b7
p3377
ssS'935'
p3378
(dp3379
g375
S'http://176.9.35.49:9942'
p3380
sg4
V935
p3381
sg6
V\u03a1\u03ac\u03b4\u03b9\u03bf \u03a0\u03b1\u03c1\u03b5\u03bf\u03cd\u03bb\u03b1
p3382
ssS'399'
p3383
(dp3384
g375
S'http://s7.onweb.gr:8548/'
p3385
sg4
V399
p3386
sg6
V\u03a1\u03ac\u03b4\u03b9\u03bf \u03a0\u03b1\u03bb\u03b1\u03b9\u03cc\u03c7\u03c9\u03c1\u03b1 89.3
p3387
ssS'468'
p3388
(dp3389
g4
V468
p3390
sg6
V\u0391\u03b3\u03c1\u03af\u03bd\u03b9\u03bf Fm 93.7
p3391
ssS'959'
p3392
(dp3393
g4
V959
p3394
sg6
VKappa Radio 87.9
p3395
ssS'48'
p3396
(dp3397
g4
V48
p3398
sg6
V\u0395\u03ba\u03ba\u03bb\u03b7\u03c3\u03af\u03b1 89.5
p3399
ssS'49'
p3400
(dp3401
g4
V49
p3402
sg6
V\u03a0\u03b5\u03b9\u03c1\u03b1\u03ca\u03ba\u03ae \u0395\u03ba\u03ba\u03bb\u03b7\u03c3\u03af\u03b1 91.2
p3403
ssS'46'
p3404
(dp3405
g375
S'http://radiogold.live24.gr/radiogold'
p3406
sg4
V46
p3407
sg6
VRadio Gold
p3408
ssS'47'
p3409
(dp3410
g375
S'mms://oasis.live24.gr/oasis8888'
p3411
sg4
V47
p3412
sg6
V\u038c\u03b1\u03c3\u03b9\u03c2 88
p3413
ssS'44'
p3414
(dp3415
g375
S'http://music.vimafm995.gr/vimafm?MSWMExt=.asf'
p3416
sg4
V44
p3417
sg6
V\u0392\u03ae\u03bc\u03b1 Fm 99.5
p3418
ssS'45'
p3419
(dp3420
g375
S'mms://flash.live24.gr/flash5252'
p3421
sg4
V45
p3422
sg6
VFlash 96
p3423
ssS'955'
p3424
(dp3425
g375
S'http://85.17.30.90:8078'
p3426
sg4
V955
p3427
sg6
VRiver Fm 106.6
p3428
ssS'43'
p3429
(dp3430
g4
V43
p3431
sg6
VMad Radio 106.2
p3432
ssS'40'
p3433
(dp3434
g375
S'mms://a1251.l827423250.c8274.g.lm.akamaistream.net/D/1251/8274/v0001/reflector:23250'
p3435
sg4
V40
p3436
sg6
VFreedom
p3437
ssS'41'
p3438
(dp3439
g375
S'http://s3.onweb.gr:8878/'
p3440
sg4
V41
p3441
sg6
V\u039a\u03c1\u03ae\u03c4\u03b7 Fm 87.5
p3442
ssS'638'
p3443
(dp3444
g375
S'http://s3.onweb.gr:8540/'
p3445
sg4
V638
p3446
sg6
VRadio Epigee
p3447
ssS'464'
p3448
(dp3449
g4
V464
p3450
sg6
VMarconi Radio
p3451
ssS'508'
p3452
(dp3453
g4
V508
p3454
sg6
V\u039b\u03b1\u03ca\u03ba\u03cc Radio
p3455
ssS'489'
p3456
(dp3457
g375
S'http://shoutcast.24radio.gr:8076'
p3458
sg4
V489
p3459
sg6
V\u03a1\u03ac\u03b4\u03b9\u03bf \u039c\u03b5\u03bb\u03c9\u03b4\u03af\u03b1 102.4
p3460
ssS'488'
p3461
(dp3462
g4
V488
p3463
sg6
V\u0389\u03c7\u03bf\u03c2 Radio 91
p3464
ssS'487'
p3465
(dp3466
g4
V487
p3467
sg6
VPluslive Radio
p3468
ssS'486'
p3469
(dp3470
g375
S'http://78.46.46.214:8000/'
p3471
sg4
V486
p3472
sg6
VRadio Relax
p3473
ssS'485'
p3474
(dp3475
g4
V485
p3476
sg6
VMango Radio Urban
p3477
ssS'484'
p3478
(dp3479
g375
S'http://live.onestreaming.com/myradionet'
p3480
sg4
V484
p3481
sg6
VMy Radio 89.6
p3482
ssS'483'
p3483
(dp3484
g4
V483
p3485
sg6
V\u03a1\u03ac\u03b4\u03b9\u03bf \u0397\u03c7\u03cc
p3486
ssS'482'
p3487
(dp3488
g4
V482
p3489
sg6
VSigma Radio
p3490
ssS'481'
p3491
(dp3492
g4
V481
p3493
sg6
VAntenna Radio
p3494
ssS'480'
p3495
(dp3496
g4
V480
p3497
sg6
VRolling Paper
p3498
ssS'509'
p3499
(dp3500
g375
S'http://50.7.243.50:8127/'
p3501
sg4
V509
p3502
sg6
VEnergy 93.4
p3503
ssS'473'
p3504
(dp3505
g4
V473
p3506
sg6
VRadio Next
p3507
ssS'470'
p3508
(dp3509
g375
S'http://83.133.127.198:8999'
p3510
sg4
V470
p3511
sg6
VReal Fm 107.1
p3512
ssS'471'
p3513
(dp3514
g375
S'http://radio.radionova.gr:8263/kritorama'
p3515
sg4
V471
p3516
sg6
V\u039a\u03c1\u03b7\u03c4\u03cc\u03c1\u03b1\u03bc\u03b1 97.9
p3517
ssS'476'
p3518
(dp3519
g375
S'mms://a714.l649552713.c6495.g.lm.akamaistream.net/D/714/6495/v0001/reflector:52713'
p3520
sg4
V476
p3521
sg6
VMusic 89.2
p3522
ssS'477'
p3523
(dp3524
g4
V477
p3525
sg6
VTripa Radio
p3526
ssS'474'
p3527
(dp3528
g375
S'http://eco.onestreaming.com:8324'
p3529
sg4
V474
p3530
sg6
V\u0395\u03a1\u0391 \u03a0\u03ac\u03c4\u03c1\u03b1\u03c2 92.5
p3531
ssS'475'
p3532
(dp3533
g4
V475
p3534
sg6
VFlash \u03a0\u03ac\u03c4\u03c1\u03b1\u03c2 98.7
p3535
ssS'478'
p3536
(dp3537
g375
S'http://hotfm.live24.gr/shock'
p3538
sg4
V478
p3539
sg6
VHot Fm
p3540
ssS'479'
p3541
(dp3542
g375
S'http://178.32.57.58:8557/'
p3543
sg4
V479
p3544
sg6
VStudio 359
p3545
ss.