(dp1
S'818'
p2
(dp3
S'id'
p4
V818
p5
sS'title'
p6
VRadio Heaven
p7
ssS'819'
p8
(dp9
g4
V819
p10
sg6
VWinder Ellinikos
p11
ssS'346'
p12
(dp13
S'url'
p14
S'http://metro903.live24.gr/metro903-1000'
p15
sg4
V346
p16
sg6
VMetro Fm 90.3
p17
ssS'347'
p18
(dp19
g4
V347
p20
sg6
V\u0395\u03bb\u03bb\u03b7\u03bd\u03b9\u03ba\u03cc\u03c2 90.3
p21
ssS'340'
p22
(dp23
g14
S'http://s6.onweb.gr:8056'
p24
sg4
V340
p25
sg6
V\u03a1\u03ac\u03b4\u03b9\u03bf \u03a6\u03ac\u03c1\u03bf\u03c2 92.7
p26
ssS'341'
p27
(dp28
g14
S'http://s3.onweb.gr:8060'
p29
sg4
V341
p30
sg6
V\u03a0\u03af\u03bd\u03b4\u03bf\u03c2 Fm 107.7
p31
ssS'342'
p32
(dp33
g4
V342
p34
sg6
VStar 99
p35
ssS'343'
p36
(dp37
g4
V343
p38
sg6
VPop Fm 89.1
p39
ssS'810'
p40
(dp41
S'id'
p42
V810
p43
sS'title'
p44
V365 Radio
p45
ssS'811'
p46
(dp47
g4
V811
p48
sg6
V\u03a1\u03ac\u03b4\u03b9\u03bf \u0391\u03af\u03b3\u03b9\u03bd\u03b1
p49
ssS'812'
p50
(dp51
g14
S'http://live.e-streaming.eu:8120/'
p52
sg4
V812
p53
sg6
V\u03a1\u03ac\u03b4\u03b9\u03bf \u039c\u03c9\u03c1\u03b9\u03ac\u03c2 102.7
p54
ssS'504'
p55
(dp56
g14
S'mms://live.onestreaming.com/magiafm'
p57
sg4
V504
p58
sg6
V\u039c\u03b1\u03b3\u03b5\u03af\u03b1 Fm 104.7
p59
ssS'348'
p60
(dp61
g14
S'http://live.isolservers.com:8400'
p62
sg4
V348
p63
sg6
V\u03a3\u03b5\u03af\u03c1\u03b9\u03bf\u03c2 Fm 95.8
p64
ssS'815'
p65
(dp66
g4
V815
p67
sg6
VFresh Web Radio
p68
ssS'816'
p69
(dp70
g14
S'http://www.streamyourdream.org:8000/urbanradio'
p71
sg4
V816
p72
sg6
VUrban Radio
p73
ssS'817'
p74
(dp75
g14
S'http://66.90.104.41:8356/'
p76
sg4
V817
p77
sg6
VD Radio
p78
ssS'595'
p79
(dp80
g4
V595
p81
sg6
V\u03a9\u03bc\u03ad\u03b3\u03b1 Fm 90
p82
ssS'719'
p83
(dp84
g14
S'http://208.43.121.133:9652/'
p85
sg4
V719
p86
sg6
V\u03a0\u03cc\u03bd\u03c4\u03bf\u03c2 \u039b\u03b5\u03bb\u03ad\u03b2\u03c9\u03c3\u03b5 101.3
p87
ssS'718'
p88
(dp89
g4
V718
p90
sg6
VPlus Elegance
p91
ssS'716'
p92
(dp93
g14
S'http://stream-push2.live24.gr/synorafm-3462'
p94
sg4
V716
p95
sg6
V\u03a3\u03cd\u03bd\u03bf\u03c1\u03b1 Fm 92.2
p96
ssS'714'
p97
(dp98
g14
S'http://eco.onestreaming.com:8072'
p99
sg4
V714
p100
sg6
VLove Radio 97.2
p101
ssS'713'
p102
(dp103
g4
V713
p104
sg6
VRadio Alpha Omega
p105
ssS'711'
p106
(dp107
g14
S'http://75.75.226.26:8204'
p108
sg4
V711
p109
sg6
VAlpha Fm 104.7
p110
ssS'710'
p111
(dp112
g4
V710
p113
sg6
VSport Fm \u03a1\u03ad\u03b8\u03c5\u03bc\u03bd\u03bf 103.3
p114
ssS'618'
p115
(dp116
g14
S'http://shoutcast.24radio.gr:8038/'
p117
sg4
V618
p118
sg6
VViva Gr 102.8
p119
ssS'1065'
p120
(dp121
g14
S'http://eco.onestreaming.com:8222/'
p122
sg4
V1065
p123
sg6
VPlay Radio
p124
ssS'619'
p125
(dp126
g4
V619
p127
sg6
VTechno Time Radio
p128
ssS'427'
p129
(dp130
g4
V427
p131
sg6
VThessaloniki Dee Jay 89.4
p132
ssS'298'
p133
(dp134
g4
V298
p135
sg6
V\u0395\u03bb\u03bb\u03b7\u03bd\u03b9\u03ba\u03cc\u03c2 107.2
p136
ssS'299'
p137
(dp138
g14
S'mms://1045fm.live24.gr/1045fm/'
p139
sg4
V299
p140
sg6
V\u03a1\u03c5\u03b8\u03bc\u03cc\u03c2 104.5
p141
ssS'296'
p142
(dp143
g4
V296
p144
sg6
VDance Radio Chill Out
p145
ssS'297'
p146
(dp147
g4
V297
p148
sg6
V\u039b\u03ac\u03bc\u03c8\u03b7 Fm 105.7
p149
ssS'295'
p150
(dp151
g4
V295
p152
sg6
VDance Radio Global
p153
ssS'292'
p154
(dp155
g4
V292
p156
sg6
VI. Galaxy Sport Fm 90.8
p157
ssS'293'
p158
(dp159
g4
V293
p160
sg6
V\u0395\u03c1\u03c9\u03c4\u03cc\u03ba\u03c1\u03b9\u03c4\u03bf\u03c2 87.9
p161
ssS'290'
p162
(dp163
g14
S'http://ice.motionfm.com:80/motiontwo_free'
p164
sg4
V290
p165
sg6
VSmooth Motion Fm
p166
ssS'291'
p167
(dp168
g14
S'http://85.17.75.142/echoes'
p169
sg4
V291
p170
sg6
VEchoes
p171
ssS'591'
p172
(dp173
g4
V591
p174
sg6
VPlus Amor
p175
ssS'590'
p176
(dp177
g14
S'http://eco.onestreaming.com:8257'
p178
sg4
V590
p179
sg6
VRadio Star 95,5
p180
ssS'1085'
p181
(dp182
g14
S'http://shoutcast.24radio.gr:8022'
p183
sg4
V1085
p184
sg6
VHot Rockin Radio
p185
ssS'592'
p186
(dp187
g4
V592
p188
sg6
VPlus Dance
p189
ssS'199'
p190
(dp191
g14
S'http://live.onestreaming.com/lihnari'
p192
sg4
V199
p193
sg6
V\u039b\u03c5\u03c7\u03bd\u03ac\u03c1\u03b9 91.4
p194
ssS'594'
p195
(dp196
g4
V594
p197
sg6
VOxygen Fm 95.3
p198
ssS'597'
p199
(dp200
g14
S'http://live.onestreaming.com/blacklemon'
p201
sg4
V597
p202
sg6
VBlack Lemon Radio 
p203
ssS'596'
p204
(dp205
g4
V596
p206
sg6
VRadio Project
p207
ssS'195'
p208
(dp209
g14
S'http://s6.onweb.gr:8012'
p210
sg4
V195
p211
sg6
VTop FM 106.4
p212
ssS'194'
p213
(dp214
g4
V194
p215
sg6
V\u03a1\u03ac\u03b4\u03b9\u03bf \u03a0\u03ac\u03c4\u03c1\u03b1 106.5
p216
ssS'197'
p217
(dp218
S'url'
p219
S'http://s3.onweb.gr:8888'
p220
sg4
V197
p221
sg6
VLoud 88.8
p222
ssS'196'
p223
(dp224
g4
V196
p225
sg6
V\u03a1\u03ac\u03b4\u03b9\u03bf \u03a3\u03c4\u03bf\u03c1\u03ba 89.8
p226
ssS'191'
p227
(dp228
g219
S'http://s4.onweb.gr:8468'
p229
sg4
V191
p230
sg6
V\u03a1\u03ac\u03b4\u03b9\u03bf \u039b\u03ad\u03c7\u03bf\u03b2\u03bf 97.1
p231
ssS'190'
p232
(dp233
g4
V190
p234
sg6
V\u03a1\u03ac\u03b4\u03b9\u03bf \u03a6\u03bb\u03ce\u03c1\u03b9\u03bd\u03b1 101.5
p235
ssS'193'
p236
(dp237
g219
S'http://live.onestreaming.com/toxotis'
p238
sg4
V193
p239
sg6
V\u03a4\u03bf\u03be\u03cc\u03c4\u03b7\u03c2 Fm 96.3
p240
ssS'192'
p241
(dp242
g219
S'http://72.55.146.84:8002/'
p243
sg4
V192
p244
sg6
V\u0395\u03c1\u03c9\u03c4\u03b9\u03ba\u03cc\u03c2 99.5
p245
ssS'270'
p246
(dp247
g219
S'http://s3.onweb.gr:8046'
p248
sg4
V270
p249
sg6
VEnjoy Radio 107
p250
ssS'271'
p251
(dp252
g4
V271
p253
sg6
V\u039b\u03ac\u03bc\u03c8\u03b7 103.3
p254
ssS'272'
p255
(dp256
g219
S'http://78.129.159.205:8048'
p257
sg4
V272
p258
sg6
V\u0399\u03b5\u03c1\u03ac \u039c\u03b7\u03c4\u03c1\u03cc\u03c0\u03bf\u03bb\u03b7 88.4
p259
ssS'273'
p260
(dp261
g219
S'mms://radiogamma.live24.gr/radiogamma'
p262
sg4
V273
p263
sg6
V\u03a1\u03ac\u03b4\u03b9\u03bf \u0393\u03ac\u03bc\u03bc\u03b1 94
p264
ssS'274'
p265
(dp266
g219
S'http://s1.onweb.gr:8898'
p267
sg4
V274
p268
sg6
V\u039d\u03b5\u03bc\u03ad\u03b1 Radio 107.6
p269
ssS'275'
p270
(dp271
g219
S'http://s6.onweb.gr:8008'
p272
sg4
V275
p273
sg6
VJust 96.4
p274
ssS'276'
p275
(dp276
g219
S'http://s3.onweb.gr:8510'
p277
sg4
V276
p278
sg6
V\u039b\u03bf\u03c5\u03c4\u03c1\u03ac\u03ba\u03b9 Fm 96.9
p279
ssS'277'
p280
(dp281
g219
S'http://s3.onweb.gr:8472/'
p282
sg4
V277
p283
sg6
VL Radio 87.5
p284
ssS'278'
p285
(dp286
g219
S'http://s1.onweb.gr:8828'
p287
sg4
V278
p288
sg6
V\u03a1\u03ac\u03b4\u03b9\u03bf \u0395\u03bd\u03ad\u03c1\u03b3\u03b5\u03b9\u03b1 106.4
p289
ssS'279'
p290
(dp291
g219
S'http://stream.kiss922.gr:59922/'
p292
sg4
V279
p293
sg6
VKiss 93.8
p294
ssS'738'
p295
(dp296
g4
V738
p297
sg6
V\u0397\u03c7\u03cc\u03c1\u03b1\u03bc\u03b1 93.3
p298
ssS'524'
p299
(dp300
g4
V524
p301
sg6
VRussian Wave 105.6
p302
ssS'525'
p303
(dp304
g4
V525
p305
sg6
VPost Rocking
p306
ssS'526'
p307
(dp308
g4
V526
p309
sg6
V\u03a3\u03ba\u03ac\u03ca \u0391\u03c1\u03b3\u03bf\u03bb\u03af\u03b4\u03b1\u03c2 102.3
p310
ssS'527'
p311
(dp312
g4
V527
p313
sg6
VNoise Fm 100.5
p314
ssS'520'
p315
(dp316
g4
V520
p317
sg6
VArion Kids
p318
ssS'521'
p319
(dp320
g219
S'http://eco.onestreaming.com:8266'
p321
sg4
V521
p322
sg6
V\u0397\u03c7\u03ce Radio 102.7
p323
ssS'523'
p324
(dp325
g219
S'http://live.onestreaming.com/orthodoxia'
p326
sg4
V523
p327
sg6
V\u039f\u03c1\u03b8\u03bf\u03b4\u03bf\u03be\u03af\u03b1 \u03ba\u03b1\u03b9 \u03a0\u03b1\u03c1\u03ac\u03b4\u03bf\u03c3\u03b7
p328
ssS'1014'
p329
(dp330
g219
S'http://188.138.19.96:8030/'
p331
sg4
V1014
p332
sg6
VDeejay Fm 107.3
p333
ssS'528'
p334
(dp335
g4
V528
p336
sg6
VGreekzlive Radio
p337
ssS'529'
p338
(dp339
g219
S'http://shoutcast.24radio.gr:8010/'
p340
sg4
V529
p341
sg6
VNetcruise Radio
p342
ssS'449'
p343
(dp344
g4
V449
p345
sg6
VCocktail Radio
p346
ssS'448'
p347
(dp348
g219
S'http://eco.onestreaming.com:8005/stream'
p349
sg4
V448
p350
sg6
VLoco Radio
p351
ssS'443'
p352
(dp353
g219
S'http://www.tuningradio.gr:8000/'
p354
sg4
V443
p355
sg6
VTuning Radio
p356
ssS'442'
p357
(dp358
g4
V442
p359
sg6
V\u03a1\u03ac\u03b4\u03b9\u03bf \u03a6\u03ac\u03c3\u03b7
p360
ssS'441'
p361
(dp362
g4
V441
p363
sg6
VHot Station
p364
ssS'440'
p365
(dp366
g4
V440
p367
sg6
VActive Radio
p368
ssS'447'
p369
(dp370
g4
V447
p371
sg6
VMango Radio
p372
ssS'446'
p373
(dp374
S'url'
p375
S'http://live.waveradio.gr:8000/listen'
p376
sg4
V446
p377
sg6
VWave Radio
p378
ssS'445'
p379
(dp380
g4
V445
p381
sg6
VNotes Radio
p382
ssS'444'
p383
(dp384
g4
V444
p385
sg6
VBlue Radio
p386
ssS'108'
p387
(dp388
g4
V108
p389
sg6
VEpirusMusic
p390
ssS'109'
p391
(dp392
g4
V109
p393
sg6
VBlu Radio
p394
ssS'102'
p395
(dp396
g4
V102
p397
sg6
VTrip Radio
p398
ssS'103'
p399
(dp400
g375
S'http://live.onestreaming.com/deltaradio'
p401
sg4
V103
p402
sg6
VIEK Delta Radio
p403
ssS'100'
p404
(dp405
g4
V100
p406
sg6
VEvia Channel 94.2
p407
ssS'101'
p408
(dp409
g4
V101
p410
sg6
VStudio E 103
p411
ssS'107'
p412
(dp413
g375
S'http://s4.onweb.gr:8062/'
p414
sg4
V107
p415
sg6
V\u039e\u03b5\u03bd\u03cd\u03c7\u03c4\u03b7\u03c2
p416
ssS'104'
p417
(dp418
g4
V104
p419
sg6
V1431 AM
p420
ssS'105'
p421
(dp422
g375
S'http://live.onestreaming.com/bestmytilini'
p423
sg4
V105
p424
sg6
VBest Fm 98.1
p425
ssS'39'
p426
(dp427
g375
S'http://parea104.live24.gr/parea104'
p428
sg4
V39
p429
sg6
V\u03a0\u03b1\u03c1\u03ad\u03b1 104
p430
ssS'38'
p431
(dp432
g375
S'mms://johngreek.live24.gr/polis2795'
p433
sg4
V38
p434
sg6
VNRJ Radio 88.6
p435
ssS'907'
p436
(dp437
g4
V907
p438
sg6
VRadio Digital
p439
ssS'904'
p440
(dp441
g4
V904
p442
sg6
VSuper Radio
p443
ssS'33'
p444
(dp445
g375
S'mms://nitro.live24.gr/nitro4555'
p446
sg4
V33
p447
sg6
VNitro 102.5
p448
ssS'32'
p449
(dp450
g375
S'mms://kissfm.live24.gr/kiss2111'
p451
sg4
V32
p452
sg6
VKiss 92.9
p453
ssS'31'
p454
(dp455
g375
S'mms://best.live24.gr/best1222'
p456
sg4
V31
p457
sg6
VBest 92.6
p458
ssS'30'
p459
(dp460
g375
S'http://loveradio.live24.gr/loveradio-1000'
p461
sg4
V30
p462
sg6
VLove Radio 97.5
p463
ssS'37'
p464
(dp465
g375
S'http://dromos898.live24.gr/dromos898'
p466
sg4
V37
p467
sg6
V\u0394\u03c1\u03cc\u03bc\u03bf\u03c2 Fm 89.8
p468
ssS'36'
p469
(dp470
g4
V36
p471
sg6
VRadio 9 98.9
p472
ssS'35'
p473
(dp474
g4
V35
p475
sg6
VHi Jack
p476
ssS'34'
p477
(dp478
g375
S'mms://sfera.live24.gr/sfera4132'
p479
sg4
V34
p480
sg6
VSfera 102.2
p481
ssS'641'
p482
(dp483
g4
V641
p484
sg6
VCosmos Fm 103.8
p485
ssS'640'
p486
(dp487
g375
S'http://s4.onweb.gr:8442/'
p488
sg4
V640
p489
sg6
VRadio Amore
p490
ssS'643'
p491
(dp492
g375
S'http://174.36.237.66:8112/'
p493
sg4
V643
p494
sg6
VEnergy Fm 101
p495
ssS'645'
p496
(dp497
g4
V645
p498
sg6
VPrime Radio 100.3
p499
ssS'644'
p500
(dp501
g375
S'http://s3.onweb.gr:8474/'
p502
sg4
V644
p503
sg6
VFresh Radio
p504
ssS'88'
p505
(dp506
g4
V88
p507
sg6
V\u03a3 \u03b1\u03b3\u03b1\u03c0\u03ce 96.1
p508
ssS'646'
p509
(dp510
g375
S'http://s5.onweb.gr:8504/'
p511
sg4
V646
p512
sg6
V\u03a6\u03ac\u03c1\u03bf\u03c2 Fm 104
p513
ssS'649'
p514
(dp515
g375
S'http://eco.onestreaming.com:8294'
p516
sg4
V649
p517
sg6
VPower Fm 92.6
p518
ssS'648'
p519
(dp520
g4
V648
p521
sg6
VView Fm 103.9
p522
ssS'435'
p523
(dp524
g4
V435
p525
sg6
VCoolfm.eu
p526
ssS'432'
p527
(dp528
g4
V432
p529
sg6
VSplash Radio
p530
ssS'433'
p531
(dp532
g4
V433
p533
sg6
V\u0394\u03b9\u03b1\u03b8\u03b5\u03c4\u03b9\u03ba\u03ae
p534
ssS'1002'
p535
(dp536
g4
V1002
p537
sg6
V\u03a1\u03c5\u03b8\u03bc\u03cc\u03c2 Fm12 93.5
p538
ssS'339'
p539
(dp540
g375
S'http://live.skyradio.gr:9920'
p541
sg4
V339
p542
sg6
VSky Radio 99.2
p543
ssS'338'
p544
(dp545
g375
S'http://94.23.159.115:8088/'
p546
sg4
V338
p547
sg6
VSafari 104.7
p548
ssS'335'
p549
(dp550
g375
S'http://eco.onestreaming.com:8070'
p551
sg4
V335
p552
sg6
V\u0392\u03ae\u03bc\u03b1 Fm 90.1
p553
ssS'334'
p554
(dp555
g4
V334
p556
sg6
V\u039c\u03cd\u03b8\u03bf\u03c2 93.4
p557
ssS'337'
p558
(dp559
g4
V337
p560
sg6
V\u03a1\u03ac\u03b4\u03b9\u03bf \u0398\u03b5\u03c3\u03c0\u03c1\u03c9\u03c4\u03af\u03b1 97.1
p561
ssS'336'
p562
(dp563
g4
V336
p564
sg6
V\u03a1\u03ac\u03b4\u03b9\u03bf \u03a0\u03c1\u03ad\u03b2\u03b5\u03b6\u03b1 93
p565
ssS'331'
p566
(dp567
g375
S'http://s2.onweb.gr:8632'
p568
sg4
V331
p569
sg6
V\u0391\u03ba\u03c4\u03af\u03bd\u03b1 Fm 107.6
p570
ssS'330'
p571
(dp572
g375
S'mms://radio.istoikona.com/cosmos'
p573
sg4
V330
p574
sg6
VCosmos Radio 95.2
p575
ssS'332'
p576
(dp577
g4
V332
p578
sg6
VRadio Blackman 103.1
p579
ssS'89'
p580
(dp581
g375
S'http://shout.streamwithq.gr:4144/'
p582
sg4
V89
p583
sg6
VStar 97.1
p584
ssS'558'
p585
(dp586
g4
V558
p587
sg6
VXLR8 Net
p588
ssS'344'
p589
(dp590
g375
S'http://78.129.143.157:8000/starfm'
p591
sg4
V344
p592
sg6
VStar Fm 97.1
p593
ssS'345'
p594
(dp595
g375
S'http://live.onestreaming.com/karpenisi'
p596
sg4
V345
p597
sg6
V\u03a1\u03ac\u03b4\u03b9\u03bf \u039a\u03b1\u03c1\u03c0\u03b5\u03bd\u03ae\u03c3\u03b9 97.5
p598
ssS'748'
p599
(dp600
g375
S'http://nyc04.egihosting.com/458378'
p601
sg4
V748
p602
sg6
VCity International 106.1
p603
ssS'98'
p604
(dp605
g4
V98
p606
sg6
VGnet Radio
p607
ssS'91'
p608
(dp609
g375
S'http://sc2.greekstream.net:4008'
p610
sg4
V91
p611
sg6
V\u03a3\u03c4\u03b1\u03b8\u03bc\u03cc\u03c2
p612
ssS'90'
p613
(dp614
g375
S'http://stream.greekradios.gr:9060'
p615
sg4
V90
p616
sg6
VZoo Radio 90.8
p617
ssS'93'
p618
(dp619
g4
V93
p620
sg6
VGrassagoogoo
p621
ssS'92'
p622
(dp623
g4
V92
p624
sg6
V\u039a\u03bf\u03c3\u03bc\u03bf\u03c1\u03ac\u03b4\u03b9\u03bf 95.1
p625
ssS'95'
p626
(dp627
g4
V95
p628
sg6
VRadio Jukebox
p629
ssS'94'
p630
(dp631
g4
V94
p632
sg6
VRock Machine
p633
ssS'97'
p634
(dp635
g4
V97
p636
sg6
VAlpha 100.5
p637
ssS'96'
p638
(dp639
g375
S'http://webradio.musicheaven.gr:9850'
p640
sg4
V96
p641
sg6
VMusic Heaven
p642
ssS'349'
p643
(dp644
g375
S'http://s1.onweb.gr:8860'
p645
sg4
V349
p646
sg6
V\u03a3\u03c4\u03c5\u03bb\u03af\u03b4\u03b1 Fm 94.1
p647
ssS'153'
p648
(dp649
g4
V153
p650
sg6
VRed 96.3
p651
ssS'740'
p652
(dp653
g375
S'http://85.17.30.90:8044/'
p654
sg4
V740
p655
sg6
VStar Fm 95.7
p656
ssS'742'
p657
(dp658
g4
V742
p659
sg6
V\u03a1\u03ac\u03b4\u03b9\u03bf \u0391\u03bc\u03c6\u03b9\u03bb\u03bf\u03c7\u03af\u03b1 104.5
p660
ssS'743'
p661
(dp662
g375
S'http://eco.onestreaming.com:8286'
p663
sg4
V743
p664
sg6
V\u039b\u03ac\u03ba\u03ba\u03b1 \u03a3\u03bf\u03cd\u03bb\u03b9 Radio
p665
ssS'559'
p666
(dp667
g375
S'http://208.43.115.44:9888/'
p668
sg4
V559
p669
sg6
V\u0395\u03bb\u03bb\u03b7\u03bd\u03b9\u03ba\u03cc \u03a6\u03b1\u03b9\u03bd\u03cc\u03bc\u03b5\u03bd\u03bf
p670
ssS'745'
p671
(dp672
g4
V745
p673
sg6
VMoreradio
p674
ssS'555'
p675
(dp676
g375
S'http://72.55.146.84:8004/'
p677
sg4
V555
p678
sg6
VDiva Fm 91.6
p679
ssS'554'
p680
(dp681
g375
S'http://s7.onweb.gr:8552/'
p682
sg4
V554
p683
sg6
VHot 101.2
p684
ssS'556'
p685
(dp686
g4
V556
p687
sg6
VLemon Radio
p688
ssS'551'
p689
(dp690
g375
S'http://live.onestreaming.com/radiosamos'
p691
sg4
V551
p692
sg6
V\u03a1\u03ac\u03b4\u03b9\u03bf \u03a3\u03ac\u03bc\u03bf\u03c2 102
p693
ssS'550'
p694
(dp695
g4
V550
p696
sg6
VHuts Radio
p697
ssS'553'
p698
(dp699
g4
V553
p700
sg6
VStudio Fm 1 105.4
p701
ssS'552'
p702
(dp703
g375
S'http://golive.onestreaming.com/astraradio'
p704
sg4
V552
p705
sg6
VAstra Radio 93.2
p706
ssS'238'
p707
(dp708
g375
S'http://85.17.30.90:9986'
p709
sg4
V238
p710
sg6
V\u0397\u03c7\u03cc\u03c1\u03b1\u03bc\u03b1 100.8
p711
ssS'239'
p712
(dp713
g375
S'http://s1.onweb.gr:8052'
p714
sg4
V239
p715
sg6
V\u03a0\u03c1\u03ce\u03c4\u03bf Fm 99
p716
ssS'234'
p717
(dp718
g4
V234
p719
sg6
V\u03a0\u03cc\u03bb\u03b9\u03c2 99.4
p720
ssS'235'
p721
(dp722
g375
S'http://s1.onweb.gr:8824'
p723
sg4
V235
p724
sg6
V\u03a1\u03ac\u03b4\u03b9\u03bf 2 97.1
p725
ssS'236'
p726
(dp727
g375
S'http://live.onestreaming.com/radiovelika'
p728
sg4
V236
p729
sg6
VRadio Velika 92.2
p730
ssS'237'
p731
(dp732
g4
V237
p733
sg6
VBest Radio 93.9
p734
ssS'230'
p735
(dp736
g4
V230
p737
sg6
V\u03a1\u03ac\u03b4\u03b9\u03bf \u03a6\u03ac\u03c1\u03bf\u03c2 91.8
p738
ssS'231'
p739
(dp740
g4
V231
p741
sg6
VHeart Fm 105.1
p742
ssS'232'
p743
(dp744
g4
V232
p745
sg6
VAstra 97.3
p746
ssS'233'
p747
(dp748
g4
V233
p749
sg6
V\u03a1\u03ac\u03b4\u03b9\u03bf \u039a\u03b9\u03b2\u03c9\u03c4\u03cc\u03c2 87.8
p750
ssS'1055'
p751
(dp752
g375
S'http://eco.onestreaming.com:8014/live'
p753
sg4
V1055
p754
sg6
VBleep Radio
p755
ssS'1059'
p756
(dp757
g375
S'http://188.40.131.14:6004/'
p758
sg4
V1059
p759
sg6
VCosi Radio
p760
ssS'155'
p761
(dp762
g375
S'mms://a1758.l3271933757.c32719.g.lm.akamaistream.net/D/1758/32719/v0001/reflector:33757'
p763
sg4
V155
p764
sg6
V102 Fm
p765
ssS'146'
p766
(dp767
g375
S'mms://radio.istoikona.com/starfmcy'
p768
sg4
V146
p769
sg6
VStar Fm 93.7
p770
ssS'147'
p771
(dp772
g375
S'mms://radio.istoikona.com/rockfm'
p773
sg4
V147
p774
sg6
VRock Fm 98.5
p775
ssS'144'
p776
(dp777
g4
V144
p778
sg6
VMusicNetCy \u0388\u03bd\u03c4\u03b5\u03c7\u03bd\u03bf
p779
ssS'145'
p780
(dp781
g4
V145
p782
sg6
VKiss 89.0
p783
ssS'142'
p784
(dp785
g375
S'mms://radio.istoikona.com/sport1'
p786
sg4
V142
p787
sg6
VSports 1 93.7
p788
ssS'143'
p789
(dp790
g4
V143
p791
sg6
VChoice Fm 104.3
p792
ssS'140'
p793
(dp794
g375
S'mms://radio.istoikona.com/kanali61'
p795
sg4
V140
p796
sg6
V\u039a\u03b1\u03bd\u03ac\u03bb\u03b9 6 106
p797
ssS'141'
p798
(dp799
g375
S'mms://live.istoikona.com/astra'
p800
sg4
V141
p801
sg6
VAstra 92.8
p802
ssS'612'
p803
(dp804
g375
S'http://s3.onweb.gr:8536/'
p805
sg4
V612
p806
sg6
V\u0391\u03c1\u03b3\u03bf\u03c3\u03b1\u03c1\u03c9\u03bd\u03b9\u03ba\u03cc\u03c2 106.4
p807
ssS'613'
p808
(dp809
g4
V613
p810
sg6
VLa Radio
p811
ssS'610'
p812
(dp813
g375
S'http://www.streamyourdream.org/djlarisa'
p814
sg4
V610
p815
sg6
VLarissa Dee Jay 101.8
p816
ssS'611'
p817
(dp818
g4
V611
p819
sg6
VParanoise Radio
p820
ssS'616'
p821
(dp822
g375
S'http://109.169.26.78:9294'
p823
sg4
V616
p824
sg6
VMood Radio
p825
ssS'617'
p826
(dp827
g4
V617
p828
sg6
VSeek Fm
p829
ssS'614'
p830
(dp831
g375
S'http://radio.mythosfm.gr:8010'
p832
sg4
V614
p833
sg6
V\u039c\u03cd\u03b8\u03bf\u03c2 Fm 90.6
p834
ssS'149'
p835
(dp836
g375
S'mms://a1113.l3271935112.c32719.g.lm.akamaistream.net/D/1113/32719/v0001/reflector:35112'
p837
sg4
V149
p838
sg6
V\u0395\u03a1\u0391 \u03a3\u03c0\u03bf\u03c1 101.8
p839
ssS'510'
p840
(dp841
g375
S'http://shoutcast.24radio.gr:8062/'
p842
sg4
V510
p843
sg6
V\u03a1\u03ac\u03b4\u03b9\u03bf \u039a\u03b1\u03c3\u03c4\u03bf\u03c1\u03b9\u03ac 93 Fm
p844
ssS'513'
p845
(dp846
g375
S'http://188.40.131.14:8004'
p847
sg4
V513
p848
sg6
VSpace Fm 107
p849
ssS'946'
p850
(dp851
g4
V946
p852
sg6
VMadbox Radio
p853
ssS'515'
p854
(dp855
g375
S'http://eco.onestreaming.com:8168'
p856
sg4
V515
p857
sg6
VRadio In \u039b\u03b1\u03ca\u03ba\u03ac
p858
ssS'944'
p859
(dp860
g4
V944
p861
sg6
VEiva Radio
p862
ssS'945'
p863
(dp864
g4
V945
p865
sg6
VFly Fm
p866
ssS'943'
p867
(dp868
g4
V943
p869
sg6
VEnallax Radio
p870
ssS'940'
p871
(dp872
g4
V940
p873
sg6
VRadio Mostra
p874
ssS'941'
p875
(dp876
g375
S'http://live.onestreaming.com/aeolos'
p877
sg4
V941
p878
sg6
V\u03a1\u03ac\u03b4\u03b9\u03bf \u0391\u03af\u03bf\u03bb\u03bf\u03c2 92.8
p879
ssS'689'
p880
(dp881
g4
V689
p882
sg6
VStatus Radio.net
p883
ssS'1001'
p884
(dp885
g375
S'http://shout.streamwithq.gr:4104/'
p886
sg4
V1001
p887
sg6
VAntenna Fm12 94.4
p888
ssS'685'
p889
(dp890
g375
S'http://live.onestreaming.com/koziani'
p891
sg4
V685
p892
sg6
V\u03a1\u03ac\u03b4\u03b9\u03bf \u039a\u03bf\u03b6\u03b9\u03ac\u03bd\u03b7
p893
ssS'684'
p894
(dp895
g4
V684
p896
sg6
VDerti 104.9
p897
ssS'687'
p898
(dp899
g375
S'http://live.onestreaming.com/radioionia'
p900
sg4
V687
p901
sg6
V\u03a1\u03ac\u03b4\u03b9\u03bf \u0399\u03c9\u03bd\u03af\u03b1 95.2
p902
ssS'686'
p903
(dp904
g375
S'http://s1.onweb.gr:8852/'
p905
sg4
V686
p906
sg6
V\u039a\u03c1\u03b7\u03c4\u03b9\u03ba\u03cc\u03c2 Fm 88.7
p907
ssS'681'
p908
(dp909
g375
S'http://s2.onweb.gr:8602/'
p910
sg4
V681
p911
sg6
V\u039a\u03bb\u03af\u03ba Fm 106.2
p912
ssS'680'
p913
(dp914
g375
S'http://live.onestreaming.com/super88'
p915
sg4
V680
p916
sg6
VSuper Radio 88
p917
ssS'683'
p918
(dp919
g4
V683
p920
sg6
V\u03a3\u03b1\u03bd\u03c4\u03bf\u03c1\u03af\u03bd\u03b7 106.4
p921
ssS'682'
p922
(dp923
g4
V682
p924
sg6
VTi Amo Fm 102.7
p925
ssS'133'
p926
(dp927
g4
V133
p928
sg6
VLove Radio 100.7
p929
ssS'132'
p930
(dp931
g375
S'http://live.onestreaming.com/mixfm'
p932
sg4
V132
p933
sg6
VMix Fm 102.3
p934
ssS'131'
p935
(dp936
g4
V131
p937
sg6
VEnergy 107.6
p938
ssS'130'
p939
(dp940
g375
S'mms://live.istoikona.com/sferacy'
p941
sg4
V130
p942
sg6
VSfera 96.8
p943
ssS'498'
p944
(dp945
g375
S'http://www.streamyourdream.org/djvolos'
p946
sg4
V498
p947
sg6
VVolos Dee Jay 90.7
p948
ssS'136'
p949
(dp950
g4
V136
p951
sg6
VRadio Dee Jay 93.6
p952
ssS'135'
p953
(dp954
g4
V135
p955
sg6
VSuper Sport Fm 104
p956
ssS'134'
p957
(dp958
g375
S'http://golive.onestreaming.com/radioproto'
p959
sg4
V134
p960
sg6
V\u03a1\u03ac\u03b4\u03b9\u03bf \u03a0\u03c1\u03ce\u03c4\u03bf 99.3
p961
ssS'494'
p962
(dp963
g375
S'http://208.43.115.44:8070'
p964
sg4
V494
p965
sg6
V\u0397\u03c7\u03cc\u03c1\u03b1\u03bc\u03b1
p966
ssS'495'
p967
(dp968
g4
V495
p969
sg6
VBalloni Radio
p970
ssS'139'
p971
(dp972
g375
S'mms://live.istoikona.com/topfmcy'
p973
sg4
V139
p974
sg6
VTop Fm 99.9
p975
ssS'497'
p976
(dp977
g375
S'http://drs953.live24.gr/drs953'
p978
sg4
V497
p979
sg6
VDRS 95.3 Disco Radio
p980
ssS'490'
p981
(dp982
g4
V490
p983
sg6
V\u039a\u03b1\u03c3\u03c4\u03ad\u03bb\u03bb\u03b9\u03b1 Radio
p984
ssS'491'
p985
(dp986
g4
V491
p987
sg6
VTEI Radio Digital
p988
ssS'492'
p989
(dp990
g4
V492
p991
sg6
V\u0394\u03c5\u03c4\u03b9\u03ba\u03ac Fm 96.1
p992
ssS'493'
p993
(dp994
g375
S'http://s3.onweb.gr:8524/'
p995
sg4
V493
p996
sg6
VInternational Fm 107.5
p997
ssS'24'
p998
(dp999
g375
S'mms://galaxy.live24.gr/galaxy9292'
p1000
sg4
V24
p1001
sg6
VGalaxy 92
p1002
ssS'25'
p1003
(dp1004
g375
S'http://realfm.live24.gr/realfm'
p1005
sg4
V25
p1006
sg6
VReal Fm 97.8
p1007
ssS'26'
p1008
(dp1009
g375
S'http://village883.live24.gr/village883'
p1010
sg4
V26
p1011
sg6
VV Fm 88.3
p1012
ssS'27'
p1013
(dp1014
g375
S'mms://derti.live24.gr/derty1000'
p1015
sg4
V27
p1016
sg6
VDerti 98.6
p1017
ssS'20'
p1018
(dp1019
g375
S'http://91.132.6.21:8001'
p1020
sg4
V20
p1021
sg6
VAthens Dee Jay 95.2
p1022
ssS'21'
p1023
(dp1024
g4
V21
p1025
sg6
VRock Fm 96.9
p1026
ssS'22'
p1027
(dp1028
g375
S'mms://orange.live24.gr/orange9320'
p1029
sg4
V22
p1030
sg6
VHappy 93.2
p1031
ssS'23'
p1032
(dp1033
g375
S'mms://enleuko.live24.gr/enleuko877'
p1034
sg4
V23
p1035
sg6
V\u0395\u03bd \u039b\u03b5\u03c5\u03ba\u03ce 87.7
p1036
ssS'28'
p1037
(dp1038
g375
S'http://diesi.live24.gr/diesi1013'
p1039
sg4
V28
p1040
sg6
V\u0394\u03af\u03b5\u03c3\u03b7 101.3
p1041
ssS'29'
p1042
(dp1043
g375
S'mms://sportfm.live24.gr/sportfm7712'
p1044
sg4
V29
p1045
sg6
VNova Sport Fm 94.6
p1046
ssS'407'
p1047
(dp1048
g4
V407
p1049
sg6
V\u03a1\u03ac\u03b4\u03b9\u03bf \u03a7\u03b5\u03c1\u03c3\u03cc\u03bd\u03b7\u03c3\u03c3\u03bf\u03c2 97.2
p1050
ssS'406'
p1051
(dp1052
g4
V406
p1053
sg6
VMetro 89.2
p1054
ssS'405'
p1055
(dp1056
g375
S'http://s3.onweb.gr:8438/'
p1057
sg4
V405
p1058
sg6
VMax 92.5
p1059
ssS'404'
p1060
(dp1061
g4
V404
p1062
sg6
VLava Fm 107.7
p1063
ssS'403'
p1064
(dp1065
g4
V403
p1066
sg6
V\u039d\u03ad\u03bf \u03a1\u03b1\u03b4\u03b9\u03cc\u03c6\u03c9\u03bd\u03bf 102.3
p1067
ssS'402'
p1068
(dp1069
g375
S'http://eco.onestreaming.com:8237/live'
p1070
sg4
V402
p1071
sg6
VRadio 98.4
p1072
ssS'401'
p1073
(dp1074
g375
S'http://s4.onweb.gr:8484'
p1075
sg4
V401
p1076
sg6
V\u039d\u03cc\u03c4\u03bf\u03c2 101.8
p1077
ssS'400'
p1078
(dp1079
g4
V400
p1080
sg6
V\u03a1\u03ac\u03b4\u03b9\u03bf \u039c\u03b1\u03c1\u03c4\u03c5\u03c1\u03af\u03b1 95.5
p1081
ssS'933'
p1082
(dp1083
g375
S'http://shoutcast.24radio.gr:8042/'
p1084
sg4
V933
p1085
sg6
VSfera 91
p1086
ssS'932'
p1087
(dp1088
g375
S'http://www.ghostradio.gr/world-128'
p1089
sg4
V932
p1090
sg6
VGhost Radio
p1091
ssS'409'
p1092
(dp1093
g4
V409
p1094
sg6
V\u0389\u03c7\u03bf\u03c2 Fm 94.2
p1095
ssS'934'
p1096
(dp1097
g4
V934
p1098
sg6
VMusic Box Fm
p1099
ssS'379'
p1100
(dp1101
g4
V379
p1102
sg6
VSmooth Traxx
p1103
ssS'378'
p1104
(dp1105
g4
V378
p1106
sg6
V\u03a7\u03c1\u03b9\u03c3\u03c4\u03b9\u03b1\u03bd\u03b9\u03ba\u03ae \u0391\u03bb\u03ae\u03b8\u03b5\u03b9\u03b1 88.4
p1107
ssS'371'
p1108
(dp1109
g375
S'http://s1.onweb.gr:8008/'
p1110
sg4
V371
p1111
sg6
VAquarius 105.5
p1112
ssS'370'
p1113
(dp1114
g4
V370
p1115
sg6
V\u0395\u03bd\u03b1\u03bb\u03bb\u03ac\u03be Fm 99.9
p1116
ssS'373'
p1117
(dp1118
g375
S'mms://m2.onweb.gr/amorefm'
p1119
sg4
V373
p1120
sg6
VAmore Fm 107.9
p1121
ssS'372'
p1122
(dp1123
g375
S'http://s4.onweb.gr:8080'
p1124
sg4
V372
p1125
sg6
V\u03a1\u03ac\u03b4\u03b9\u03bf \u03a5\u03c0\u03ac\u03c1\u03c7\u03c9 103.7
p1126
ssS'375'
p1127
(dp1128
g375
S'mms://radiofeeds1.mediabox.gr/attradio'
p1129
sg4
V375
p1130
sg6
VAttradio
p1131
ssS'820'
p1132
(dp1133
g375
S'http://shoutcast.24radio.gr:8066/'
p1134
sg4
V820
p1135
sg6
VBee Radio
p1136
ssS'377'
p1137
(dp1138
g375
S'http://live.onestreaming.com/spyridon'
p1139
sg4
V377
p1140
sg6
V\u0386\u03b3\u03b9\u03bf\u03c2 \u03a3\u03c0\u03c5\u03c1\u03af\u03b4\u03c9\u03bd 91.1
p1141
ssS'376'
p1142
(dp1143
g4
V376
p1144
sg6
VIEK Delta Radio Alt.
p1145
ssS'709'
p1146
(dp1147
g4
V709
p1148
sg6
VEnergy Corfu 95.7
p1149
ssS'704'
p1150
(dp1151
g375
S'http://eco.onestreaming.com:8226'
p1152
sg4
V704
p1153
sg6
VTop Fm 96.9
p1154
ssS'705'
p1155
(dp1156
g4
V705
p1157
sg6
VStatus Radio 94.2
p1158
ssS'706'
p1159
(dp1160
g375
S'http://live.onestreaming.com/novamusic'
p1161
sg4
V706
p1162
sg6
VNova Radio 93.1
p1163
ssS'707'
p1164
(dp1165
g375
S'http://46.4.82.77:9998/'
p1166
sg4
V707
p1167
sg6
V\u03a7\u03c9\u03c1\u03af\u03c2 \u038c\u03c1\u03b9\u03b1
p1168
ssS'700'
p1169
(dp1170
g4
V700
p1171
sg6
VHello Radio
p1172
ssS'701'
p1173
(dp1174
g4
V701
p1175
sg6
VRadio Hxos Maik
p1176
ssS'702'
p1177
(dp1178
g375
S'http://relay4.mindradio.gr:80/live'
p1179
sg4
V702
p1180
sg6
VMind Radio
p1181
ssS'703'
p1182
(dp1183
g375
S'http://159.253.149.12:8094'
p1184
sg4
V703
p1185
sg6
VTropic Radio
p1186
ssS'393'
p1187
(dp1188
g375
S'http://s9.onweb.gr:8044/'
p1189
sg4
V393
p1190
sg6
VMad 95
p1191
ssS'392'
p1192
(dp1193
g375
S'http://s9.onweb.gr:8802'
p1194
sg4
V392
p1195
sg6
V\u03a1\u03ac\u03b4\u03b9\u03bf \u039b\u03b1\u03c3\u03ae\u03b8\u03b9 92.3
p1196
ssS'391'
p1197
(dp1198
g375
S'http://live.onestreaming.com/planetradio'
p1199
sg4
V391
p1200
sg6
VPlanet Radio 90.6
p1201
ssS'390'
p1202
(dp1203
g375
S'http://s4.onweb.gr:8466/'
p1204
sg4
V390
p1205
sg6
VRadio Melody 88
p1206
ssS'397'
p1207
(dp1208
g4
V397
p1209
sg6
V\u03a1\u03ac\u03b4\u03b9\u03bf \u039a\u03c1\u03ae\u03c4\u03b7 101.5
p1210
ssS'396'
p1211
(dp1212
g375
S'http://live.onestreaming.com/hxofm'
p1213
sg4
V396
p1214
sg6
V\u0397\u03c7\u03ce Fm 99.8
p1215
ssS'395'
p1216
(dp1217
g4
V395
p1218
sg6
V\u0394\u03af\u03b1\u03c5\u03bb\u03bf\u03c2 96.9
p1219
ssS'394'
p1220
(dp1221
g4
V394
p1222
sg6
VAtlantis Fm 105.2
p1223
ssS'82'
p1224
(dp1225
g375
S'http://imagine.1stepstream.com:8000/live'
p1226
sg4
V82
p1227
sg6
VImagine 89.7
p1228
ssS'83'
p1229
(dp1230
g4
V83
p1231
sg6
VVelvet 96.8
p1232
ssS'80'
p1233
(dp1234
g4
V80
p1235
sg6
VFm 100
p1236
ssS'398'
p1237
(dp1238
g4
V398
p1239
sg6
V\u039b\u03b1\u03c4\u03ce Fm 103.3
p1240
ssS'86'
p1241
(dp1242
g375
S'http://stream.greekradios.gr:4000'
p1243
sg4
V86
p1244
sg6
VRainbow 89
p1245
ssS'87'
p1246
(dp1247
g375
S'http://83.133.127.198:9096'
p1248
sg4
V87
p1249
sg6
VRock Radio 104.7
p1250
ssS'84'
p1251
(dp1252
g4
V84
p1253
sg6
V\u03a0\u03b1\u03bb\u03bc\u03cc\u03c2 96.5
p1254
ssS'85'
p1255
(dp1256
g4
V85
p1257
sg6
V\u038c\u03bb\u03b1 Fm 91.4
p1258
ssS'797'
p1259
(dp1260
g4
V797
p1261
sg6
VGiga Fm 105.4
p1262
ssS'794'
p1263
(dp1264
g4
V794
p1265
sg6
VRadio Mora
p1266
ssS'793'
p1267
(dp1268
g4
V793
p1269
sg6
V\u03a1\u03ac\u03b4\u03b9\u03bf \u0388\u03bd\u03c4\u03b5\u03c7\u03bd\u03bf\u03c2
p1270
ssS'791'
p1271
(dp1272
g375
S'http://shoutcast.24radio.gr:8056/'
p1273
sg4
V791
p1274
sg6
V\u03a1\u03ac\u03b4\u03b9\u03bf \u039c\u03ad\u03bb\u03b9 106
p1275
ssS'790'
p1276
(dp1277
g375
S'http://75.75.226.26:7099'
p1278
sg4
V790
p1279
sg6
VBlue Station
p1280
ssS'799'
p1281
(dp1282
g375
S'http://s8.onweb.gr:8706'
p1283
sg4
V799
p1284
sg6
VFresh 92.9
p1285
ssS'798'
p1286
(dp1287
g4
V798
p1288
sg6
VSchool Radio Ekali
p1289
ssS'170'
p1290
(dp1291
g4
V170
p1292
sg6
VDance Radio Deep House
p1293
ssS'586'
p1294
(dp1295
g375
S'http://ams02.egihosting.com/6020'
p1296
sg4
V586
p1297
sg6
VMelody 96.8
p1298
ssS'587'
p1299
(dp1300
g375
S'http://s6.onweb.gr:8046'
p1301
sg4
V587
p1302
sg6
VRadio Cafe 96.7
p1303
ssS'584'
p1304
(dp1305
g375
S'http://85.25.171.129:6000'
p1306
sg4
V584
p1307
sg6
V\u03a1\u03ac\u03b4\u03b9\u03bf \u0391\u03af\u03b3\u03b9\u03bf 99.2
p1308
ssS'585'
p1309
(dp1310
g4
V585
p1311
sg6
V\u03a1\u03ac\u03b4\u03b9\u03bf \u0395\u03bd\u03b7\u03bc\u03ad\u03c1\u03c9\u03c3\u03b7 92.2
p1312
ssS'582'
p1313
(dp1314
g375
S'http://78.46.46.214:7048'
p1315
sg4
V582
p1316
sg6
VMusic Art Club
p1317
ssS'583'
p1318
(dp1319
g4
V583
p1320
sg6
VAir 104.4
p1321
ssS'580'
p1322
(dp1323
g375
S'http://live.onestreaming.com/mixgrevena'
p1324
sg4
V580
p1325
sg6
VMix Fm 102.2
p1326
ssS'581'
p1327
(dp1328
g4
V581
p1329
sg6
VAntenna Star 105.9
p1330
ssS'588'
p1331
(dp1332
g375
S'http://s4.onweb.gr:8414'
p1333
sg4
V588
p1334
sg6
VMedia 92
p1335
ssS'589'
p1336
(dp1337
g375
S'http://s1.onweb.gr:8410/'
p1338
sg4
V589
p1339
sg6
VVenus Radio 99.3
p1340
ssS'245'
p1341
(dp1342
g4
V245
p1343
sg6
V\u039e\u03ac\u03bd\u03b8\u03b7 Dee Jay 90.6
p1344
ssS'244'
p1345
(dp1346
g375
S'http://s3.onweb.gr:8520'
p1347
sg4
V244
p1348
sg6
V\u03a1/\u03a3 \u0391\u03b3\u03b9\u03ac\u03c2 94.2
p1349
ssS'247'
p1350
(dp1351
g375
S'http://62.212.82.142:8033'
p1352
sg4
V247
p1353
sg6
VLive Fm 89.6
p1354
ssS'246'
p1355
(dp1356
g4
V246
p1357
sg6
V\u03a3\u03bf\u03ba Fm 104.8
p1358
ssS'241'
p1359
(dp1360
g4
V241
p1361
sg6
V\u0391\u03c1\u03b9\u03c3\u03c4\u03b5\u03c1\u03ac \u03a3\u03c4\u03b1 Fm 90.1
p1362
ssS'148'
p1363
(dp1364
g4
V148
p1365
sg6
V\u03a1\u03ac\u03b4\u03b9\u03bf \u03a0\u03ac\u03c6\u03bf\u03c2 93.7
p1366
ssS'243'
p1367
(dp1368
g375
S'http://eco.onestreaming.com:8103'
p1369
sg4
V243
p1370
sg6
V\u03a1/\u03a3 \u039a\u03b9\u03c3\u03c3\u03ac\u03b2\u03bf\u03c5 97.8
p1371
ssS'242'
p1372
(dp1373
g375
S'http://m1.onweb.gr/palace'
p1374
sg4
V242
p1375
sg6
VPalace 91.4
p1376
ssS'615'
p1377
(dp1378
g4
V615
p1379
sg6
VUp Fm 92.5
p1380
ssS'249'
p1381
(dp1382
g375
S'http://hotsoft.ws:8086/magicfm'
p1383
sg4
V249
p1384
sg6
VMagic Fm 98.2
p1385
ssS'248'
p1386
(dp1387
g4
V248
p1388
sg6
VKosmos Fm 100
p1389
ssS'519'
p1390
(dp1391
g375
S'http://188.40.131.14:8068/'
p1392
sg4
V519
p1393
sg6
VRadio Lepanto 101.4
p1394
ssS'518'
p1395
(dp1396
g4
V518
p1397
sg6
VStar Fm 90.9
p1398
ssS'511'
p1399
(dp1400
g4
V511
p1401
sg6
V\u03a7\u03af\u03bf\u03c2 Fm 97.8
p1402
ssS'1006'
p1403
(dp1404
g4
V1006
p1405
sg6
VMidnight Radio
p1406
ssS'1005'
p1407
(dp1408
g375
S'http://s2.onweb.gr:8654/'
p1409
sg4
V1005
p1410
sg6
VRadio1 Dance
p1411
ssS'512'
p1412
(dp1413
g4
V512
p1414
sg6
VDream On
p1415
ssS'1003'
p1416
(dp1417
g375
S'http://208.43.115.44:8138/'
p1418
sg4
V1003
p1419
sg6
VCannibal Radio
p1420
ssS'514'
p1421
(dp1422
g375
S'http://live.onestreaming.com/avanti'
p1423
sg4
V514
p1424
sg6
VAvanti Fm 98.3
p1425
ssS'517'
p1426
(dp1427
g4
V517
p1428
sg6
VRock Way
p1429
ssS'1000'
p1430
(dp1431
g375
S'http://shout.streamwithq.gr:4066/'
p1432
sg4
V1000
p1433
sg6
V\u0391\u03ba\u03c4\u03af\u03bd\u03b1 Radio 104.7
p1434
ssS'623'
p1435
(dp1436
g4
V623
p1437
sg6
VVeto Fm 91
p1438
ssS'622'
p1439
(dp1440
g375
S'http://radionostalgiagr.dyndns.org:2314/'
p1441
sg4
V622
p1442
sg6
V\u03a1\u03ac\u03b4\u03b9\u03bf \u039d\u03bf\u03c3\u03c4\u03b1\u03bb\u03b3\u03af\u03b1
p1443
ssS'621'
p1444
(dp1445
g375
S'mms://captainjack.live24.gr/captainjack9660'
p1446
sg4
V621
p1447
sg6
V\u0394\u03af\u03c6\u03c9\u03bd\u03bf 96.6
p1448
ssS'620'
p1449
(dp1450
g4
V620
p1451
sg6
V\u03a1/\u03a3 \u039c\u03b5\u03c3\u03bf\u03bb\u03bf\u03b3\u03b3\u03af\u03bf\u03c5 92
p1452
ssS'627'
p1453
(dp1454
g4
V627
p1455
sg6
VArtemis Fm 94.4
p1456
ssS'626'
p1457
(dp1458
g375
S'http://golive.onestreaming.com/musices'
p1459
sg4
V626
p1460
sg6
VMusicES Radio
p1461
ssS'624'
p1462
(dp1463
g4
V624
p1464
sg6
V\u039a\u03b1\u03bd\u03ac\u03bb\u03b9 1 90.4
p1465
ssS'593'
p1466
(dp1467
g219
S'http://78.46.46.214:7054'
p1468
sg4
V593
p1469
sg6
V\u03a1\u03ac\u03b4\u03b9\u03bf \u03a4\u03c1\u03b9\u03c6\u03c5\u03bb\u03af\u03b1\u03c2 101.3
p1470
ssS'179'
p1471
(dp1472
g375
S'http://s5.onweb.gr:8506/'
p1473
sg4
V179
p1474
sg6
VTraffic Fm 91.8
p1475
ssS'178'
p1476
(dp1477
g4
V178
p1478
sg6
VJust Radio 93
p1479
ssS'177'
p1480
(dp1481
g375
S'mms://kiss-fm-kard.live24.gr/kiss-fm-kard'
p1482
sg4
V177
p1483
sg6
VKiss 100.4
p1484
ssS'176'
p1485
(dp1486
g4
V176
p1487
sg6
VDiscomania
p1488
ssS'175'
p1489
(dp1490
g375
S'http://live.onestreaming.com/paradiseradio'
p1491
sg4
V175
p1492
sg6
VParadise 90.3
p1493
ssS'174'
p1494
(dp1495
g4
V174
p1496
sg6
VNoize Radio 93.5
p1497
ssS'173'
p1498
(dp1499
g375
S'http://s6.onweb.gr:8032'
p1500
sg4
V173
p1501
sg6
VKiss 96.1
p1502
ssS'172'
p1503
(dp1504
g375
S'http://eco.onestreaming.com:8068'
p1505
sg4
V172
p1506
sg6
VTop Fm
p1507
ssS'171'
p1508
(dp1509
g375
S'mms://live.onestreaming.com/radio996/'
p1510
sg4
V171
p1511
sg6
VRadio 99.6
p1512
ssS'198'
p1513
(dp1514
g4
V198
p1515
sg6
VHot Mix Fm 88
p1516
ssS'977'
p1517
(dp1518
g375
S'http://50.7.243.50:8062/'
p1519
sg4
V977
p1520
sg6
VLight Radio
p1521
ssS'183'
p1522
(dp1523
g4
V183
p1524
sg6
VNRG 89.5
p1525
ssS'654'
p1526
(dp1527
g4
V654
p1528
sg6
V\u0394\u03af\u03b1\u03c5\u03bb\u03bf\u03c2 91.1
p1529
ssS'182'
p1530
(dp1531
g4
V182
p1532
sg6
V\u03a1\u03ac\u03b4\u03b9\u03bf \u0388\u03bd\u03c4\u03b1\u03c3\u03b7 93.5
p1533
ssS'599'
p1534
(dp1535
g14
S'http://sportfmpatras.live24.gr/sportfmpatras'
p1536
sg4
V599
p1537
sg6
VSport Fm \u03a0\u03ac\u03c4\u03c1\u03b1\u03c2 96.3 
p1538
ssS'180'
p1539
(dp1540
g4
V180
p1541
sg6
VNRG 95
p1542
ssS'181'
p1543
(dp1544
g4
V181
p1545
sg6
VCapital 90.7
p1546
ssS'186'
p1547
(dp1548
g375
S'http://live.onestreaming.com/elladaradio'
p1549
sg4
V186
p1550
sg6
V\u0395\u03bb\u03bb\u03ac\u03b4\u03b1 Fm 96.7
p1551
ssS'653'
p1552
(dp1553
g4
V653
p1554
sg6
VBest Radio 101.1
p1555
ssS'184'
p1556
(dp1557
g4
V184
p1558
sg6
VMax 100.2
p1559
ssS'185'
p1560
(dp1561
g375
S'http://avantifm.live24.gr/avantifm'
p1562
sg4
V185
p1563
sg6
VAvanti 107.6
p1564
ssS'652'
p1565
(dp1566
g4
V652
p1567
sg6
V\u03a7\u03b1\u03bd\u03b9\u03ac Fm 33
p1568
ssS'188'
p1569
(dp1570
g4
V188
p1571
sg6
V\u03a1\u03ac\u03b4\u03b9\u03bf \u039c\u03b5\u03b8\u03cc\u03c1\u03b9\u03bf\u03c2 96
p1572
ssS'189'
p1573
(dp1574
g375
S'http://eco.onestreaming.com:8107/'
p1575
sg4
V189
p1576
sg6
V\u039a\u03b1\u03c3\u03c4\u03bf\u03c1\u03b9\u03ac Fm 91.5
p1577
ssS'658'
p1578
(dp1579
g375
S'http://radio.metalzone.gr/listen.php?type=asx'
p1580
sg4
V658
p1581
sg6
VMetal Zone
p1582
ssS'187'
p1583
(dp1584
g4
V187
p1585
sg6
V\u0395\u03bb\u03bb\u03ac\u03b4\u03b1 Fm 98.7
p1586
ssS'650'
p1587
(dp1588
g375
S'http://shoutcast.24radio.gr:8068'
p1589
sg4
V650
p1590
sg6
V\u0388\u03bd\u03c4\u03b5\u03c7\u03bd\u03bf\u03c2 Fm
p1591
ssS'651'
p1592
(dp1593
g4
V651
p1594
sg6
V\u03a1\u03ac\u03b4\u03b9\u03bf \u0395\u03c0\u03b9\u03bb\u03bf\u03b3\u03ad\u03c2 102.8
p1595
ssS'17'
p1596
(dp1597
g375
S'http://shoutcast.24radio.gr:8000'
p1598
sg4
V17
p1599
sg6
VHybrid Radio 94.9
p1600
ssS'19'
p1601
(dp1602
g375
S'mms://nordr.live24.gr/rythmos949ath'
p1603
sg4
V19
p1604
sg6
V\u03a1\u03c5\u03b8\u03bc\u03cc\u03c2 94.9
p1605
ssS'18'
p1606
(dp1607
g375
S'http://shoutcast.24radio.gr:8002'
p1608
sg4
V18
p1609
sg6
VRockStar
p1610
ssS'947'
p1611
(dp1612
g4
V947
p1613
sg6
VWild Radio
p1614
ssS'659'
p1615
(dp1616
g4
V659
p1617
sg6
V\u03a1\u03ac\u03b4\u03b9\u03bf \u03a7\u03b1\u03bb\u03ba\u03af\u03b4\u03b1 99.6
p1618
ssS'568'
p1619
(dp1620
g4
V568
p1621
sg6
V\u0391\u03b8\u03bb\u03b7\u03c4\u03b9\u03ba\u03ac \u039d\u03ad\u03b1 98.7
p1622
ssS'657'
p1623
(dp1624
g4
V657
p1625
sg6
VCity 93
p1626
ssS'809'
p1627
(dp1628
g375
S'http://66.90.104.41:8090'
p1629
sg4
V809
p1630
sg6
VAsteras Radio
p1631
ssS'322'
p1632
(dp1633
g375
S'http://shout.streamwithq.gr:4110/'
p1634
sg4
V322
p1635
sg6
VRadio Retro 105.4
p1636
ssS'323'
p1637
(dp1638
g375
S'http://live.onestreaming.com/radionetlamia'
p1639
sg4
V323
p1640
sg6
VRadio Net 101.9
p1641
ssS'320'
p1642
(dp1643
g375
S'http://hotsoft.ws:8086/mk?.wma'
p1644
sg4
V320
p1645
sg6
V\u039c\u03bf\u03c5\u03c3\u03b9\u03ba\u03cc \u039a\u03b1\u03bd\u03ac\u03bb\u03b9 101.3
p1646
ssS'808'
p1647
(dp1648
g375
S'mms://live.onestreaming.com/starfmdm'
p1649
sg4
V808
p1650
sg6
VStar Fm 93.3
p1651
ssS'326'
p1652
(dp1653
g4
V326
p1654
sg6
VSports \u0395\u03c0\u03b9\u03bb\u03bf\u03b3\u03ad\u03c2 105.5
p1655
ssS'324'
p1656
(dp1657
g375
S'mms://live.istoikona.com/topfm'
p1658
sg4
V324
p1659
sg6
VTop Fm 102.4
p1660
ssS'325'
p1661
(dp1662
g4
V325
p1663
sg6
VSport Fm \u039e\u03ac\u03bd\u03b8\u03b7 98.4
p1664
ssS'328'
p1665
(dp1666
g4
V328
p1667
sg6
VRadio 24
p1668
ssS'329'
p1669
(dp1670
g375
S'http://www.streamyourdream.org:8000/acroama'
p1671
sg4
V329
p1672
sg6
V\u0391\u03ba\u03c1\u03cc\u03b1\u03bc\u03b1 99.8
p1673
ssS'688'
p1674
(dp1675
g375
S'http://78.46.46.215:7056'
p1676
sg4
V688
p1677
sg6
VBaby Radio
p1678
ssS'775'
p1679
(dp1680
g375
S'http://streaming.hotmix-radio.net/hotmixradio-80-128.mp3'
p1681
sg4
V775
p1682
sg6
VYeah! Radio
p1683
ssS'774'
p1684
(dp1685
g4
V774
p1686
sg6
VMusicmania
p1687
ssS'203'
p1688
(dp1689
g375
S'http://stream.greekradios.gr:8050'
p1690
sg4
V203
p1691
sg6
V\u03a0\u03b1\u03bb\u03bc\u03cc\u03c2 99.5
p1692
ssS'202'
p1693
(dp1694
g375
S'http://s1.onweb.gr:8076/'
p1695
sg4
V202
p1696
sg6
VRadio1 88
p1697
ssS'771'
p1698
(dp1699
g375
S'http://streams.gr:8060/gafm'
p1700
sg4
V771
p1701
sg6
V\u0393\u03b1\u03bb\u03b1\u03be\u03af\u03b1\u03c2 Fm 92.1
p1702
ssS'204'
p1703
(dp1704
g4
V204
p1705
sg6
VHot Radio 99
p1706
ssS'773'
p1707
(dp1708
g4
V773
p1709
sg6
VAlpha 94.7
p1710
ssS'206'
p1711
(dp1712
g4
V206
p1713
sg6
VRodos Fm 90.7
p1714
ssS'209'
p1715
(dp1716
g4
V209
p1717
sg6
V\u03a1\u03ac\u03b4\u03b9\u03bf \u039b\u03b5\u03c5\u03ba\u03af\u03bc\u03bc\u03b7 105.5
p1718
ssS'208'
p1719
(dp1720
g4
V208
p1721
sg6
VPrisma Fm 91.8
p1722
ssS'779'
p1723
(dp1724
g4
V779
p1725
sg6
V\u03a1\u03c5\u03b8\u03bc\u03cc\u03c2 Fm 106
p1726
ssS'778'
p1727
(dp1728
g375
S'http://live.camstreams.com/misconfig.wmv'
p1729
sg4
V778
p1730
sg6
V\u03a3\u03c6\u03b7\u03bd\u03ac\u03ba\u03b9\u03b1 Fm 97.3
p1731
ssS'77'
p1732
(dp1733
g375
S'http://78.129.143.157:8000/heartfm'
p1734
sg4
V77
p1735
sg6
VHeart 93.1
p1736
ssS'76'
p1737
(dp1738
g4
V76
p1739
sg6
V\u039b\u03b1\u03ca\u03ba\u03cc\u03c2 87.6
p1740
ssS'75'
p1741
(dp1742
g4
V75
p1743
sg6
VRSO 91.7
p1744
ssS'74'
p1745
(dp1746
g4
V74
p1747
sg6
VMetropolis 95.5
p1748
ssS'73'
p1749
(dp1750
g375
S'http://178.32.72.194:8050/eroticos'
p1751
sg4
V73
p1752
sg6
V\u0395\u03c1\u03c9\u03c4\u03b9\u03ba\u03cc\u03c2 94.8
p1753
ssS'72'
p1754
(dp1755
g375
S'http://178.32.72.194:8060/rthes'
p1756
sg4
V72
p1757
sg6
V\u03a1\u03ac\u03b4\u03b9\u03bf \u0398\u03b5\u03c3\u03c3\u03b1\u03bb\u03bf\u03bd\u03af\u03ba\u03b7 94.5
p1758
ssS'71'
p1759
(dp1760
g375
S'http://eco.onestreaming.com:8083'
p1761
sg4
V71
p1762
sg6
VSunshine 107.7
p1763
ssS'70'
p1764
(dp1765
g375
S'http://eco.onestreaming.com:8081'
p1766
sg4
V70
p1767
sg6
VLibero 107.4
p1768
ssS'655'
p1769
(dp1770
g4
V655
p1771
sg6
VPowerMix Fm
p1772
ssS'79'
p1773
(dp1774
g375
S'http://golive.onestreaming.com/sport103'
p1775
sg4
V79
p1776
sg6
VSport 103 Fm
p1777
ssS'78'
p1778
(dp1779
g375
S'http://sc2.greekstream.net:4012'
p1780
sg4
V78
p1781
sg6
V\u0388\u03ba\u03c6\u03c1\u03b1\u03c3\u03b7 92.4
p1782
ssS'1040'
p1783
(dp1784
g375
S'http://s2.onweb.gr:8604/'
p1785
sg4
V1040
p1786
sg6
V\u03a7\u03b1\u03bd\u03b9\u03ac Fm 98.9
p1787
ssS'1048'
p1788
(dp1789
g375
S'http://85.17.177.77:8010'
p1790
sg4
V1048
p1791
sg6
VGo Radio
p1792
ssS'358'
p1793
(dp1794
g4
V358
p1795
sg6
V\u0394\u03c5\u03c4\u03b9\u03ba\u03cc\u03c2 103.7
p1796
ssS'669'
p1797
(dp1798
g4
V669
p1799
sg6
V\u039b\u03ac\u03bc\u03c8\u03b7 106.3
p1800
ssS'668'
p1801
(dp1802
g375
S'http://s6.onweb.gr:8018/'
p1803
sg4
V668
p1804
sg6
V\u03a1\u03ac\u03b4\u03b9\u03bf \u03a0\u03b9\u03b5\u03c1\u03af\u03b1 104.2
p1805
ssS'667'
p1806
(dp1807
g4
V667
p1808
sg6
VSafari 106.7
p1809
ssS'666'
p1810
(dp1811
g4
V666
p1812
sg6
VHit Fm 103.5
p1813
ssS'664'
p1814
(dp1815
g375
S'http://s5.onweb.gr:8488'
p1816
sg4
V664
p1817
sg6
VCavo Paradiso Radio
p1818
ssS'663'
p1819
(dp1820
g375
S'http://s2.onweb.gr:8648/'
p1821
sg4
V663
p1822
sg6
V\u03a1\u03ac\u03b4\u03b9\u03bf \u0391\u03c0\u03cc\u03bb\u03bb\u03c9\u03bd
p1823
ssS'662'
p1824
(dp1825
g4
V662
p1826
sg6
VElectrocaine Radio
p1827
ssS'661'
p1828
(dp1829
g375
S'http://s3.onweb.gr:8514'
p1830
sg4
V661
p1831
sg6
VMelody Fm 88.8
p1832
ssS'660'
p1833
(dp1834
g4
V660
p1835
sg6
VVenus 91.1
p1836
ssS'215'
p1837
(dp1838
g4
V215
p1839
sg6
V\u03a3\u03c4\u03af\u03b3\u03bc\u03b1 Radio 97.6
p1840
ssS'692'
p1841
(dp1842
g4
V692
p1843
sg6
VAlina Radio
p1844
ssS'693'
p1845
(dp1846
g4
V693
p1847
sg6
V\u039b\u03ac\u03bc\u03c8\u03b7 88.6
p1848
ssS'690'
p1849
(dp1850
g4
V690
p1851
sg6
VGap Radio
p1852
ssS'691'
p1853
(dp1854
g375
S'http://minorefm.live24.gr/minorefm'
p1855
sg4
V691
p1856
sg6
V\u039c\u03b9\u03bd\u03cc\u03c1\u03b5 Fm
p1857
ssS'696'
p1858
(dp1859
g375
S'http://108.60.201.114:8150'
p1860
sg4
V696
p1861
sg6
V\u0395\u03bb\u03bb\u03b7\u03bd\u03b9\u03ba\u03cc\u03c2 Fm
p1862
ssS'697'
p1863
(dp1864
g4
V697
p1865
sg6
VRadio Romeos Fm 94
p1866
ssS'694'
p1867
(dp1868
g4
V694
p1869
sg6
VDance Radio Progressive
p1870
ssS'695'
p1871
(dp1872
g375
S'http://s1.onweb.gr:8034/'
p1873
sg4
V695
p1874
sg6
V\u039c\u03bf\u03c5\u03c3\u03b9\u03ba\u03cc\u03c2 \u0393\u03b1\u03bb\u03b1\u03be\u03af\u03b1\u03c2 105.8
p1875
ssS'699'
p1876
(dp1877
g4
V699
p1878
sg6
VPlace Fm
p1879
ssS'543'
p1880
(dp1881
g4
V543
p1882
sg6
V\u03a1\u03ac\u03b4\u03b9\u03bf \u0391\u03ba\u03b1\u03c1\u03bd\u03b1\u03bd\u03af\u03b1 97.1
p1883
ssS'540'
p1884
(dp1885
g4
V540
p1886
sg6
VGalaxy Fm 106.1
p1887
ssS'541'
p1888
(dp1889
g375
S'http://shoutcast.24radio.gr:8014'
p1890
sg4
V541
p1891
sg6
VMaster Fm 90.2
p1892
ssS'546'
p1893
(dp1894
g4
V546
p1895
sg6
VSiesta Radio
p1896
ssS'547'
p1897
(dp1898
g375
S'http://shout.streamwithq.gr:4100/'
p1899
sg4
V547
p1900
sg6
V\u039a\u03c1\u03b7\u03c4\u03b9\u03ba\u03ae \u03a1\u03b1\u03b4\u03b9\u03bf\u03c6\u03c9\u03bd\u03af\u03b1 \u0391\u03c4\u03c4\u03b9\u03ba\u03ae\u03c2 91.4
p1901
ssS'544'
p1902
(dp1903
g375
S'http://78.46.46.215:7040/'
p1904
sg4
V544
p1905
sg6
V\u0395\u03c1\u03c9\u03b4\u03b9\u03cc\u03c2 \u039b\u03b1\u03b9\u03ba\u03cc\u03c2
p1906
ssS'545'
p1907
(dp1908
g375
S'http://147.102.85.34:8000'
p1909
sg4
V545
p1910
sg6
V98 Fm
p1911
ssS'548'
p1912
(dp1913
g4
V548
p1914
sg6
V\u03a1\u03ac\u03b4\u03b9\u03bf \u039a\u03c1\u03ae\u03c4\u03b5\u03c2
p1915
ssS'549'
p1916
(dp1917
g375
S'mms://live.istoikona.com/lgr'
p1918
sg4
V549
p1919
sg6
VLGR 103.3
p1920
ssS'994'
p1921
(dp1922
g375
S'http://109.169.26.190:8018'
p1923
sg4
V994
p1924
sg6
VGr8 Radio
p1925
ssS'990'
p1926
(dp1927
g4
V990
p1928
sg6
VPs Radio
p1929
ssS'993'
p1930
(dp1931
g375
S'http://shout.streamwithq.gr:4138/'
p1932
sg4
V993
p1933
sg6
V\u0391\u03bb\u03ae\u03b8\u03b5\u03b9\u03b1 Fm 96.3 
p1934
ssS'992'
p1935
(dp1936
g375
S'http://p8060.thewood.gr:9596/'
p1937
sg4
V992
p1938
sg6
VAthens One Fm
p1939
ssS'999'
p1940
(dp1941
g375
S'http://178.32.57.58:8557/'
p1942
sg4
V999
p1943
sg6
VDisco 80\u005c's Radio
p1944
ssS'998'
p1945
(dp1946
g375
S'http://shoutcast.24radio.gr:8022/'
p1947
sg4
V998
p1948
sg6
VDance Radio Cyprus
p1949
ssS'120'
p1950
(dp1951
g4
V120
p1952
sg6
V\u03a1\u03ac\u03b4\u03b9\u03bf \u0391\u03ba\u03c1\u03af\u03c4\u03b5\u03c2 102.3
p1953
ssS'121'
p1954
(dp1955
g375
S'http://eco.onestreaming.com:8150'
p1956
sg4
V121
p1957
sg6
VYou Fm 100.1
p1958
ssS'123'
p1959
(dp1960
g375
S'http://stream.kiss922.gr:59922/'
p1961
sg4
V123
p1962
sg6
VKiss 92.2
p1963
ssS'124'
p1964
(dp1965
g375
S'http://golive.onestreaming.com/thepopfm'
p1966
sg4
V124
p1967
sg6
VThe Pop Fm 98.6
p1968
ssS'125'
p1969
(dp1970
g375
S'http://live.onestreaming.com/radioactive'
p1971
sg4
V125
p1972
sg6
VRadio Active 91.3
p1973
ssS'126'
p1974
(dp1975
g375
S'http://live.onestreaming.com/anemosfm'
p1976
sg4
V126
p1977
sg6
V\u0386\u03bd\u03b5\u03bc\u03bf\u03c2 95.6
p1978
ssS'127'
p1979
(dp1980
g375
S'http://s4.onweb.gr:8428'
p1981
sg4
V127
p1982
sg6
V\u0391\u03c1\u03c7\u03b9\u03c0\u03ad\u03bb\u03b1\u03b3\u03bf\u03c2 87.6
p1983
ssS'128'
p1984
(dp1985
g4
V128
p1986
sg6
VLove Radio 88.2
p1987
ssS'129'
p1988
(dp1989
g375
S'mms://live.istoikona.com/super'
p1990
sg4
V129
p1991
sg6
VSuper Radio 104.7
p1992
ssS'214'
p1993
(dp1994
g4
V214
p1995
sg6
V\u03a1\u03ac\u03b4\u03b9\u03bf \u0395\u03c0\u03c4\u03ac\u03bd\u03b7\u03c3\u03b1 98.8
p1996
ssS'414'
p1997
(dp1998
g375
S'mms://194.219.230.1:3690'
p1999
sg4
V414
p2000
sg6
VMega Creta 103.1
p2001
ssS'415'
p2002
(dp2003
g4
V415
p2004
sg6
V\u0394\u03af\u03ba\u03c4\u03c5\u03bf 102.4
p2005
ssS'416'
p2006
(dp2007
g4
V416
p2008
sg6
VAqualand Radio 94.8
p2009
ssS'410'
p2010
(dp2011
g4
V410
p2012
sg6
V\u039a\u03bd\u03c9\u03c3\u03cc\u03c2 Fm 100.6
p2013
ssS'411'
p2014
(dp2015
g375
S'http://eco.onestreaming.com:8209'
p2016
sg4
V411
p2017
sg6
VCool Fm 106.8
p2018
ssS'412'
p2019
(dp2020
g375
S'http://live.onestreaming.com/lampsifmcrete'
p2021
sg4
V412
p2022
sg6
V\u039b\u03ac\u03bc\u03c8\u03b7 92.9
p2023
ssS'413'
p2024
(dp2025
g4
V413
p2026
sg6
VAlpha Radio 106.2
p2027
ssS'137'
p2028
(dp2029
g4
V137
p2030
sg6
V\u039a\u03bb\u03af\u03ba Fm 105.6
p2031
ssS'922'
p2032
(dp2033
g375
S'http://67.212.189.122:8151'
p2034
sg4
V922
p2035
sg6
V\u039c\u03ac\u03bd\u03b4\u03c1\u03b1 \u03a1\u03ac\u03b4\u03b9\u03bf
p2036
ssS'776'
p2037
(dp2038
g375
S'mms://a323.l6160932322.c61609.e.lm.akamaistream.net/D/323/61609/v0001/reflector:32322'
p2039
sg4
V776
p2040
sg6
V\u0396\u03bf\u03cd\u03b3\u03ba\u03bb\u03b1 Radio
p2041
ssS'319'
p2042
(dp2043
g4
V319
p2044
sg6
VStudio A 102.7
p2045
ssS'318'
p2046
(dp2047
g375
S'http://live.onestreaming.com/radioelassona'
p2048
sg4
V318
p2049
sg6
V\u03a1\u03ac\u03b4\u03b9\u03bf \u0395\u03bb\u03b1\u03c3\u03c3\u03cc\u03bd\u03b1 88.4
p2050
ssS'313'
p2051
(dp2052
g4
V313
p2053
sg6
V\u038c\u03bc\u03bf\u03c1\u03c6\u03b7 \u03a0\u03cc\u03bb\u03b7 89.9
p2054
ssS'312'
p2055
(dp2056
g375
S'http://s1.onweb.gr:8028/'
p2057
sg4
V312
p2058
sg6
V\u039a\u03cd\u03bc\u03b1 Fm 90.3
p2059
ssS'311'
p2060
(dp2061
g375
S'http://live.onestreaming.com/style100'
p2062
sg4
V311
p2063
sg6
VStyle 100
p2064
ssS'310'
p2065
(dp2066
g4
V310
p2067
sg6
V\u039b\u03cc\u03b3\u03bf\u03c2 Radio 101.1
p2068
ssS'317'
p2069
(dp2070
g4
V317
p2071
sg6
V\u03a1\u03ac\u03b4\u03b9\u03bf \u0389\u03c0\u03b5\u03b9\u03c1\u03bf\u03c2 94.5
p2072
ssS'316'
p2073
(dp2074
g4
V316
p2075
sg6
VCreta Planet 
p2076
ssS'315'
p2077
(dp2078
g375
S'http://live.onestreaming.com/elpar'
p2079
sg4
V315
p2080
sg6
V\u0395\u03bb\u03bb\u03b7\u03bd\u03b9\u03ba\u03cc \u03a0\u03b1\u03c1\u03b1\u03b4\u03bf\u03c3\u03b9\u03b1\u03ba\u03cc
p2081
ssS'314'
p2082
(dp2083
g4
V314
p2084
sg6
V\u0396\u03b9\u03b6\u03ac\u03bd\u03b9\u03bf 89.2
p2085
ssS'496'
p2086
(dp2087
g4
V496
p2088
sg6
V\u0395\u03bb\u03bb\u03b7\u03bd\u03bf\u03a1\u03ac\u03b4\u03b9\u03bf
p2089
ssS'138'
p2090
(dp2091
g375
S'mms://radio.istoikona.com/zenith'
p2092
sg4
V138
p2093
sg6
VZenith Radio 96.4
p2094
ssS'368'
p2095
(dp2096
g375
S'mms://broadcast.hol.gr/IonionFMU'
p2097
sg4
V368
p2098
sg6
V\u0399\u03cc\u03bd\u03b9\u03bf\u03bd Fm \u0397\u03bb\u03b5\u03af\u03b1\u03c2 95.5
p2099
ssS'369'
p2100
(dp2101
g375
S'http://shoutcast.24radio.gr:8044/'
p2102
sg4
V369
p2103
sg6
VRSA 91.1
p2104
ssS'366'
p2105
(dp2106
g375
S'http://46.4.65.194:8021'
p2107
sg4
V366
p2108
sg6
VVox 103.3
p2109
ssS'367'
p2110
(dp2111
g4
V367
p2112
sg6
VOrt Fm 92.3
p2113
ssS'364'
p2114
(dp2115
g375
S'http://s6.onweb.gr:8034'
p2116
sg4
V364
p2117
sg6
V\u03a1\u03ac\u03b4\u03b9\u03bf \u039c\u03bf\u03af\u03c1\u03b5\u03c2 97.1
p2118
ssS'365'
p2119
(dp2120
g375
S'http://s5.onweb.gr:8418'
p2121
sg4
V365
p2122
sg6
V\u03a3\u03bf\u03c7\u03cc\u03c2 Fm 88.7
p2123
ssS'362'
p2124
(dp2125
g375
S'http://s3.onweb.gr:8500'
p2126
sg4
V362
p2127
sg6
V\u0391\u03c1\u03bc\u03bf\u03bd\u03af\u03b1 Fm 103.2
p2128
ssS'363'
p2129
(dp2130
g375
S'http://s3.onweb.gr:8438'
p2131
sg4
V363
p2132
sg6
V\u039b\u03ad\u03c3\u03c7\u03b7 97.6
p2133
ssS'360'
p2134
(dp2135
g375
S'http://s1.onweb.gr:8098/'
p2136
sg4
V360
p2137
sg6
V\u03a0\u03ac\u03c1\u03bf\u03c2 Fm 98.5
p2138
ssS'361'
p2139
(dp2140
g375
S'http://s1.onweb.gr:8066'
p2141
sg4
V361
p2142
sg6
V\u0391\u03ba\u03c1\u03cc\u03b1\u03bc\u03b1 94.6
p2143
ssS'952'
p2144
(dp2145
g4
V952
p2146
sg6
VSunshine Radio
p2147
ssS'380'
p2148
(dp2149
g4
V380
p2150
sg6
V\u0397\u03c7\u03ce Fm 102.1
p2151
ssS'381'
p2152
(dp2153
g4
V381
p2154
sg6
VRadio Point
p2155
ssS'382'
p2156
(dp2157
g4
V382
p2158
sg6
VBassline Chill Out
p2159
ssS'383'
p2160
(dp2161
g4
V383
p2162
sg6
VBassline Progressive Trance
p2163
ssS'384'
p2164
(dp2165
g4
V384
p2166
sg6
VUnderground Radio 100.3
p2167
ssS'385'
p2168
(dp2169
g4
V385
p2170
sg6
VDream Fm 103.5
p2171
ssS'386'
p2172
(dp2173
g4
V386
p2174
sg6
VParadise Radio 104.6
p2175
ssS'387'
p2176
(dp2177
g4
V387
p2178
sg6
VLips Radio
p2179
ssS'388'
p2180
(dp2181
g375
S'http://s6.onweb.gr:8036/'
p2182
sg4
V388
p2183
sg6
V\u039a\u03ad\u03bd\u03c4\u03c1\u03bf \u039a\u03b1\u03c1\u03b4\u03b9\u03ac\u03c2 95
p2184
ssS'389'
p2185
(dp2186
g4
V389
p2187
sg6
VClub Fm 93.7
p2188
ssS'784'
p2189
(dp2190
g375
S'http://shout.streamwithq.gr:4064/'
p2191
sg4
V784
p2192
sg6
V\u0393\u03ac\u03c5\u03b4\u03bf\u03c2 Fm 88.8
p2193
ssS'785'
p2194
(dp2195
g4
V785
p2196
sg6
VEnjoy Radio 105.7
p2197
ssS'786'
p2198
(dp2199
g4
V786
p2200
sg6
VAthens Fm
p2201
ssS'780'
p2202
(dp2203
g375
S'http://s6.onweb.gr:8002/'
p2204
sg4
V780
p2205
sg6
VLegend Fm 101.6
p2206
ssS'781'
p2207
(dp2208
g4
V781
p2209
sg6
VKing Fm 107.8
p2210
ssS'782'
p2211
(dp2212
g4
V782
p2213
sg6
VRockha Radio
p2214
ssS'788'
p2215
(dp2216
g375
S'http://83.170.89.19:9868'
p2217
sg4
V788
p2218
sg6
VGod Radio
p2219
ssS'789'
p2220
(dp2221
g4
V789
p2222
sg6
VMagic Fm 100
p2223
ssS'579'
p2224
(dp2225
g375
S'http://live.onestreaming.com/ant1cy'
p2226
sg4
V579
p2227
sg6
VAnt1 Fm 102.7
p2228
ssS'578'
p2229
(dp2230
g4
V578
p2231
sg6
VStatus Radio
p2232
ssS'604'
p2233
(dp2234
g375
S'http://shoutcast.24radio.gr:8006'
p2235
sg4
V604
p2236
sg6
VKiss 101.3
p2237
ssS'573'
p2238
(dp2239
g375
S'http://s3.onweb.gr:8474'
p2240
sg4
V573
p2241
sg6
VStudio A 1000
p2242
ssS'572'
p2243
(dp2244
g4
V572
p2245
sg6
VDeep Breath
p2246
ssS'571'
p2247
(dp2248
g4
V571
p2249
sg6
VStudio 306
p2250
ssS'570'
p2251
(dp2252
g375
S'http://208.43.115.44:8262/'
p2253
sg4
V570
p2254
sg6
VMr Soul Radio
p2255
ssS'577'
p2256
(dp2257
g4
V577
p2258
sg6
VPing Pong Radio
p2259
ssS'576'
p2260
(dp2261
g4
V576
p2262
sg6
V\u039c\u03b5\u03bb\u03c9\u03b4\u03b9\u03ba\u03cc\u03c2
p2263
ssS'575'
p2264
(dp2265
g4
V575
p2266
sg6
VR06
p2267
ssS'574'
p2268
(dp2269
g4
V574
p2270
sg6
VWasteland 
p2271
ssS'60'
p2272
(dp2273
g375
S'http://shoutcast.24radio.gr:8074'
p2274
sg4
V60
p2275
sg6
VRadio 98.2
p2276
ssS'61'
p2277
(dp2278
g375
S'http://shout.streamwithq.gr:4044/'
p2279
sg4
V61
p2280
sg6
VFly 95.9
p2281
ssS'258'
p2282
(dp2283
g4
V258
p2284
sg6
V\u0391\u03bd\u03b1\u03c4\u03bf\u03bb\u03b9\u03ba\u03cc\u03c2 Fm 95.8
p2285
ssS'259'
p2286
(dp2287
g375
S'http://174.36.237.66:8220/'
p2288
sg4
V259
p2289
sg6
V\u03a1\u03c5\u03b8\u03bc\u03cc\u03c2 Fm 103.8
p2290
ssS'64'
p2291
(dp2292
g375
S'mms://radiofeeds1.mediabox.gr/kentrofm'
p2293
sg4
V64
p2294
sg6
V\u039a\u03ad\u03bd\u03c4\u03c1\u03bf Fm 98.2
p2295
ssS'66'
p2296
(dp2297
g375
S'http://streamx2.greekradios.gr:8000'
p2298
sg4
V66
p2299
sg6
VRepublic 100.3
p2300
ssS'67'
p2301
(dp2302
g375
S'http://radio.onweb.gr:8078/'
p2303
sg4
V67
p2304
sg6
VRock 105.5
p2305
ssS'252'
p2306
(dp2307
g375
S'http://62.1.195.86:2281'
p2308
sg4
V252
p2309
sg6
V\u03a7\u03b9\u03b1\u03ba\u03ae \u03a6\u03c9\u03bd\u03ae 90
p2310
ssS'69'
p2311
(dp2312
g4
V69
p2313
sg6
VAnt1 97.5
p2314
ssS'250'
p2315
(dp2316
g375
S'http://s3.onweb.gr:8032'
p2317
sg4
V250
p2318
sg6
VD-Code 96.2
p2319
ssS'251'
p2320
(dp2321
g375
S'http://s1.onweb.gr:8040'
p2322
sg4
V251
p2323
sg6
V\u03a1\u03ac\u03b4\u03b9\u03bf \u03a1\u03b9\u03b6\u03af\u03c4\u03b5\u03c2 92.4
p2324
ssS'256'
p2325
(dp2326
g375
S'http://shoutcast.24radio.gr:8064/'
p2327
sg4
V256
p2328
sg6
VCool Fm 90.7
p2329
ssS'257'
p2330
(dp2331
g375
S'http://s6.onweb.gr:8026'
p2332
sg4
V257
p2333
sg6
VOrange Radio 91.1
p2334
ssS'254'
p2335
(dp2336
g375
S'http://live.onestreaming.com/aegeanant1'
p2337
sg4
V254
p2338
sg6
VAnt1 \u0391\u03b9\u03b3\u03b1\u03af\u03bf\u03c5 105
p2339
ssS'255'
p2340
(dp2341
g4
V255
p2342
sg6
V\u03a1\u03ac\u03b4\u03b9\u03bf \u0386\u03bb\u03c6\u03b1 96
p2343
ssS'603'
p2344
(dp2345
g4
V603
p2346
sg6
V\u03a3\u03c5\u03bd \u0388\u03bd\u03b1 Radio 95.8
p2347
ssS'156'
p2348
(dp2349
g375
S'mms://a1933.l3271921932.c32719.g.lm.akamaistream.net/D/1933/32719/v0001/reflector:21932'
p2350
sg4
V156
p2351
sg6
V\u03a4\u03c1\u03af\u03c4\u03bf \u03a0\u03c1\u03cc\u03b3\u03c1\u03b1\u03bc\u03bc\u03b1 \u0392\u03c1\u03b1\u03c7\u03ad\u03b1
p2352
ssS'730'
p2353
(dp2354
g4
V730
p2355
sg6
V96.5 Fm
p2356
ssS'732'
p2357
(dp2358
g4
V732
p2359
sg6
VOriginal Radio 94.4
p2360
ssS'735'
p2361
(dp2362
g4
V735
p2363
sg6
VClubs Radio
p2364
ssS'734'
p2365
(dp2366
S'url'
p2367
S'http://shoutcast.24radio.gr:8072'
p2368
sS'id'
p2369
V734
p2370
sS'title'
p2371
V34o River Party (Live)
p2372
ssS'737'
p2373
(dp2374
g375
S'http://72.55.146.84:8020/'
p2375
sg4
V737
p2376
sg6
VSiera Fm 105.3
p2377
ssS'736'
p2378
(dp2379
g219
S'http://78.129.143.157:8000/arisfm'
p2380
sg4
V736
p2381
sg6
V\u0384\u0391\u03c1\u03b7\u03c2 Fm 92.8
p2382
ssS'739'
p2383
(dp2384
g375
S'http://s3.onweb.gr:8532/'
p2385
sg4
V739
p2386
sg6
V\u0393\u03bb\u03ad\u03bd\u03c4\u03b9 Fm 101.1
p2387
ssS'507'
p2388
(dp2389
g4
V507
p2390
sg6
V\u03a7\u03ce\u03c1\u03bf\u03c2 94.2
p2391
ssS'1030'
p2392
(dp2393
g375
S'mms://a1235.l4434955234.c44349.g.lm.akamaistream.net/D/1235/44349/v0001/reflector:55234'
p2394
sg4
V1030
p2395
sg6
VPlay 88.9
p2396
ssS'505'
p2397
(dp2398
g375
S'http://91.121.143.17:8000/'
p2399
sg4
V505
p2400
sg6
V1Mix Radio
p2401
ssS'502'
p2402
(dp2403
g4
V502
p2404
sg6
VBest Radio 94.7
p2405
ssS'1037'
p2406
(dp2407
g375
S'http://62.212.82.142:8012/'
p2408
sg4
V1037
p2409
sg6
VSferikos 99.3
p2410
ssS'500'
p2411
(dp2412
g375
S'http://shoutcast.24radio.gr:8086/'
p2413
sg4
V500
p2414
sg6
V\u039d\u03b9\u03ba\u03bf\u03bb\u03ac\u03bf\u03c5 Radio
p2415
ssS'501'
p2416
(dp2417
g375
S'http://live.onestreaming.com/mesogios'
p2418
sg4
V501
p2419
sg6
V\u039c\u03b5\u03c3\u03cc\u03b3\u03b5\u03b9\u03bf\u03c2 Fm 105.4
p2420
ssS'631'
p2421
(dp2422
g375
S'http://216.66.84.2:9108'
p2423
sg4
V631
p2424
sg6
VHeat Radio 88.3
p2425
ssS'633'
p2426
(dp2427
g4
V633
p2428
sg6
V69 Music 
p2429
ssS'634'
p2430
(dp2431
g375
S'http://eco.onestreaming.com:8077'
p2432
sg4
V634
p2433
sg6
VMaroni Radio
p2434
ssS'635'
p2435
(dp2436
g4
V635
p2437
sg6
VDalkas 88.2
p2438
ssS'636'
p2439
(dp2440
g4
V636
p2441
sg6
V1\u03bf \u03a0\u03c1\u03cc\u03b3\u03c1\u03b1\u03bc\u03bc\u03b1 \u03a7\u03af\u03bf\u03c5
p2442
ssS'637'
p2443
(dp2444
g4
V637
p2445
sg6
VStudio 54
p2446
ssS'465'
p2447
(dp2448
g4
V465
p2449
sg6
VFlash 94.5
p2450
ssS'639'
p2451
(dp2452
g375
S'http://81.171.50.130:9124'
p2453
sg4
V639
p2454
sg6
VHellas Web Radio
p2455
ssS'467'
p2456
(dp2457
g375
S'http://178.33.248.236:8006'
p2458
sg4
V467
p2459
sg6
VFun Radio
p2460
ssS'461'
p2461
(dp2462
g4
V461
p2463
sg6
VOff Radio
p2464
ssS'460'
p2465
(dp2466
g375
S'http://sentrafm.live24.gr/sentrafm'
p2467
sg4
V460
p2468
sg6
VSentra Fm 103.3
p2469
ssS'463'
p2470
(dp2471
g375
S'http://shoutcast.24radio.gr:8046/'
p2472
sg4
V463
p2473
sg6
VViva Fm 95.3
p2474
ssS'462'
p2475
(dp2476
g4
V462
p2477
sg6
V\u039c\u03b5\u03bb\u03c9\u03b4\u03b9\u03ba\u03cc\u03c2 105.7
p2478
ssS'901'
p2479
(dp2480
g375
S'http://s3.onweb.gr:8808'
p2481
sg4
V901
p2482
sg6
V\u03a1\u03b1\u03b4\u03b9\u03bf\u03ba\u03c1\u03ae\u03c4\u03b5\u03c2
p2483
ssS'168'
p2484
(dp2485
g375
S'http://s1.onweb.gr:8854'
p2486
sg4
V168
p2487
sg6
VPower 100.2
p2488
ssS'169'
p2489
(dp2490
g375
S'http://s1.onweb.gr:8068'
p2491
sg4
V169
p2492
sg6
VSuper 90.4
p2493
ssS'164'
p2494
(dp2495
g4
V164
p2496
sg6
VClub Radio
p2497
ssS'165'
p2498
(dp2499
g4
V165
p2500
sg6
VRadio Dee Jay 94.2
p2501
ssS'166'
p2502
(dp2503
g375
S'http://live.onestreaming.com/mousikokanali'
p2504
sg4
V166
p2505
sg6
V\u039c\u03bf\u03c5\u03c3\u03b9\u03ba\u03cc \u039a\u03b1\u03bd\u03ac\u03bb\u03b9 105.1
p2506
ssS'167'
p2507
(dp2508
g4
V167
p2509
sg6
VMRB Radio 101
p2510
ssS'160'
p2511
(dp2512
g4
V160
p2513
sg6
VUplifted
p2514
ssS'161'
p2515
(dp2516
g375
S'mms://golive.onestreaming.com/ydrogeios'
p2517
sg4
V161
p2518
sg6
V\u03a5\u03b4\u03c1\u03cc\u03b3\u03b5\u03b9\u03bf\u03c2 106.9
p2519
ssS'162'
p2520
(dp2521
g375
S'http://s3.onweb.gr:8808/'
p2522
sg4
V162
p2523
sg6
VVenus Fm 105.1
p2524
ssS'163'
p2525
(dp2526
g375
S'http://ice.motionfm.com:80/motionone_free'
p2527
sg4
V163
p2528
sg6
VHouse Motion Fm
p2529
ssS'963'
p2530
(dp2531
g4
V963
p2532
sg6
VBrake Fm 101.6
p2533
ssS'969'
p2534
(dp2535
g375
S'http://shout.streamwithq.gr:4042/'
p2536
sg4
V969
p2537
sg6
VRockarolla Radio
p2538
ssS'1103'
p2539
(dp2540
g4
V1103
p2541
sg6
VBeautyWar
p2542
ssS'408'
p2543
(dp2544
g375
S'http://s8.onweb.gr:8702'
p2545
sg4
V408
p2546
sg6
V\u03a1\u03b1\u03b4\u03b9\u03bf\u03ba\u03cd\u03bc\u03b1\u03c4\u03b1 102.6
p2547
ssS'600'
p2548
(dp2549
g375
S'http://stream.xromafm.gr:59102/'
p2550
sg4
V600
p2551
sg6
V\u03a7\u03c1\u03ce\u03bc\u03b1 Fm 102.1
p2552
ssS'890'
p2553
(dp2554
g375
S'http://golive.onestreaming.com/akousgazi'
p2555
sg4
V890
p2556
sg6
VAkous Gazi
p2557
ssS'891'
p2558
(dp2559
g4
V891
p2560
sg6
VAkous Terra
p2561
ssS'892'
p2562
(dp2563
g375
S'http://golive.onestreaming.com/akousdeluxe'
p2564
sg4
V892
p2565
sg6
VAkous Deluxe
p2566
ssS'893'
p2567
(dp2568
g375
S'http://golive.onestreaming.com/akousstage'
p2569
sg4
V893
p2570
sg6
VAkous Stage
p2571
ssS'894'
p2572
(dp2573
g375
S'http://eco.onestreaming.com:8189/'
p2574
sg4
V894
p2575
sg6
V\u03a1\u03c5\u03b8\u03bc\u03cc\u03c2 988
p2576
ssS'895'
p2577
(dp2578
g375
S'http://188.40.95.16:7100/'
p2579
sg4
V895
p2580
sg6
VMusic Fm
p2581
ssS'896'
p2582
(dp2583
g4
V896
p2584
sg6
V\u03a1\u03ac\u03b4\u03b9\u03bf \u039b\u03ae\u03bc\u03bd\u03bf\u03c2
p2585
ssS'436'
p2586
(dp2587
g4
V436
p2588
sg6
VRadio Air
p2589
ssS'357'
p2590
(dp2591
g375
S'http://s1.onweb.gr:8420'
p2592
sg4
V357
p2593
sg6
V\u0396\u03c5\u03b3\u03cc\u03c2 Fm 100
p2594
ssS'356'
p2595
(dp2596
g4
V356
p2597
sg6
V\u03a1\u03b1\u03b4\u03b9\u03cc\u03c6\u03c9\u03bd\u03bf \u0392\u03cc\u03bb\u03bf\u03c2 104.6
p2598
ssS'355'
p2599
(dp2600
g4
V355
p2601
sg6
VLove Radio 105.5
p2602
ssS'354'
p2603
(dp2604
g375
S'http://s1.onweb.gr:8838'
p2605
sg4
V354
p2606
sg6
VMaximum 93.6
p2607
ssS'353'
p2608
(dp2609
g375
S'http://rs2.radiostreamer.com/radioalfa'
p2610
sg4
V353
p2611
sg6
V\u0386\u03bb\u03c6\u03b1 104
p2612
ssS'352'
p2613
(dp2614
g375
S'http://live.onestreaming.com/polis'
p2615
sg4
V352
p2616
sg6
VPolis 102.6
p2617
ssS'351'
p2618
(dp2619
g375
S'http://shout.streamwithq.gr:4052/'
p2620
sg4
V351
p2621
sg6
V\u0395\u03bb\u03bb\u03b7\u03bd\u03b9\u03ba\u03cc\u03c2 88.9
p2622
ssS'350'
p2623
(dp2624
g375
S'http://plaisioradio.live24.gr/plaisioradio'
p2625
sg4
V350
p2626
sg6
VPlaisio Radio
p2627
ssS'803'
p2628
(dp2629
g375
S'http://shoutcast.24radio.gr:8058/'
p2630
sg4
V803
p2631
sg6
VSfera 989
p2632
ssS'802'
p2633
(dp2634
g4
V802
p2635
sg6
VNRJ Radio 98
p2636
ssS'801'
p2637
(dp2638
g375
S'mms://starradio.no-ip.biz:2380'
p2639
sg4
V801
p2640
sg6
VStar Fm 106.7
p2641
ssS'800'
p2642
(dp2643
g4
V800
p2644
sg6
VRadio 6 95.4
p2645
ssS'807'
p2646
(dp2647
g375
S'http://eco.onestreaming.com:8148/'
p2648
sg4
V807
p2649
sg6
VYes! 91.2
p2650
ssS'806'
p2651
(dp2652
g375
S'http://shoutcast.24radio.gr:8018/'
p2653
sg4
V806
p2654
sg6
VWest Radio
p2655
ssS'359'
p2656
(dp2657
g375
S'http://live.onestreaming.com/kanali3'
p2658
sg4
V359
p2659
sg6
V\u039a\u03b1\u03bd\u03ac\u03bb\u03b9 3 104
p2660
ssS'804'
p2661
(dp2662
g4
V804
p2663
sg6
VNikos Radio
p2664
ssS'216'
p2665
(dp2666
g375
S'http://live.onestreaming.com/rythmos943'
p2667
sg4
V216
p2668
sg6
V\u03a1\u03cd\u03b8\u03bc\u03bf\u03c2 94.3
p2669
ssS'217'
p2670
(dp2671
g4
V217
p2672
sg6
VAthletic Radio 104.2
p2673
ssS'768'
p2674
(dp2675
g4
V768
p2676
sg6
V\u0399\u03cc\u03bd\u03b9\u03bf\u03bd Fm \u03a0\u03ac\u03c4\u03c1\u03b1\u03c2 95.7
p2677
ssS'769'
p2678
(dp2679
g4
V769
p2680
sg6
VTop Fm 105
p2681
ssS'213'
p2682
(dp2683
g375
S'http://s1.onweb.gr:8836'
p2684
sg4
V213
p2685
sg6
VLife Radio 102.9
p2686
ssS'210'
p2687
(dp2688
g375
S'http://s1.onweb.gr:8422'
p2689
sg4
V210
p2690
sg6
VPop Fm 102.1
p2691
ssS'211'
p2692
(dp2693
g375
S'http://s1.onweb.gr:8800/'
p2694
sg4
V211
p2695
sg6
VStar 88.8
p2696
ssS'762'
p2697
(dp2698
g4
V762
p2699
sg6
VFasma Fm 99.7
p2700
ssS'42'
p2701
(dp2702
g4
V42
p2703
sg6
V\u0391\u03b8\u03ae\u03bd\u03b1 9.84
p2704
ssS'760'
p2705
(dp2706
g4
V760
p2707
sg6
VSportive Radio
p2708
ssS'761'
p2709
(dp2710
g375
S'http://64.111.18.90:8005/'
p2711
sg4
V761
p2712
sg6
Vskglobe.net
p2713
ssS'766'
p2714
(dp2715
g375
S'http://208.43.115.44:9846/'
p2716
sg4
V766
p2717
sg6
V\u03a1\u03ac\u03b4\u03b9\u03bf \u0395\u03cd\u03b2\u03bf\u03b9\u03b1 104.1
p2718
ssS'764'
p2719
(dp2720
g375
S'http://live.e-streaming.eu:8110/'
p2721
sg4
V764
p2722
sg6
V\u0391\u03ba\u03c4\u03af\u03bd\u03b1 Radio 95
p2723
ssS'219'
p2724
(dp2725
g375
S'http://freeradio.live24.gr/freeradio-1000'
p2726
sg4
V219
p2727
sg6
VFree Radio  98
p2728
ssS'957'
p2729
(dp2730
g4
V957
p2731
sg6
V\u039d\u03b1\u03c5\u03ac\u03b3\u03b9\u03b1
p2732
ssS'1033'
p2733
(dp2734
g375
S'http://72.233.114.175:8020/'
p2735
sg4
V1033
p2736
sg6
VPowershots!
p2737
ssS'1072'
p2738
(dp2739
g375
S'http://109.169.26.190:8048'
p2740
sg4
V1072
p2741
sg6
VGr8 Radio Greek
p2742
ssS'1073'
p2743
(dp2744
g375
S'http://shoutcast.24radio.gr:8070'
p2745
sg4
V1073
p2746
sg6
V\u0394\u03b7\u03bc\u03bf\u03c4\u03b9\u03ba\u03ae \u0391\u03bd\u03b8\u03bf\u03bb\u03bf\u03b3\u03af\u03b1 88.8
p2747
ssS'289'
p2748
(dp2749
g375
S'http://ice.motionfm.com:80/motionthree_free'
p2750
sg4
V289
p2751
sg6
VLounge Motion Fm
p2752
ssS'288'
p2753
(dp2754
g375
S'http://s1.onweb.gr:8056'
p2755
sg4
V288
p2756
sg6
VStar Fm 94.1
p2757
ssS'321'
p2758
(dp2759
g4
V321
p2760
sg6
V\u03a1\u03b1\u03b4/\u03bd\u03af\u03b1 \u039a\u03bf\u03b6\u03ac\u03bd\u03b7\u03c2 102.3
p2761
ssS'281'
p2762
(dp2763
g375
S'http://s1.onweb.gr:8096'
p2764
sg4
V281
p2765
sg6
V\u03a1\u03ac\u03b4\u03b9\u03bf \u039a\u03c5\u03c0\u03b1\u03c1\u03b9\u03c3\u03c3\u03af\u03b1 93.6
p2766
ssS'280'
p2767
(dp2768
g4
V280
p2769
sg6
V\u0397\u03bb\u03ad\u03ba\u03c4\u03c1\u03b1 98.8
p2770
ssS'283'
p2771
(dp2772
g375
S'http://broadcast.hol.gr/kanali20'
p2773
sg4
V283
p2774
sg6
V\u039a\u03b1\u03bd\u03ac\u03bb\u03b9 20 107.5
p2775
ssS'282'
p2776
(dp2777
g4
V282
p2778
sg6
V\u03a0\u03b1\u03bb\u03bc\u03cc\u03c2 90.5
p2779
ssS'285'
p2780
(dp2781
g4
V285
p2782
sg6
VLight Kiss 89
p2783
ssS'284'
p2784
(dp2785
g375
S'mms://broadcast.hol.gr/cityfm'
p2786
sg4
V284
p2787
sg6
VCity Radio 103.3
p2788
ssS'287'
p2789
(dp2790
g375
S'mms://live.onestreaming.com/politia'
p2791
sg4
V287
p2792
sg6
V\u03a0\u03bf\u03bb\u03b9\u03c4\u03b5\u03af\u03b1 90.7
p2793
ssS'286'
p2794
(dp2795
g375
S'http://eco.onestreaming.com:8272'
p2796
sg4
V286
p2797
sg6
VFly 89.7
p2798
ssS'678'
p2799
(dp2800
g375
S'http://s1.onweb.gr:8866/'
p2801
sg4
V678
p2802
sg6
VSuper 92.6
p2803
ssS'679'
p2804
(dp2805
g375
S'http://shout.streamwithq.gr:4126/'
p2806
sg4
V679
p2807
sg6
VKiss 107
p2808
ssS'674'
p2809
(dp2810
g375
S'http://mvradio.serverroom.us:9842'
p2811
sg4
V674
p2812
sg6
VMv Radio
p2813
ssS'675'
p2814
(dp2815
g375
S'http://psychoradio.servemp3.com'
p2816
sg4
V675
p2817
sg6
VPsycho Radio
p2818
ssS'676'
p2819
(dp2820
g375
S'http://live.onestreaming.com/star884'
p2821
sg4
V676
p2822
sg6
VStar 88.4
p2823
ssS'677'
p2824
(dp2825
g4
V677
p2826
sg6
VFantasy 100.1
p2827
ssS'670'
p2828
(dp2829
g375
S'http://live.onestreaming.com/makistia'
p2830
sg4
V670
p2831
sg6
V\u03a1\u03ac\u03b4\u03b9\u03bf \u039c\u03b1\u03ba\u03b9\u03c3\u03c4\u03af\u03b1 98.6
p2832
ssS'671'
p2833
(dp2834
g4
V671
p2835
sg6
VPowerMix Fm Greek
p2836
ssS'672'
p2837
(dp2838
g4
V672
p2839
sg6
V\u03a1\u03ac\u03b4\u03b9\u03bf \u0392\u03ad\u03c1\u03b1 91.8
p2840
ssS'673'
p2841
(dp2842
g4
V673
p2843
sg6
V\u03a1\u03ac\u03b4\u03b9\u03bf TRT 95.1
p2844
ssS'263'
p2845
(dp2846
g375
S'http://eco.onestreaming.com:8185'
p2847
sg4
V263
p2848
sg6
V\u0394\u03b7\u03bc\u03bf\u03c4\u03b9\u03ba\u03cc\u03c2 \u03a4\u03c1\u03af\u03c0\u03bf\u03bb\u03b7\u03c2 91.5
p2849
ssS'262'
p2850
(dp2851
g375
S'http://shoutcast.24radio.gr:8012/'
p2852
sg4
V262
p2853
sg6
VMust Fm 97
p2854
ssS'261'
p2855
(dp2856
g4
V261
p2857
sg6
VStyle Fm 89.6
p2858
ssS'260'
p2859
(dp2860
g4
V260
p2861
sg6
VStar Fm 92.9
p2862
ssS'267'
p2863
(dp2864
g375
S'http://smartfm.serverroom.us:8030'
p2865
sg4
V267
p2866
sg6
VSmart Fm 100.7
p2867
ssS'266'
p2868
(dp2869
g375
S'mms://broadcast.hol.gr/IonionFMU'
p2870
sg4
V266
p2871
sg6
VIonion Fm 95.8
p2872
ssS'265'
p2873
(dp2874
g375
S'http://208.43.115.44:8016/'
p2875
sg4
V265
p2876
sg6
VHorizon Fm 96.5
p2877
ssS'264'
p2878
(dp2879
g4
V264
p2880
sg6
V\u0391\u03c1\u03bc\u03bf\u03bd\u03af\u03b1 Fm 93.8
p2881
ssS'1031'
p2882
(dp2883
g4
V1031
p2884
sg6
VSeal Radio
p2885
ssS'269'
p2886
(dp2887
g375
S'mms://broadcast.hol.gr/mojoradio'
p2888
sg4
V269
p2889
sg6
VMojo Radio 107.7
p2890
ssS'268'
p2891
(dp2892
g375
S'http://217.172.179.76:8500/'
p2893
sg4
V268
p2894
sg6
VWave 97.4
p2895
ssS'59'
p2896
(dp2897
g375
S'http://shoutcast.24radio.gr:8036'
p2898
sg4
V59
p2899
sg6
VKiss 100.6
p2900
ssS'58'
p2901
(dp2902
g4
V58
p2903
sg6
V\u039a\u03c1\u03b7\u03c4\u03b9\u03ba\u03cc\u03c1\u03b1\u03bc\u03b1 93.8
p2904
ssS'55'
p2905
(dp2906
g4
V55
p2907
sg6
V\u03a3\u03c4\u03bf \u039a\u03cc\u03ba\u03ba\u03b9\u03bd\u03bf 105.5
p2908
ssS'54'
p2909
(dp2910
g375
S'mms://a1232.l3271935231.c32719.g.lm.akamaistream.net/D/1232/32719/v0001/reflector:35231'
p2911
sg4
V54
p2912
sg6
VKosmos 93.6
p2913
ssS'57'
p2914
(dp2915
g4
V57
p2916
sg6
V\u03a1\u03ac\u03b4\u03b9\u03bf \u03a0\u03cc\u03bd\u03c4\u03bf\u03c2 106.5
p2917
ssS'56'
p2918
(dp2919
g4
V56
p2920
sg6
V\u03a7\u03c1\u03b9\u03c3\u03c4\u03b9\u03b1\u03bd\u03b9\u03c3\u03bc\u03cc\u03c2
p2921
ssS'51'
p2922
(dp2923
g4
V51
p2924
sg6
V\u039c\u03b5\u03bb\u03c9\u03b4\u03af\u03b1 99.2
p2925
ssS'62'
p2926
(dp2927
g375
S'http://shoutcast.24radio.gr:8060/'
p2928
sg4
V62
p2929
sg6
VLife Radio 91.6
p2930
ssS'53'
p2931
(dp2932
g375
S'mms://ant1.live24.gr/ant1'
p2933
sg4
V53
p2934
sg6
VAnt1 97.2
p2935
ssS'52'
p2936
(dp2937
g4
V52
p2938
sg6
V\u039b\u03ac\u03bc\u03c8\u03b7 92.3
p2939
ssS'537'
p2940
(dp2941
g4
V537
p2942
sg6
VMusic Life 95.1
p2943
ssS'536'
p2944
(dp2945
g4
V536
p2946
sg6
VDolce Radio 89.5
p2947
ssS'63'
p2948
(dp2949
g4
V63
p2950
sg6
VHit Fm 92.9
p2951
ssS'533'
p2952
(dp2953
g4
V533
p2954
sg6
VMy World
p2955
ssS'532'
p2956
(dp2957
g4
V532
p2958
sg6
VRadio 88\u03bc\u03b9\u03c3\u03cc
p2959
ssS'531'
p2960
(dp2961
g375
S'http://live.onestreaming.com/greek4u'
p2962
sg4
V531
p2963
sg6
VGr4u
p2964
ssS'152'
p2965
(dp2966
g375
S'mms://a1318.l3271931317.c32719.g.lm.akamaistream.net/D/1318/32719/v0001/reflector:31317'
p2967
sg4
V152
p2968
sg6
V\u03a4\u03c1\u03af\u03c4\u03bf  90.9
p2969
ssS'539'
p2970
(dp2971
g4
V539
p2972
sg6
V\u03a1\u03ac\u03b4\u03b9\u03bf \u039c\u03b5\u03c3\u03c3\u03ac\u03c4\u03b9\u03b4\u03b1 98
p2973
ssS'538'
p2974
(dp2975
g375
S'http://972fm.no-ip.info:8000'
p2976
sg4
V538
p2977
sg6
V97.2 Fm Stereo
p2978
ssS'201'
p2979
(dp2980
g4
V201
p2981
sg6
V\u0391\u03b3\u03ad\u03c1\u03b9 Fm 102
p2982
ssS'988'
p2983
(dp2984
g4
V988
p2985
sg6
V\u0397\u03c7\u03bf\u03c2 Radio
p2986
ssS'200'
p2987
(dp2988
g375
S'http://eco.onestreaming.com:8129'
p2989
sg4
V200
p2990
sg6
V\u039c\u03b5\u03bb\u03c9\u03b4\u03af\u03b1 88
p2991
ssS'981'
p2992
(dp2993
g375
S'http://199.16.186.34:8236/'
p2994
sg4
V981
p2995
sg6
VElektrik Dreams
p2996
ssS'50'
p2997
(dp2998
g4
V50
p2999
sg6
VX Fm 94.3
p3000
ssS'115'
p3001
(dp3002
g4
V115
p3003
sg6
V\u03a1\u03ac\u03b4\u03b9\u03bf \u0391\u03bb\u03ae\u03b8\u03b5\u03b9\u03b1 95.7
p3004
ssS'68'
p3005
(dp3006
g375
S'http://golive.onestreaming.com/radioena'
p3007
sg4
V68
p3008
sg6
V99 Fm \u03a1\u03ac\u03b4\u03b9\u03bf 1
p3009
ssS'116'
p3010
(dp3011
g4
V116
p3012
sg6
VPirate Fm 91
p3013
ssS'111'
p3014
(dp3015
g375
S'http://golive.onestreaming.com/arion'
p3016
sg4
V111
p3017
sg6
VArion Radio
p3018
ssS'110'
p3019
(dp3020
g375
S'http://golive.onestreaming.com/athensparty'
p3021
sg4
V110
p3022
sg6
VAthens Party
p3023
ssS'113'
p3024
(dp3025
g375
S'http://188.40.131.14:8062'
p3026
sg4
V113
p3027
sg6
VJay Radio
p3028
ssS'112'
p3029
(dp3030
g4
V112
p3031
sg6
V\u0388\u03c1\u03c9\u03c4\u03b1\u03c2
p3032
ssS'205'
p3033
(dp3034
g375
S'http://live.onestreaming.com/arhagelos'
p3035
sg4
V205
p3036
sg6
V\u03a1\u03ac\u03b4\u03b9\u03bf \u0391\u03c1\u03c7\u03ac\u03b3\u03b3\u03b5\u03bb\u03bf\u03c2 94.1
p3037
ssS'119'
p3038
(dp3039
g375
S'http://s1.onweb.gr:8812'
p3040
sg4
V119
p3041
sg6
V\u03a1\u03b1\u03b4\u03b9\u03bf\u03ba\u03cd\u03bc\u03b1\u03c4\u03b1 104.4
p3042
ssS'118'
p3043
(dp3044
g4
V118
p3045
sg6
V\u039b\u03c5\u03b4\u03af\u03b1 Fm 94.2
p3046
ssS'207'
p3047
(dp3048
g4
V207
p3049
sg6
V\u03a3\u03ac\u03bc\u03bf\u03c2 Fm 97.3
p3050
ssS'953'
p3051
(dp3052
g375
S'http://live.onestreaming.com/notesserres'
p3053
sg4
V953
p3054
sg6
V\u03a1\u03ac\u03b4\u03b9\u03bf \u039d\u03cc\u03c4\u03b5\u03c2 106
p3055
ssS'429'
p3056
(dp3057
g4
V429
p3058
sg6
V\u03a1\u03c5\u03b8\u03bc\u03cc\u03c2 104
p3059
ssS'428'
p3060
(dp3061
g4
V428
p3062
sg6
V\u03a0\u03b1\u03bd\u03cc\u03c1\u03b1\u03bc\u03b1 98.4
p3063
ssS'534'
p3064
(dp3065
g375
S'http://eco.onestreaming.com:8152/stream'
p3066
sg4
V534
p3067
sg6
VAction Radio 98.2
p3068
ssS'919'
p3069
(dp3070
g375
S'http://r3.webradiostreams.com:7120/'
p3071
sg4
V919
p3072
sg6
VStudio 20 101.1
p3073
ssS'918'
p3074
(dp3075
g4
V918
p3076
sg6
VRadio Must Athens
p3077
ssS'914'
p3078
(dp3079
g375
S'http://178.32.57.58:8345/'
p3080
sg4
V914
p3081
sg6
VMagic Fm 102.9
p3082
ssS'916'
p3083
(dp3084
g4
V916
p3085
sg6
V\u03a1\u03ac\u03b4\u03b9\u03bf \u039f\u03bc\u03ac\u03b4\u03b1R
p3086
ssS'913'
p3087
(dp3088
g4
V913
p3089
sg6
VClassical Radio
p3090
ssS'300'
p3091
(dp3092
g375
S'http://eco.onestreaming.com:8173'
p3093
sg4
V300
p3094
sg6
VCity Fm 100
p3095
ssS'301'
p3096
(dp3097
g375
S'http://78.46.106.4:8010'
p3098
sg4
V301
p3099
sg6
VMusic Club 105.8
p3100
ssS'302'
p3101
(dp3102
g4
V302
p3103
sg6
VEros Radio 93
p3104
ssS'303'
p3105
(dp3106
g4
V303
p3107
sg6
VRadio Erotic
p3108
ssS'304'
p3109
(dp3110
g375
S'http://media15.internet.gr/dreamfm'
p3111
sg4
V304
p3112
sg6
VDream Fm 90.6
p3113
ssS'305'
p3114
(dp3115
g4
V305
p3116
sg6
VKiss Gold
p3117
ssS'306'
p3118
(dp3119
g4
V306
p3120
sg6
VCoast Fm 91.4
p3121
ssS'821'
p3122
(dp3123
g4
V821
p3124
sg6
VFree Angel 91.8
p3125
ssS'374'
p3126
(dp3127
g375
S'http://s5.onweb.gr:8030'
p3128
sg4
V374
p3129
sg6
VHit Fm 89.3
p3130
ssS'954'
p3131
(dp3132
g4
V954
p3133
sg6
VRock 69
p3134
ssS'753'
p3135
(dp3136
g375
S'http://shoutcast.24radio.gr:8042/'
p3137
sg4
V753
p3138
sg6
VSpace Fm 107.5
p3139
ssS'569'
p3140
(dp3141
g375
S'http://159.253.149.12:8138'
p3142
sg4
V569
p3143
sg6
V\u03a1\u03ac\u03b4\u03b9\u03bf \u039a\u03b1\u03bb\u03ac\u03b2\u03c1\u03c5\u03c4\u03b1 106.5
p3144
ssS'751'
p3145
(dp3146
g375
S'http://s2.onweb.gr:8608/'
p3147
sg4
V751
p3148
sg6
V\u0395\u03c0\u03b9\u03ba\u03bf\u03b9\u03bd\u03c9\u03bd\u03af\u03b1 Fm 89.1
p3149
ssS'750'
p3150
(dp3151
g375
S'http://208.43.115.44:8068'
p3152
sg4
V750
p3153
sg6
V\u0391\u03be\u03ac\u03c2 Radio
p3154
ssS'757'
p3155
(dp3156
g375
S'http://shoutcast.24radio.gr:8052/'
p3157
sg4
V757
p3158
sg6
V\u0391\u03b9\u03b3\u03b1\u03af\u03bf Live 95.8
p3159
ssS'756'
p3160
(dp3161
g4
V756
p3162
sg6
V\u03a1\u03ac\u03b4\u03b9\u03bf \u0395\u03c0\u03ac\u03bb
p3163
ssS'755'
p3164
(dp3165
g375
S'http://shoutcast.24radio.gr:8050/'
p3166
sg4
V755
p3167
sg6
Vgopop.gr Top 40 Channel
p3168
ssS'754'
p3169
(dp3170
g375
S'http://shoutcast.24radio.gr:8048/'
p3171
sg4
V754
p3172
sg6
Vgopop.gr Disco Channel
p3173
ssS'560'
p3174
(dp3175
g375
S'http://eco.onestreaming.com:8324'
p3176
sg4
V560
p3177
sg6
VRodon 95 Fm
p3178
ssS'561'
p3179
(dp3180
g375
S'http://eco.onestreaming.com:8238'
p3181
sg4
V561
p3182
sg6
VSfera 94.1
p3183
ssS'759'
p3184
(dp3185
g375
S'http://s3.onweb.gr:8530/'
p3186
sg4
V759
p3187
sg6
VStyl Fm 104.8
p3188
ssS'758'
p3189
(dp3190
g4
V758
p3191
sg6
V\u03a1\u03b1\u03b4\u03b9\u03bf\u03c6\u03c9\u03bd\u03af\u03b1 \u039a\u03c5\u03ba\u03bb\u03ac\u03b4\u03c9\u03bd
p3192
ssS'564'
p3193
(dp3194
g4
V564
p3195
sg6
VAria Fm 107.4
p3196
ssS'566'
p3197
(dp3198
g375
S'http://208.43.115.44:9844/'
p3199
sg4
V566
p3200
sg6
V\u0395\u03bb\u03bb\u03b7\u03bd\u03ac\u03b4\u03b9\u03ba\u03bf Fm
p3201
ssS'567'
p3202
(dp3203
g4
V567
p3204
sg6
VAthens Winder Radio
p3205
ssS'506'
p3206
(dp3207
g4
V506
p3208
sg6
V\u03a1\u03ac\u03b4\u03b9\u03bf \u039d\u03b1\u03cd\u03c0\u03b1\u03ba\u03c4\u03bf\u03c2
p3209
ssS'229'
p3210
(dp3211
g4
V229
p3212
sg6
V\u0391\u03bd\u03b4\u03c1\u03bf\u03bc\u03ad\u03b4\u03b1 Net
p3213
ssS'228'
p3214
(dp3215
g375
S'mms://radio.greekstream.net/ekrixi'
p3216
sg4
V228
p3217
sg6
V\u0388\u03ba\u03c1\u03b7\u03be\u03b7 Fm 99.7
p3218
ssS'227'
p3219
(dp3220
g375
S'http://s1.onweb.gr:8408'
p3221
sg4
V227
p3222
sg6
VStudio 3 103.5
p3223
ssS'226'
p3224
(dp3225
g375
S'http://wm3.greekstream.net/sindosfm'
p3226
sg4
V226
p3227
sg6
V\u039a\u03b1\u03bb\u03b1\u03bc\u03b1\u03c1\u03b9\u03ac Fm 101.7
p3228
ssS'225'
p3229
(dp3230
g375
S'http://shout.plusradio.gr:8120/'
p3231
sg4
V225
p3232
sg6
VPlus Radio 102.6
p3233
ssS'223'
p3234
(dp3235
g375
S'http://s3.onweb.gr:8436'
p3236
sg4
V223
p3237
sg6
V\u03a1\u03ac\u03b4\u03b9\u03bf \u0394\u0395\u0398 104.9
p3238
ssS'222'
p3239
(dp3240
g4
V222
p3241
sg6
V\u0395\u03c0\u03b9\u03ba\u03bf\u03b9\u03bd\u03c9\u03bd\u03af\u03b1 Fm 94
p3242
ssS'221'
p3243
(dp3244
g375
S'mms://a999.l3271920998.c32719.g.lm.akamaistream.net/D/999/32719/v0001/reflector:20998'
p3245
sg4
V221
p3246
sg6
V\u0397 \u03a6\u03c9\u03bd\u03ae \u03c4\u03b7\u03c2 \u0395\u03bb\u03bb\u03ac\u03b4\u03b1\u03c2
p3247
ssS'220'
p3248
(dp3249
g4
V220
p3250
sg6
V\u03a6\u03b9\u03bb\u03af\u03b1 107 Fm
p3251
ssS'1027'
p3252
(dp3253
g375
S'http://85.25.106.162:8330/'
p3254
sg4
V1027
p3255
sg6
VSoul Radio
p3256
ssS'1026'
p3257
(dp3258
g4
V1026
p3259
sg6
VRelax Fm 88.2
p3260
ssS'114'
p3261
(dp3262
g4
V114
p3263
sg6
V\u03a1\u03ac\u03b4\u03b9\u03bf \u039c\u03b1\u03c3\u03c4\u03af\u03c7\u03b1 107.7
p3264
ssS'1028'
p3265
(dp3266
g4
V1028
p3267
sg6
V\u03a0\u03b1\u03bd\u03b9\u03ba\u03cc\u03c2 Fm
p3268
ssS'726'
p3269
(dp3270
g375
S'http://s2.onweb.gr:8624'
p3271
sg4
V726
p3272
sg6
VAlfa Radio 96
p3273
ssS'724'
p3274
(dp3275
g375
S'http://shoutcast.24radio.gr:8072'
p3276
sg4
V724
p3277
sg6
V\u03a1\u03ac\u03b4\u03b9\u03bf \u0386\u03c3\u03c4\u03c5 90.6
p3278
ssS'725'
p3279
(dp3280
g375
S'http://shoutcast.24radio.gr:8004/'
p3281
sg4
V725
p3282
sg6
VAthens Jukebox Radio
p3283
ssS'723'
p3284
(dp3285
g375
S'http://s5.onweb.gr:8502'
p3286
sg4
V723
p3287
sg6
V\u0394\u03af\u03b1\u03c5\u03bb\u03bf\u03c2 \u039a\u03b1\u03c1\u03b4\u03af\u03c4\u03c3\u03b1\u03c2 102.8
p3288
ssS'720'
p3289
(dp3290
g4
V720
p3291
sg6
VVelvet.
p3292
ssS'721'
p3293
(dp3294
g375
S'http://208.43.81.168:8748'
p3295
sg4
V721
p3296
sg6
VIoannina Dee Jay 89.6
p3297
ssS'728'
p3298
(dp3299
g375
S'http://s2.onweb.gr:8646/'
p3300
sg4
V728
p3301
sg6
VVibe Fm 95.4
p3302
ssS'151'
p3303
(dp3304
g375
S'mms://a1782.l3271951781.c32719.g.lm.akamaistream.net/D/1782/32719/v0001/reflector:51781'
p3305
sg4
V151
p3306
sg6
V\u0394\u03b5\u03cd\u03c4\u03b5\u03c1\u03bf 103.7
p3307
ssS'150'
p3308
(dp3309
g375
S'mms://a1709.l3271943708.c32719.g.lm.akamaistream.net/D/1709/32719/v0001/reflector:43708'
p3310
sg4
V150
p3311
sg6
VNet 105.8
p3312
ssS'607'
p3313
(dp3314
g375
S'http://s2.onweb.gr:8600/'
p3315
sg4
V607
p3316
sg6
VDream Radio
p3317
ssS'606'
p3318
(dp3319
g4
V606
p3320
sg6
VLive Dreams
p3321
ssS'601'
p3322
(dp3323
g4
V601
p3324
sg6
VGlam Radio
p3325
ssS'154'
p3326
(dp3327
g375
S'mms://a1964.l3271953963.c32719.g.lm.akamaistream.net/D/1964/32719/v0001/reflector:53963'
p3328
sg4
V154
p3329
sg6
V95.8 Fm
p3330
ssS'157'
p3331
(dp3332
g375
S'http://a240.l827440239.c8274.g.lm.akamaistream.net/D/240/8274/v0001/reflector:40239'
p3333
sg4
V157
p3334
sg6
V\u03a3\u03ba\u03ac\u03ca 100.3
p3335
ssS'602'
p3336
(dp3337
g4
V602
p3338
sg6
V\u03a0\u03b1\u03bb\u03bc\u03cc\u03c2 105.4
p3339
ssS'159'
p3340
(dp3341
g375
S'http://topmelody1.selfip.net:8000'
p3342
sg4
V159
p3343
sg6
VTop Melody 104.9
p3344
ssS'158'
p3345
(dp3346
g375
S'mms://era.aegean.gr/era'
p3347
sg4
V158
p3348
sg6
V\u0395\u03a1\u0391 \u0392. \u0391\u03b9\u03b3\u03b1\u03af\u03bf\u03c5 103
p3349
ssS'609'
p3350
(dp3351
g4
V609
p3352
sg6
VRadio Piotita
p3353
ssS'608'
p3354
(dp3355
g375
S'http://golive.onestreaming.com/arionlaikos'
p3356
sg4
V608
p3357
sg6
VArion \u039b\u03b1\u03ca\u03ba\u03cc\u03c2
p3358
ssS'469'
p3359
(dp3360
g4
V469
p3361
sg6
V\u03a1\u03ac\u03b4\u03b9\u03bf \u039a\u03b1\u03bb\u03bb\u03af\u03c0\u03bf\u03bb\u03b7
p3362
ssS'935'
p3363
(dp3364
g375
S'http://176.9.35.49:9942'
p3365
sg4
V935
p3366
sg6
V\u03a1\u03ac\u03b4\u03b9\u03bf \u03a0\u03b1\u03c1\u03b5\u03bf\u03cd\u03bb\u03b1
p3367
ssS'399'
p3368
(dp3369
g375
S'http://s7.onweb.gr:8548/'
p3370
sg4
V399
p3371
sg6
V\u03a1\u03ac\u03b4\u03b9\u03bf \u03a0\u03b1\u03bb\u03b1\u03b9\u03cc\u03c7\u03c9\u03c1\u03b1 89.3
p3372
ssS'468'
p3373
(dp3374
g4
V468
p3375
sg6
V\u0391\u03b3\u03c1\u03af\u03bd\u03b9\u03bf Fm 93.7
p3376
ssS'959'
p3377
(dp3378
g4
V959
p3379
sg6
VKappa Radio 87.9
p3380
ssS'48'
p3381
(dp3382
g4
V48
p3383
sg6
V\u0395\u03ba\u03ba\u03bb\u03b7\u03c3\u03af\u03b1 89.5
p3384
ssS'49'
p3385
(dp3386
g4
V49
p3387
sg6
V\u03a0\u03b5\u03b9\u03c1\u03b1\u03ca\u03ba\u03ae \u0395\u03ba\u03ba\u03bb\u03b7\u03c3\u03af\u03b1 91.2
p3388
ssS'46'
p3389
(dp3390
g375
S'http://radiogold.live24.gr/radiogold'
p3391
sg4
V46
p3392
sg6
VRadio Gold
p3393
ssS'47'
p3394
(dp3395
g375
S'mms://oasis.live24.gr/oasis8888'
p3396
sg4
V47
p3397
sg6
V\u038c\u03b1\u03c3\u03b9\u03c2 88
p3398
ssS'44'
p3399
(dp3400
g375
S'http://music.vimafm995.gr/vimafm?MSWMExt=.asf'
p3401
sg4
V44
p3402
sg6
V\u0392\u03ae\u03bc\u03b1 Fm 99.5
p3403
ssS'45'
p3404
(dp3405
g375
S'mms://flash.live24.gr/flash5252'
p3406
sg4
V45
p3407
sg6
VFlash 96
p3408
ssS'955'
p3409
(dp3410
g375
S'http://85.17.30.90:8078'
p3411
sg4
V955
p3412
sg6
VRiver Fm 106.6
p3413
ssS'43'
p3414
(dp3415
g4
V43
p3416
sg6
VMad Radio 106.2
p3417
ssS'40'
p3418
(dp3419
g375
S'mms://a1251.l827423250.c8274.g.lm.akamaistream.net/D/1251/8274/v0001/reflector:23250'
p3420
sg4
V40
p3421
sg6
VFreedom
p3422
ssS'41'
p3423
(dp3424
g375
S'http://s3.onweb.gr:8878/'
p3425
sg4
V41
p3426
sg6
V\u039a\u03c1\u03ae\u03c4\u03b7 Fm 87.5
p3427
ssS'638'
p3428
(dp3429
g375
S'http://s3.onweb.gr:8540/'
p3430
sg4
V638
p3431
sg6
VRadio Epigee
p3432
ssS'464'
p3433
(dp3434
g4
V464
p3435
sg6
VMarconi Radio
p3436
ssS'508'
p3437
(dp3438
g4
V508
p3439
sg6
V\u039b\u03b1\u03ca\u03ba\u03cc Radio
p3440
ssS'489'
p3441
(dp3442
g375
S'http://shoutcast.24radio.gr:8076'
p3443
sg4
V489
p3444
sg6
V\u03a1\u03ac\u03b4\u03b9\u03bf \u039c\u03b5\u03bb\u03c9\u03b4\u03af\u03b1 102.4
p3445
ssS'488'
p3446
(dp3447
g4
V488
p3448
sg6
V\u0389\u03c7\u03bf\u03c2 Radio 91
p3449
ssS'487'
p3450
(dp3451
g4
V487
p3452
sg6
VPluslive Radio
p3453
ssS'486'
p3454
(dp3455
g375
S'http://78.46.46.214:8000/'
p3456
sg4
V486
p3457
sg6
VRadio Relax
p3458
ssS'485'
p3459
(dp3460
g4
V485
p3461
sg6
VMango Radio Urban
p3462
ssS'484'
p3463
(dp3464
g375
S'http://live.onestreaming.com/myradionet'
p3465
sg4
V484
p3466
sg6
VMy Radio 89.6
p3467
ssS'483'
p3468
(dp3469
g4
V483
p3470
sg6
V\u03a1\u03ac\u03b4\u03b9\u03bf \u0397\u03c7\u03cc
p3471
ssS'482'
p3472
(dp3473
g4
V482
p3474
sg6
VSigma Radio
p3475
ssS'481'
p3476
(dp3477
g4
V481
p3478
sg6
VAntenna Radio
p3479
ssS'480'
p3480
(dp3481
g4
V480
p3482
sg6
VRolling Paper
p3483
ssS'509'
p3484
(dp3485
g375
S'http://50.7.243.50:8127/'
p3486
sg4
V509
p3487
sg6
VEnergy 93.4
p3488
ssS'473'
p3489
(dp3490
g4
V473
p3491
sg6
VRadio Next
p3492
ssS'470'
p3493
(dp3494
g375
S'http://83.133.127.198:8999'
p3495
sg4
V470
p3496
sg6
VReal Fm 107.1
p3497
ssS'471'
p3498
(dp3499
g375
S'http://radio.radionova.gr:8263/kritorama'
p3500
sg4
V471
p3501
sg6
V\u039a\u03c1\u03b7\u03c4\u03cc\u03c1\u03b1\u03bc\u03b1 97.9
p3502
ssS'476'
p3503
(dp3504
g375
S'mms://a714.l649552713.c6495.g.lm.akamaistream.net/D/714/6495/v0001/reflector:52713'
p3505
sg4
V476
p3506
sg6
VMusic 89.2
p3507
ssS'477'
p3508
(dp3509
g4
V477
p3510
sg6
VTripa Radio
p3511
ssS'474'
p3512
(dp3513
g375
S'http://eco.onestreaming.com:8324'
p3514
sg4
V474
p3515
sg6
V\u0395\u03a1\u0391 \u03a0\u03ac\u03c4\u03c1\u03b1\u03c2 92.5
p3516
ssS'475'
p3517
(dp3518
g4
V475
p3519
sg6
VFlash \u03a0\u03ac\u03c4\u03c1\u03b1\u03c2 98.7
p3520
ssS'478'
p3521
(dp3522
g375
S'http://hotfm.live24.gr/shock'
p3523
sg4
V478
p3524
sg6
VHot Fm
p3525
ssS'479'
p3526
(dp3527
g375
S'http://178.32.57.58:8557/'
p3528
sg4
V479
p3529
sg6
VStudio 359
p3530
ss.