(dp1
S'199'
p2
(dp3
S'url'
p4
S'http://live.onestreaming.com/lihnari'
p5
sS'id'
p6
V199
p7
sS'title'
p8
V\u039b\u03c5\u03c7\u03bd\u03ac\u03c1\u03b9 91.4
p9
ssS'818'
p10
(dp11
g6
V818
p12
sg8
VRadio Heaven
p13
ssS'819'
p14
(dp15
S'url'
p16
S'http://208.43.115.44:8078'
p17
sg6
V819
p18
sg8
VWinder Ellinikos
p19
ssS'346'
p20
(dp21
g16
S'http://metro903.live24.gr/metro903-1000'
p22
sg6
V346
p23
sg8
VMetro Fm 90.3
p24
ssS'347'
p25
(dp26
g6
V347
p27
sg8
V\u0395\u03bb\u03bb\u03b7\u03bd\u03b9\u03ba\u03cc\u03c2 90.3
p28
ssS'340'
p29
(dp30
g16
S'http://s6.onweb.gr:8056'
p31
sg6
V340
p32
sg8
V\u03a1\u03ac\u03b4\u03b9\u03bf \u03a6\u03ac\u03c1\u03bf\u03c2 92.7
p33
ssS'341'
p34
(dp35
g16
S'http://s3.onweb.gr:8060'
p36
sg6
V341
p37
sg8
V\u03a0\u03af\u03bd\u03b4\u03bf\u03c2 Fm 107.7
p38
ssS'342'
p39
(dp40
g6
V342
p41
sg8
VStar 99
p42
ssS'343'
p43
(dp44
g16
S'mms://live.onestreaming.com/popfm'
p45
sg6
V343
p46
sg8
VPop Fm 89.1
p47
ssS'810'
p48
(dp49
g6
V810
p50
sg8
V365 Radio
p51
ssS'811'
p52
(dp53
g6
V811
p54
sg8
V\u03a1\u03ac\u03b4\u03b9\u03bf \u0391\u03af\u03b3\u03b9\u03bd\u03b1
p55
ssS'812'
p56
(dp57
g4
S'http://live.e-streaming.eu:8120/'
p58
sg6
V812
p59
sg8
V\u03a1\u03ac\u03b4\u03b9\u03bf \u039c\u03c9\u03c1\u03b9\u03ac\u03c2 102.7
p60
ssS'348'
p61
(dp62
g4
S'http://live.isolservers.com:8400'
p63
sg6
V348
p64
sg8
V\u03a3\u03b5\u03af\u03c1\u03b9\u03bf\u03c2 Fm 95.8
p65
ssS'815'
p66
(dp67
g6
V815
p68
sg8
VFresh Web Radio
p69
ssS'816'
p70
(dp71
g4
S'http://www.streamyourdream.org:8000/urbanradio'
p72
sg6
V816
p73
sg8
VUrban Radio
p74
ssS'817'
p75
(dp76
g4
S'http://66.90.104.41:8356/'
p77
sg6
V817
p78
sg8
VD Radio
p79
ssS'719'
p80
(dp81
g4
S'http://208.43.121.133:9652/'
p82
sg6
V719
p83
sg8
V\u03a0\u03cc\u03bd\u03c4\u03bf\u03c2 \u039b\u03b5\u03bb\u03ad\u03b2\u03c9\u03c3\u03b5 101.3
p84
ssS'718'
p85
(dp86
g6
V718
p87
sg8
VPlus Elegance
p88
ssS'716'
p89
(dp90
g4
S'http://stream-push2.live24.gr/synorafm-3462'
p91
sg6
V716
p92
sg8
V\u03a3\u03cd\u03bd\u03bf\u03c1\u03b1 Fm 92.2
p93
ssS'714'
p94
(dp95
g4
S'http://eco.onestreaming.com:8072'
p96
sg6
V714
p97
sg8
VLove Radio 97.2
p98
ssS'713'
p99
(dp100
S'url'
p101
S'http://live.radioalphaomega.com:4006'
p102
sg6
V713
p103
sg8
VRadio Alpha Omega
p104
ssS'711'
p105
(dp106
g4
S'http://75.75.226.26:8204'
p107
sg6
V711
p108
sg8
VAlpha Fm 104.7
p109
ssS'710'
p110
(dp111
g4
S'http://hotmedia.gr/sportfm'
p112
sg6
V710
p113
sg8
VSport Fm \u03a1\u03ad\u03b8\u03c5\u03bc\u03bd\u03bf 103.3
p114
ssS'618'
p115
(dp116
g4
S'http://shoutcast.24radio.gr:8038/'
p117
sg6
V618
p118
sg8
VViva Gr 102.8
p119
ssS'606'
p120
(dp121
g6
V606
p122
sg8
VLive Dreams
p123
ssS'1065'
p124
(dp125
g4
S'http://eco.onestreaming.com:8222/'
p126
sg6
V1065
p127
sg8
VPlay Radio
p128
ssS'619'
p129
(dp130
g6
V619
p131
sg8
VTechno Time Radio
p132
ssS'913'
p133
(dp134
g6
V913
p135
sg8
VClassical Radio
p136
ssS'298'
p137
(dp138
g6
V298
p139
sg8
V\u0395\u03bb\u03bb\u03b7\u03bd\u03b9\u03ba\u03cc\u03c2 107.2
p140
ssS'299'
p141
(dp142
g4
S'mms://1045fm.live24.gr/1045fm/'
p143
sg6
V299
p144
sg8
V\u03a1\u03c5\u03b8\u03bc\u03cc\u03c2 104.5
p145
ssS'296'
p146
(dp147
g6
V296
p148
sg8
VDance Radio Chill Out
p149
ssS'297'
p150
(dp151
S'url'
p152
S'mms://94.75.200.140/lampsifm'
p153
sg6
V297
p154
sg8
V\u039b\u03ac\u03bc\u03c8\u03b7 Fm 105.7
p155
ssS'295'
p156
(dp157
g6
V295
p158
sg8
VDance Radio Global
p159
ssS'292'
p160
(dp161
g6
V292
p162
sg8
VI. Galaxy Sport Fm 90.8
p163
ssS'293'
p164
(dp165
g6
V293
p166
sg8
V\u0395\u03c1\u03c9\u03c4\u03cc\u03ba\u03c1\u03b9\u03c4\u03bf\u03c2 87.9
p167
ssS'290'
p168
(dp169
g152
S'http://ice.motionfm.com:80/motiontwo_free.m3u'
p170
sg6
V290
p171
sg8
VSmooth Motion Fm
p172
ssS'291'
p173
(dp174
g152
S'http://85.17.75.142/echoes'
p175
sg6
V291
p176
sg8
VEchoes
p177
ssS'591'
p178
(dp179
g6
V591
p180
sg8
VPlus Amor
p181
ssS'590'
p182
(dp183
g152
S'http://eco.onestreaming.com:8257'
p184
sg6
V590
p185
sg8
VRadio Star 95,5
p186
ssS'593'
p187
(dp188
g101
S'http://78.46.46.214:7054'
p189
sg6
V593
p190
sg8
V\u03a1\u03ac\u03b4\u03b9\u03bf \u03a4\u03c1\u03b9\u03c6\u03c5\u03bb\u03af\u03b1\u03c2 101.3
p191
ssS'592'
p192
(dp193
g6
V592
p194
sg8
VPlus Dance
p195
ssS'595'
p196
(dp197
g6
V595
p198
sg8
V\u03a9\u03bc\u03ad\u03b3\u03b1 Fm 90
p199
ssS'594'
p200
(dp201
g6
V594
p202
sg8
VOxygen Fm 95.3
p203
ssS'597'
p204
(dp205
g152
S'http://live.onestreaming.com/blacklemon'
p206
sg6
V597
p207
sg8
VBlack Lemon Radio 
p208
ssS'596'
p209
(dp210
g6
V596
p211
sg8
VRadio Project
p212
ssS'195'
p213
(dp214
g152
S'http://s6.onweb.gr:8012'
p215
sg6
V195
p216
sg8
VTop FM 106.4
p217
ssS'194'
p218
(dp219
g152
S'http://live.onestreaming.com/radiopatra'
p220
sg6
V194
p221
sg8
V\u03a1\u03ac\u03b4\u03b9\u03bf \u03a0\u03ac\u03c4\u03c1\u03b1 106.5
p222
ssS'197'
p223
(dp224
g152
S'http://www.onradio.gr/url_mp/99.asx'
p225
sg6
V197
p226
sg8
VLoud 88.8
p227
ssS'196'
p228
(dp229
g6
V196
p230
sg8
V\u03a1\u03ac\u03b4\u03b9\u03bf \u03a3\u03c4\u03bf\u03c1\u03ba 89.8
p231
ssS'191'
p232
(dp233
g101
S'http://s4.onweb.gr:8468'
p234
sg6
V191
p235
sg8
V\u03a1\u03ac\u03b4\u03b9\u03bf \u039b\u03ad\u03c7\u03bf\u03b2\u03bf 97.1
p236
ssS'190'
p237
(dp238
g152
S'http://live.onestreaming.com/radioflorina'
p239
sg6
V190
p240
sg8
V\u03a1\u03ac\u03b4\u03b9\u03bf \u03a6\u03bb\u03ce\u03c1\u03b9\u03bd\u03b1 101.5
p241
ssS'193'
p242
(dp243
g152
S'http://live.onestreaming.com/toxotis'
p244
sg6
V193
p245
sg8
V\u03a4\u03bf\u03be\u03cc\u03c4\u03b7\u03c2 Fm 96.3
p246
ssS'192'
p247
(dp248
g101
S'http://72.55.146.84:8002/'
p249
sg6
V192
p250
sg8
V\u0395\u03c1\u03c9\u03c4\u03b9\u03ba\u03cc\u03c2 99.5
p251
ssS'270'
p252
(dp253
g101
S'http://s3.onweb.gr:8046'
p254
sg6
V270
p255
sg8
VEnjoy Radio 107
p256
ssS'271'
p257
(dp258
g152
S'http://lampsi.serverroom.us:7668'
p259
sg6
V271
p260
sg8
V\u039b\u03ac\u03bc\u03c8\u03b7 103.3
p261
ssS'272'
p262
(dp263
g152
S'http://78.129.159.205:8048'
p264
sg6
V272
p265
sg8
V\u0399\u03b5\u03c1\u03ac \u039c\u03b7\u03c4\u03c1\u03cc\u03c0\u03bf\u03bb\u03b7 88.4
p266
ssS'273'
p267
(dp268
g152
S'mms://radiogamma.live24.gr/radiogamma'
p269
sg6
V273
p270
sg8
V\u03a1\u03ac\u03b4\u03b9\u03bf \u0393\u03ac\u03bc\u03bc\u03b1 94
p271
ssS'274'
p272
(dp273
g152
S'http://s1.onweb.gr:8898'
p274
sg6
V274
p275
sg8
V\u039d\u03b5\u03bc\u03ad\u03b1 Radio 107.6
p276
ssS'275'
p277
(dp278
g152
S'http://s6.onweb.gr:8008'
p279
sg6
V275
p280
sg8
VJust 96.4
p281
ssS'276'
p282
(dp283
g152
S'http://s3.onweb.gr:8510'
p284
sg6
V276
p285
sg8
V\u039b\u03bf\u03c5\u03c4\u03c1\u03ac\u03ba\u03b9 Fm 96.9
p286
ssS'277'
p287
(dp288
g101
S'http://s3.onweb.gr:8472/'
p289
sg6
V277
p290
sg8
VL Radio 87.5
p291
ssS'278'
p292
(dp293
g152
S'http://s1.onweb.gr:8828'
p294
sg6
V278
p295
sg8
V\u03a1\u03ac\u03b4\u03b9\u03bf \u0395\u03bd\u03ad\u03c1\u03b3\u03b5\u03b9\u03b1 106.4
p296
ssS'279'
p297
(dp298
g101
S'http://stream.kiss922.gr:59922/'
p299
sg6
V279
p300
sg8
VKiss 93.8
p301
ssS'524'
p302
(dp303
g6
V524
p304
sg8
VRussian Wave 105.6
p305
ssS'525'
p306
(dp307
g6
V525
p308
sg8
VPost Rocking
p309
ssS'526'
p310
(dp311
g6
V526
p312
sg8
V\u03a3\u03ba\u03ac\u03ca \u0391\u03c1\u03b3\u03bf\u03bb\u03af\u03b4\u03b1\u03c2 102.3
p313
ssS'527'
p314
(dp315
g6
V527
p316
sg8
VNoise Fm 100.5
p317
ssS'520'
p318
(dp319
g152
S'http://eco.onestreaming.com:8211'
p320
sg6
V520
p321
sg8
VArion Kids
p322
ssS'521'
p323
(dp324
g152
S'http://eco.onestreaming.com:8266'
p325
sg6
V521
p326
sg8
V\u0397\u03c7\u03ce Radio 102.7
p327
ssS'523'
p328
(dp329
g152
S'http://live.onestreaming.com/orthodoxia'
p330
sg6
V523
p331
sg8
V\u039f\u03c1\u03b8\u03bf\u03b4\u03bf\u03be\u03af\u03b1 \u03ba\u03b1\u03b9 \u03a0\u03b1\u03c1\u03ac\u03b4\u03bf\u03c3\u03b7
p332
ssS'1014'
p333
(dp334
g101
S'http://188.138.19.96:8030/'
p335
sg6
V1014
p336
sg8
VDeejay Fm 107.3
p337
ssS'528'
p338
(dp339
g6
V528
p340
sg8
VGreekzlive Radio
p341
ssS'529'
p342
(dp343
g101
S'http://shoutcast.24radio.gr:8010/'
p344
sg6
V529
p345
sg8
VNetcruise Radio
p346
ssS'449'
p347
(dp348
g6
V449
p349
sg8
VCocktail Radio
p350
ssS'448'
p351
(dp352
g152
S'http://eco.onestreaming.com:8005/stream'
p353
sg6
V448
p354
sg8
VLoco Radio
p355
ssS'443'
p356
(dp357
g101
S'http://www.tuningradio.gr:8000/'
p358
sg6
V443
p359
sg8
VTuning Radio
p360
ssS'442'
p361
(dp362
g6
V442
p363
sg8
V\u03a1\u03ac\u03b4\u03b9\u03bf \u03a6\u03ac\u03c3\u03b7
p364
ssS'441'
p365
(dp366
g152
S'http://www.live365.com/play/lavantis?from=wmp&name_type=str&tag=live365&auth=943a54bc7174ca6fb296f2f878ebd1cb-1271469013-51845&SaneID=10.10.10.251-1265658174510&sessionid=musicorner%3AREEY44pAsdP7DA1&charset=UTF-8&token=467ede034f22c871362e60fc6eb1d516-5017160080800000'
p367
sg6
V441
p368
sg8
VHot Station
p369
ssS'440'
p370
(dp371
g6
V440
p372
sg8
VActive Radio
p373
ssS'447'
p374
(dp375
g6
V447
p376
sg8
VMango Radio
p377
ssS'446'
p378
(dp379
S'url'
p380
S'http://live.waveradio.gr:8000/listen.m3u'
p381
sg6
V446
p382
sg8
VWave Radio
p383
ssS'445'
p384
(dp385
g6
V445
p386
sg8
VNotes Radio
p387
ssS'444'
p388
(dp389
g6
V444
p390
sg8
VBlue Radio
p391
ssS'108'
p392
(dp393
g6
V108
p394
sg8
VEpirusMusic
p395
ssS'109'
p396
(dp397
g6
V109
p398
sg8
VBlu Radio
p399
ssS'102'
p400
(dp401
g6
V102
p402
sg8
VTrip Radio
p403
ssS'103'
p404
(dp405
S'url'
p406
S'http://live.onestreaming.com/deltaradio'
p407
sg6
V103
p408
sg8
VIEK Delta Radio
p409
ssS'100'
p410
(dp411
g6
V100
p412
sg8
VEvia Channel 94.2
p413
ssS'101'
p414
(dp415
g6
V101
p416
sg8
VStudio E 103
p417
ssS'107'
p418
(dp419
g101
S'http://s4.onweb.gr:8062/'
p420
sg6
V107
p421
sg8
V\u039e\u03b5\u03bd\u03cd\u03c7\u03c4\u03b7\u03c2
p422
ssS'104'
p423
(dp424
g6
V104
p425
sg8
V1431 AM
p426
ssS'105'
p427
(dp428
g406
S'http://live.onestreaming.com/bestmytilini'
p429
sg6
V105
p430
sg8
VBest Fm 98.1
p431
ssS'39'
p432
(dp433
g406
S'http://parea104.live24.gr/parea104'
p434
sg6
V39
p435
sg8
V\u03a0\u03b1\u03c1\u03ad\u03b1 104
p436
ssS'38'
p437
(dp438
g406
S'mms://johngreek.live24.gr/polis2795'
p439
sg6
V38
p440
sg8
VNRJ Radio 88.6
p441
ssS'907'
p442
(dp443
g6
V907
p444
sg8
VRadio Digital
p445
ssS'904'
p446
(dp447
g6
V904
p448
sg8
VSuper Radio
p449
ssS'33'
p450
(dp451
g406
S'mms://nitro.live24.gr/nitro4555'
p452
sg6
V33
p453
sg8
VNitro 102.5
p454
ssS'32'
p455
(dp456
g406
S'mms://kissfm.live24.gr/kiss2111'
p457
sg6
V32
p458
sg8
VKiss 92.9
p459
ssS'31'
p460
(dp461
g406
S'mms://best.live24.gr/best1222'
p462
sg6
V31
p463
sg8
VBest 92.6
p464
ssS'30'
p465
(dp466
g406
S'http://loveradio.live24.gr/loveradio-1000'
p467
sg6
V30
p468
sg8
VLove Radio 97.5
p469
ssS'37'
p470
(dp471
g406
S'http://dromos898.live24.gr/dromos898'
p472
sg6
V37
p473
sg8
V\u0394\u03c1\u03cc\u03bc\u03bf\u03c2 Fm 89.8
p474
ssS'36'
p475
(dp476
g6
V36
p477
sg8
VRadio 9 98.9
p478
ssS'35'
p479
(dp480
g6
V35
p481
sg8
VHi Jack
p482
ssS'34'
p483
(dp484
g406
S'mms://sfera.live24.gr/sfera4132'
p485
sg6
V34
p486
sg8
VSfera 102.2
p487
ssS'641'
p488
(dp489
g6
V641
p490
sg8
VCosmos Fm 103.8
p491
ssS'640'
p492
(dp493
g101
S'http://s4.onweb.gr:8442/'
p494
sg6
V640
p495
sg8
VRadio Amore
p496
ssS'643'
p497
(dp498
g101
S'http://174.36.237.66:8112/'
p499
sg6
V643
p500
sg8
VEnergy Fm 101
p501
ssS'645'
p502
(dp503
g6
V645
p504
sg8
VPrime Radio 100.3
p505
ssS'644'
p506
(dp507
g101
S'http://s3.onweb.gr:8474/'
p508
sg6
V644
p509
sg8
VFresh Radio
p510
ssS'646'
p511
(dp512
g101
S'http://s5.onweb.gr:8504/'
p513
sg6
V646
p514
sg8
V\u03a6\u03ac\u03c1\u03bf\u03c2 Fm 104
p515
ssS'649'
p516
(dp517
g101
S'http://eco.onestreaming.com:8294'
p518
sg6
V649
p519
sg8
VPower Fm 92.6
p520
ssS'648'
p521
(dp522
g6
V648
p523
sg8
VView Fm 103.9
p524
ssS'435'
p525
(dp526
g6
V435
p527
sg8
VCoolfm.eu
p528
ssS'432'
p529
(dp530
g6
V432
p531
sg8
VSplash Radio
p532
ssS'433'
p533
(dp534
g6
V433
p535
sg8
V\u0394\u03b9\u03b1\u03b8\u03b5\u03c4\u03b9\u03ba\u03ae
p536
ssS'1002'
p537
(dp538
g6
V1002
p539
sg8
V\u03a1\u03c5\u03b8\u03bc\u03cc\u03c2 Fm12 93.5
p540
ssS'339'
p541
(dp542
g101
S'http://live.skyradio.gr:9920'
p543
sg6
V339
p544
sg8
VSky Radio 99.2
p545
ssS'338'
p546
(dp547
g101
S'http://94.23.159.115:8088/'
p548
sg6
V338
p549
sg8
VSafari 104.7
p550
ssS'335'
p551
(dp552
g101
S'http://eco.onestreaming.com:8070'
p553
sg6
V335
p554
sg8
V\u0392\u03ae\u03bc\u03b1 Fm 90.1
p555
ssS'334'
p556
(dp557
g6
V334
p558
sg8
V\u039c\u03cd\u03b8\u03bf\u03c2 93.4
p559
ssS'337'
p560
(dp561
g6
V337
p562
sg8
V\u03a1\u03ac\u03b4\u03b9\u03bf \u0398\u03b5\u03c3\u03c0\u03c1\u03c9\u03c4\u03af\u03b1 97.1
p563
ssS'336'
p564
(dp565
g6
V336
p566
sg8
V\u03a1\u03ac\u03b4\u03b9\u03bf \u03a0\u03c1\u03ad\u03b2\u03b5\u03b6\u03b1 93
p567
ssS'331'
p568
(dp569
g101
S'http://s2.onweb.gr:8632'
p570
sg6
V331
p571
sg8
V\u0391\u03ba\u03c4\u03af\u03bd\u03b1 Fm 107.6
p572
ssS'330'
p573
(dp574
S'url'
p575
S'mms://radio.istoikona.com/cosmos'
p576
sg6
V330
p577
sg8
VCosmos Radio 95.2
p578
ssS'332'
p579
(dp580
g6
V332
p581
sg8
VRadio Blackman 103.1
p582
ssS'1026'
p583
(dp584
g575
S'mms://a1913.l649545912.c6495.g.lm.akamaistream.net/D/1913/6495/v0001/reflector:45912'
p585
sg6
V1026
p586
sg8
VRelax Fm 88.2
p587
ssS'558'
p588
(dp589
g6
V558
p590
sg8
VXLR8 Net
p591
ssS'344'
p592
(dp593
g406
S'http://78.129.143.157:8000/starfm.m3u'
p594
sg6
V344
p595
sg8
VStar Fm 97.1
p596
ssS'345'
p597
(dp598
g406
S'http://live.onestreaming.com/karpenisi'
p599
sg6
V345
p600
sg8
V\u03a1\u03ac\u03b4\u03b9\u03bf \u039a\u03b1\u03c1\u03c0\u03b5\u03bd\u03ae\u03c3\u03b9 97.5
p601
ssS'748'
p602
(dp603
g406
S'http://nyc04.egihosting.com/458378'
p604
sg6
V748
p605
sg8
VCity International 106.1
p606
ssS'43'
p607
(dp608
g6
V43
p609
sg8
VMad Radio 106.2
p610
ssS'98'
p611
(dp612
g6
V98
p613
sg8
VGnet Radio
p614
ssS'91'
p615
(dp616
g101
S'http://sc2.greekstream.net:4008'
p617
sg6
V91
p618
sg8
V\u03a3\u03c4\u03b1\u03b8\u03bc\u03cc\u03c2
p619
ssS'90'
p620
(dp621
g101
S'http://stream.greekradios.gr:9060'
p622
sg6
V90
p623
sg8
VZoo Radio 90.8
p624
ssS'93'
p625
(dp626
g6
V93
p627
sg8
VGrassagoogoo
p628
ssS'92'
p629
(dp630
g6
V92
p631
sg8
V\u039a\u03bf\u03c3\u03bc\u03bf\u03c1\u03ac\u03b4\u03b9\u03bf 95.1
p632
ssS'95'
p633
(dp634
g6
V95
p635
sg8
VRadio Jukebox
p636
ssS'94'
p637
(dp638
g6
V94
p639
sg8
VRock Machine
p640
ssS'97'
p641
(dp642
g6
V97
p643
sg8
VAlpha 100.5
p644
ssS'96'
p645
(dp646
g101
S'http://webradio.musicheaven.gr:9850'
p647
sg6
V96
p648
sg8
VMusic Heaven
p649
ssS'349'
p650
(dp651
g101
S'http://s1.onweb.gr:8860'
p652
sg6
V349
p653
sg8
V\u03a3\u03c4\u03c5\u03bb\u03af\u03b4\u03b1 Fm 94.1
p654
ssS'740'
p655
(dp656
g101
S'http://85.17.30.90:8044/'
p657
sg6
V740
p658
sg8
VStar Fm 95.7
p659
ssS'742'
p660
(dp661
g6
V742
p662
sg8
V\u03a1\u03ac\u03b4\u03b9\u03bf \u0391\u03bc\u03c6\u03b9\u03bb\u03bf\u03c7\u03af\u03b1 104.5
p663
ssS'743'
p664
(dp665
g101
S'http://eco.onestreaming.com:8286'
p666
sg6
V743
p667
sg8
V\u039b\u03ac\u03ba\u03ba\u03b1 \u03a3\u03bf\u03cd\u03bb\u03b9 Radio
p668
ssS'559'
p669
(dp670
g101
S'http://208.43.115.44:9888/'
p671
sg6
V559
p672
sg8
V\u0395\u03bb\u03bb\u03b7\u03bd\u03b9\u03ba\u03cc \u03a6\u03b1\u03b9\u03bd\u03cc\u03bc\u03b5\u03bd\u03bf
p673
ssS'745'
p674
(dp675
g6
V745
p676
sg8
VMoreradio
p677
ssS'555'
p678
(dp679
g101
S'http://72.55.146.84:8004/'
p680
sg6
V555
p681
sg8
VDiva Fm 91.6
p682
ssS'554'
p683
(dp684
g101
S'http://s7.onweb.gr:8552/'
p685
sg6
V554
p686
sg8
VHot 101.2
p687
ssS'556'
p688
(dp689
g6
V556
p690
sg8
VLemon Radio
p691
ssS'551'
p692
(dp693
g406
S'http://live.onestreaming.com/radiosamos'
p694
sg6
V551
p695
sg8
V\u03a1\u03ac\u03b4\u03b9\u03bf \u03a3\u03ac\u03bc\u03bf\u03c2 102
p696
ssS'550'
p697
(dp698
g6
V550
p699
sg8
VHuts Radio
p700
ssS'553'
p701
(dp702
g6
V553
p703
sg8
VStudio Fm 1 105.4
p704
ssS'552'
p705
(dp706
g406
S'http://golive.onestreaming.com/astraradio'
p707
sg6
V552
p708
sg8
VAstra Radio 93.2
p709
ssS'238'
p710
(dp711
g101
S'http://85.17.30.90:9986'
p712
sg6
V238
p713
sg8
V\u0397\u03c7\u03cc\u03c1\u03b1\u03bc\u03b1 100.8
p714
ssS'239'
p715
(dp716
g101
S'http://s1.onweb.gr:8052'
p717
sg6
V239
p718
sg8
V\u03a0\u03c1\u03ce\u03c4\u03bf Fm 99
p719
ssS'234'
p720
(dp721
g6
V234
p722
sg8
V\u03a0\u03cc\u03bb\u03b9\u03c2 99.4
p723
ssS'235'
p724
(dp725
g101
S'http://s1.onweb.gr:8824'
p726
sg6
V235
p727
sg8
V\u03a1\u03ac\u03b4\u03b9\u03bf 2 97.1
p728
ssS'236'
p729
(dp730
g406
S'http://live.onestreaming.com/radiovelika'
p731
sg6
V236
p732
sg8
VRadio Velika 92.2
p733
ssS'237'
p734
(dp735
g6
V237
p736
sg8
VBest Radio 93.9
p737
ssS'230'
p738
(dp739
g6
V230
p740
sg8
V\u03a1\u03ac\u03b4\u03b9\u03bf \u03a6\u03ac\u03c1\u03bf\u03c2 91.8
p741
ssS'231'
p742
(dp743
g6
V231
p744
sg8
VHeart Fm 105.1
p745
ssS'232'
p746
(dp747
g6
V232
p748
sg8
VAstra 97.3
p749
ssS'233'
p750
(dp751
g6
V233
p752
sg8
V\u03a1\u03ac\u03b4\u03b9\u03bf \u039a\u03b9\u03b2\u03c9\u03c4\u03cc\u03c2 87.8
p753
ssS'1055'
p754
(dp755
g406
S'http://eco.onestreaming.com:8014/live'
p756
sg6
V1055
p757
sg8
VBleep Radio
p758
ssS'1059'
p759
(dp760
g101
S'http://188.40.131.14:6004/'
p761
sg6
V1059
p762
sg8
VCosi Radio
p763
ssS'146'
p764
(dp765
g575
S'mms://radio.istoikona.com/starfmcy'
p766
sg6
V146
p767
sg8
VStar Fm 93.7
p768
ssS'147'
p769
(dp770
g575
S'mms://radio.istoikona.com/rockfm'
p771
sg6
V147
p772
sg8
VRock Fm 98.5
p773
ssS'144'
p774
(dp775
g6
V144
p776
sg8
VMusicNetCy \u0388\u03bd\u03c4\u03b5\u03c7\u03bd\u03bf
p777
ssS'145'
p778
(dp779
g406
S'http://www.listenlive.eu/kissfm.m3u'
p780
sg6
V145
p781
sg8
VKiss 89.0
p782
ssS'142'
p783
(dp784
g575
S'mms://radio.istoikona.com/sport1'
p785
sg6
V142
p786
sg8
VSports 1 93.7
p787
ssS'143'
p788
(dp789
g6
V143
p790
sg8
VChoice Fm 104.3
p791
ssS'140'
p792
(dp793
g575
S'mms://radio.istoikona.com/kanali61'
p794
sg6
V140
p795
sg8
V\u039a\u03b1\u03bd\u03ac\u03bb\u03b9 6 106
p796
ssS'141'
p797
(dp798
g406
S'mms://live.istoikona.com/astra'
p799
sg6
V141
p800
sg8
VAstra 92.8
p801
ssS'612'
p802
(dp803
g101
S'http://s3.onweb.gr:8536/'
p804
sg6
V612
p805
sg8
V\u0391\u03c1\u03b3\u03bf\u03c3\u03b1\u03c1\u03c9\u03bd\u03b9\u03ba\u03cc\u03c2 106.4
p806
ssS'613'
p807
(dp808
g6
V613
p809
sg8
VLa Radio
p810
ssS'610'
p811
(dp812
g406
S'http://www.streamyourdream.org/djlarisa'
p813
sg6
V610
p814
sg8
VLarissa Dee Jay 101.8
p815
ssS'611'
p816
(dp817
g6
V611
p818
sg8
VParanoise Radio
p819
ssS'616'
p820
(dp821
g101
S'http://109.169.26.78:9294'
p822
sg6
V616
p823
sg8
VMood Radio
p824
ssS'617'
p825
(dp826
g6
V617
p827
sg8
VSeek Fm
p828
ssS'148'
p829
(dp830
g6
V148
p831
sg8
V\u03a1\u03ac\u03b4\u03b9\u03bf \u03a0\u03ac\u03c6\u03bf\u03c2 93.7
p832
ssS'149'
p833
(dp834
g6
V149
p835
sg8
V\u0395\u03a1\u0391 \u03a3\u03c0\u03bf\u03c1 101.8
p836
ssS'510'
p837
(dp838
g101
S'http://shoutcast.24radio.gr:8062/'
p839
sg6
V510
p840
sg8
V\u03a1\u03ac\u03b4\u03b9\u03bf \u039a\u03b1\u03c3\u03c4\u03bf\u03c1\u03b9\u03ac 93 Fm
p841
ssS'154'
p842
(dp843
g575
S'mms://a1964.l3271953963.c32719.g.lm.akamaistream.net/D/1964/32719/v0001/reflector:53963'
p844
sg6
V154
p845
sg8
V95.8 Fm
p846
ssS'513'
p847
(dp848
g101
S'http://188.40.131.14:8004'
p849
sg6
V513
p850
sg8
VSpace Fm 107
p851
ssS'946'
p852
(dp853
g6
V946
p854
sg8
VMadbox Radio
p855
ssS'515'
p856
(dp857
g101
S'http://eco.onestreaming.com:8168'
p858
sg6
V515
p859
sg8
VRadio In \u039b\u03b1\u03ca\u03ba\u03ac
p860
ssS'944'
p861
(dp862
g6
V944
p863
sg8
VEiva Radio
p864
ssS'945'
p865
(dp866
g6
V945
p867
sg8
VFly Fm
p868
ssS'943'
p869
(dp870
g6
V943
p871
sg8
VEnallax Radio
p872
ssS'940'
p873
(dp874
g6
V940
p875
sg8
VRadio Mostra
p876
ssS'941'
p877
(dp878
g406
S'http://live.onestreaming.com/aeolos'
p879
sg6
V941
p880
sg8
V\u03a1\u03ac\u03b4\u03b9\u03bf \u0391\u03af\u03bf\u03bb\u03bf\u03c2 92.8
p881
ssS'768'
p882
(dp883
g6
V768
p884
sg8
V\u0399\u03cc\u03bd\u03b9\u03bf\u03bd Fm \u03a0\u03ac\u03c4\u03c1\u03b1\u03c2 95.7
p885
ssS'689'
p886
(dp887
g6
V689
p888
sg8
VStatus Radio.net
p889
ssS'517'
p890
(dp891
g6
V517
p892
sg8
VRock Way
p893
ssS'685'
p894
(dp895
g406
S'http://live.onestreaming.com/koziani'
p896
sg6
V685
p897
sg8
V\u03a1\u03ac\u03b4\u03b9\u03bf \u039a\u03bf\u03b6\u03b9\u03ac\u03bd\u03b7
p898
ssS'684'
p899
(dp900
g6
V684
p901
sg8
VDerti 104.9
p902
ssS'687'
p903
(dp904
g406
S'http://live.onestreaming.com/radioionia'
p905
sg6
V687
p906
sg8
V\u03a1\u03ac\u03b4\u03b9\u03bf \u0399\u03c9\u03bd\u03af\u03b1 95.2
p907
ssS'686'
p908
(dp909
g101
S'http://s1.onweb.gr:8852/'
p910
sg6
V686
p911
sg8
V\u039a\u03c1\u03b7\u03c4\u03b9\u03ba\u03cc\u03c2 Fm 88.7
p912
ssS'681'
p913
(dp914
g101
S'http://s2.onweb.gr:8602/'
p915
sg6
V681
p916
sg8
V\u039a\u03bb\u03af\u03ba Fm 106.2
p917
ssS'680'
p918
(dp919
g406
S'http://live.onestreaming.com/super88'
p920
sg6
V680
p921
sg8
VSuper Radio 88
p922
ssS'683'
p923
(dp924
g6
V683
p925
sg8
V\u03a3\u03b1\u03bd\u03c4\u03bf\u03c1\u03af\u03bd\u03b7 106.4
p926
ssS'682'
p927
(dp928
g6
V682
p929
sg8
VTi Amo Fm 102.7
p930
ssS'133'
p931
(dp932
g6
V133
p933
sg8
VLove Radio 100.7
p934
ssS'132'
p935
(dp936
g406
S'http://live.onestreaming.com/mixfm'
p937
sg6
V132
p938
sg8
VMix Fm 102.3
p939
ssS'131'
p940
(dp941
g6
V131
p942
sg8
VEnergy 107.6
p943
ssS'130'
p944
(dp945
g575
S'mms://live.istoikona.com/sferacy'
p946
sg6
V130
p947
sg8
VSfera 96.8
p948
ssS'498'
p949
(dp950
g406
S'http://www.streamyourdream.org/djvolos'
p951
sg6
V498
p952
sg8
VVolos Dee Jay 90.7
p953
ssS'136'
p954
(dp955
g6
V136
p956
sg8
VRadio Dee Jay 93.6
p957
ssS'135'
p958
(dp959
g6
V135
p960
sg8
VSuper Sport Fm 104
p961
ssS'134'
p962
(dp963
g406
S'http://golive.onestreaming.com/radioproto'
p964
sg6
V134
p965
sg8
V\u03a1\u03ac\u03b4\u03b9\u03bf \u03a0\u03c1\u03ce\u03c4\u03bf 99.3
p966
ssS'494'
p967
(dp968
g101
S'http://208.43.115.44:8070'
p969
sg6
V494
p970
sg8
V\u0397\u03c7\u03cc\u03c1\u03b1\u03bc\u03b1
p971
ssS'495'
p972
(dp973
g6
V495
p974
sg8
VBalloni Radio
p975
ssS'139'
p976
(dp977
g575
S'mms://live.istoikona.com/topfmcy'
p978
sg6
V139
p979
sg8
VTop Fm 99.9
p980
ssS'497'
p981
(dp982
g406
S'http://drs953.live24.gr/drs953'
p983
sg6
V497
p984
sg8
VDRS 95.3 Disco Radio
p985
ssS'490'
p986
(dp987
g6
V490
p988
sg8
V\u039a\u03b1\u03c3\u03c4\u03ad\u03bb\u03bb\u03b9\u03b1 Radio
p989
ssS'491'
p990
(dp991
g6
V491
p992
sg8
VTEI Radio Digital
p993
ssS'492'
p994
(dp995
g6
V492
p996
sg8
V\u0394\u03c5\u03c4\u03b9\u03ba\u03ac Fm 96.1
p997
ssS'493'
p998
(dp999
g101
S'http://s3.onweb.gr:8524/'
p1000
sg6
V493
p1001
sg8
VInternational Fm 107.5
p1002
ssS'24'
p1003
(dp1004
g406
S'mms://galaxy.live24.gr/galaxy9292'
p1005
sg6
V24
p1006
sg8
VGalaxy 92
p1007
ssS'25'
p1008
(dp1009
g406
S'http://realfm.live24.gr/realfm'
p1010
sg6
V25
p1011
sg8
VReal Fm 97.8
p1012
ssS'26'
p1013
(dp1014
g406
S'http://village883.live24.gr/village883'
p1015
sg6
V26
p1016
sg8
VV Fm 88.3
p1017
ssS'27'
p1018
(dp1019
g406
S'mms://derti.live24.gr/derty1000'
p1020
sg6
V27
p1021
sg8
VDerti 98.6
p1022
ssS'20'
p1023
(dp1024
g101
S'http://91.132.6.21:8001'
p1025
sg6
V20
p1026
sg8
VAthens Dee Jay 95.2
p1027
ssS'21'
p1028
(dp1029
g6
V21
p1030
sg8
VRock Fm 96.9
p1031
ssS'22'
p1032
(dp1033
g406
S'mms://orange.live24.gr/orange9320'
p1034
sg6
V22
p1035
sg8
VHappy 93.2
p1036
ssS'23'
p1037
(dp1038
g406
S'mms://enleuko.live24.gr/enleuko877'
p1039
sg6
V23
p1040
sg8
V\u0395\u03bd \u039b\u03b5\u03c5\u03ba\u03ce 87.7
p1041
ssS'28'
p1042
(dp1043
g406
S'http://diesi.live24.gr/diesi1013'
p1044
sg6
V28
p1045
sg8
V\u0394\u03af\u03b5\u03c3\u03b7 101.3
p1046
ssS'29'
p1047
(dp1048
g406
S'mms://sportfm.live24.gr/sportfm7712'
p1049
sg6
V29
p1050
sg8
VNova Sport Fm 94.6
p1051
ssS'407'
p1052
(dp1053
g6
V407
p1054
sg8
V\u03a1\u03ac\u03b4\u03b9\u03bf \u03a7\u03b5\u03c1\u03c3\u03cc\u03bd\u03b7\u03c3\u03c3\u03bf\u03c2 97.2
p1055
ssS'406'
p1056
(dp1057
g6
V406
p1058
sg8
VMetro 89.2
p1059
ssS'405'
p1060
(dp1061
g101
S'http://s3.onweb.gr:8438/'
p1062
sg6
V405
p1063
sg8
VMax 92.5
p1064
ssS'404'
p1065
(dp1066
g6
V404
p1067
sg8
VLava Fm 107.7
p1068
ssS'403'
p1069
(dp1070
g6
V403
p1071
sg8
V\u039d\u03ad\u03bf \u03a1\u03b1\u03b4\u03b9\u03cc\u03c6\u03c9\u03bd\u03bf 102.3
p1072
ssS'402'
p1073
(dp1074
g406
S'http://eco.onestreaming.com:8237/live'
p1075
sg6
V402
p1076
sg8
VRadio 98.4
p1077
ssS'401'
p1078
(dp1079
g101
S'http://s4.onweb.gr:8484'
p1080
sg6
V401
p1081
sg8
V\u039d\u03cc\u03c4\u03bf\u03c2 101.8
p1082
ssS'400'
p1083
(dp1084
g6
V400
p1085
sg8
V\u03a1\u03ac\u03b4\u03b9\u03bf \u039c\u03b1\u03c1\u03c4\u03c5\u03c1\u03af\u03b1 95.5
p1086
ssS'933'
p1087
(dp1088
g101
S'http://shoutcast.24radio.gr:8042/'
p1089
sg6
V933
p1090
sg8
VSfera 91
p1091
ssS'932'
p1092
(dp1093
g575
S'http://www.ghostradio.gr/world-128'
p1094
sg6
V932
p1095
sg8
VGhost Radio
p1096
ssS'409'
p1097
(dp1098
g6
V409
p1099
sg8
V\u0389\u03c7\u03bf\u03c2 Fm 94.2
p1100
ssS'934'
p1101
(dp1102
g101
S'http://174.36.237.66:8000/'
p1103
sg6
V934
p1104
sg8
VMusic Box Fm
p1105
ssS'1028'
p1106
(dp1107
g101
S'http://208.43.115.44:8056/'
p1108
sg6
V1028
p1109
sg8
V\u03a0\u03b1\u03bd\u03b9\u03ba\u03cc\u03c2 Fm
p1110
ssS'379'
p1111
(dp1112
g6
V379
p1113
sg8
VSmooth Traxx
p1114
ssS'378'
p1115
(dp1116
g6
V378
p1117
sg8
V\u03a7\u03c1\u03b9\u03c3\u03c4\u03b9\u03b1\u03bd\u03b9\u03ba\u03ae \u0391\u03bb\u03ae\u03b8\u03b5\u03b9\u03b1 88.4
p1118
ssS'228'
p1119
(dp1120
g575
S'mms://radio.greekstream.net/ekrixi'
p1121
sg6
V228
p1122
sg8
V\u0388\u03ba\u03c1\u03b7\u03be\u03b7 Fm 99.7
p1123
ssS'371'
p1124
(dp1125
g101
S'http://s1.onweb.gr:8008/'
p1126
sg6
V371
p1127
sg8
VAquarius 105.5
p1128
ssS'370'
p1129
(dp1130
g6
V370
p1131
sg8
V\u0395\u03bd\u03b1\u03bb\u03bb\u03ac\u03be Fm 99.9
p1132
ssS'373'
p1133
(dp1134
S'url'
p1135
S'mms://m2.onweb.gr/amorefm'
p1136
sg6
V373
p1137
sg8
VAmore Fm 107.9
p1138
ssS'372'
p1139
(dp1140
g101
S'http://s4.onweb.gr:8080'
p1141
sg6
V372
p1142
sg8
V\u03a1\u03ac\u03b4\u03b9\u03bf \u03a5\u03c0\u03ac\u03c1\u03c7\u03c9 103.7
p1143
ssS'375'
p1144
(dp1145
g1135
S'mms://radiofeeds1.mediabox.gr/attradio'
p1146
sg6
V375
p1147
sg8
VAttradio
p1148
ssS'820'
p1149
(dp1150
g101
S'http://shoutcast.24radio.gr:8066/'
p1151
sg6
V820
p1152
sg8
VBee Radio
p1153
ssS'377'
p1154
(dp1155
g1135
S'http://live.onestreaming.com/spyridon'
p1156
sg6
V377
p1157
sg8
V\u0386\u03b3\u03b9\u03bf\u03c2 \u03a3\u03c0\u03c5\u03c1\u03af\u03b4\u03c9\u03bd 91.1
p1158
ssS'376'
p1159
(dp1160
g6
V376
p1161
sg8
VIEK Delta Radio Alt.
p1162
ssS'709'
p1163
(dp1164
g6
V709
p1165
sg8
VEnergy Corfu 95.7
p1166
ssS'704'
p1167
(dp1168
g101
S'http://eco.onestreaming.com:8226'
p1169
sg6
V704
p1170
sg8
VTop Fm 96.9
p1171
ssS'705'
p1172
(dp1173
g6
V705
p1174
sg8
VStatus Radio 94.2
p1175
ssS'706'
p1176
(dp1177
g1135
S'http://live.onestreaming.com/novamusic'
p1178
sg6
V706
p1179
sg8
VNova Radio 93.1
p1180
ssS'707'
p1181
(dp1182
g101
S'http://46.4.82.77:9998/'
p1183
sg6
V707
p1184
sg8
V\u03a7\u03c9\u03c1\u03af\u03c2 \u038c\u03c1\u03b9\u03b1
p1185
ssS'700'
p1186
(dp1187
g6
V700
p1188
sg8
VHello Radio
p1189
ssS'701'
p1190
(dp1191
g6
V701
p1192
sg8
VRadio Hxos Maik
p1193
ssS'702'
p1194
(dp1195
g1135
S'http://relay4.mindradio.gr:80/live'
p1196
sg6
V702
p1197
sg8
VMind Radio
p1198
ssS'703'
p1199
(dp1200
g101
S'http://159.253.149.12:8094'
p1201
sg6
V703
p1202
sg8
VTropic Radio
p1203
ssS'393'
p1204
(dp1205
g101
S'http://s9.onweb.gr:8044/'
p1206
sg6
V393
p1207
sg8
VMad 95
p1208
ssS'392'
p1209
(dp1210
g101
S'http://s9.onweb.gr:8802'
p1211
sg6
V392
p1212
sg8
V\u03a1\u03ac\u03b4\u03b9\u03bf \u039b\u03b1\u03c3\u03ae\u03b8\u03b9 92.3
p1213
ssS'391'
p1214
(dp1215
g1135
S'http://live.onestreaming.com/planetradio'
p1216
sg6
V391
p1217
sg8
VPlanet Radio 90.6
p1218
ssS'390'
p1219
(dp1220
g101
S'http://s4.onweb.gr:8466/'
p1221
sg6
V390
p1222
sg8
VRadio Melody 88
p1223
ssS'397'
p1224
(dp1225
g6
V397
p1226
sg8
V\u03a1\u03ac\u03b4\u03b9\u03bf \u039a\u03c1\u03ae\u03c4\u03b7 101.5
p1227
ssS'396'
p1228
(dp1229
g1135
S'http://live.onestreaming.com/hxofm'
p1230
sg6
V396
p1231
sg8
V\u0397\u03c7\u03ce Fm 99.8
p1232
ssS'395'
p1233
(dp1234
g6
V395
p1235
sg8
V\u0394\u03af\u03b1\u03c5\u03bb\u03bf\u03c2 96.9
p1236
ssS'394'
p1237
(dp1238
g6
V394
p1239
sg8
VAtlantis Fm 105.2
p1240
ssS'82'
p1241
(dp1242
g1135
S'http://imagine.1stepstream.com:8000/live.m3u'
p1243
sg6
V82
p1244
sg8
VImagine 89.7
p1245
ssS'83'
p1246
(dp1247
g6
V83
p1248
sg8
VVelvet 96.8
p1249
ssS'80'
p1250
(dp1251
g6
V80
p1252
sg8
VFm 100
p1253
ssS'398'
p1254
(dp1255
g6
V398
p1256
sg8
V\u039b\u03b1\u03c4\u03ce Fm 103.3
p1257
ssS'86'
p1258
(dp1259
g101
S'http://stream.greekradios.gr:4000'
p1260
sg6
V86
p1261
sg8
VRainbow 89
p1262
ssS'87'
p1263
(dp1264
g101
S'http://83.133.127.198:9096'
p1265
sg6
V87
p1266
sg8
VRock Radio 104.7
p1267
ssS'84'
p1268
(dp1269
g6
V84
p1270
sg8
V\u03a0\u03b1\u03bb\u03bc\u03cc\u03c2 96.5
p1271
ssS'85'
p1272
(dp1273
g6
V85
p1274
sg8
V\u038c\u03bb\u03b1 Fm 91.4
p1275
ssS'797'
p1276
(dp1277
g6
V797
p1278
sg8
VGiga Fm 105.4
p1279
ssS'794'
p1280
(dp1281
g6
V794
p1282
sg8
VRadio Mora
p1283
ssS'793'
p1284
(dp1285
g6
V793
p1286
sg8
V\u03a1\u03ac\u03b4\u03b9\u03bf \u0388\u03bd\u03c4\u03b5\u03c7\u03bd\u03bf\u03c2
p1287
ssS'791'
p1288
(dp1289
g101
S'http://shoutcast.24radio.gr:8056/'
p1290
sg6
V791
p1291
sg8
V\u03a1\u03ac\u03b4\u03b9\u03bf \u039c\u03ad\u03bb\u03b9 106
p1292
ssS'790'
p1293
(dp1294
g101
S'http://75.75.226.26:7099'
p1295
sg6
V790
p1296
sg8
VBlue Station
p1297
ssS'799'
p1298
(dp1299
g101
S'http://s8.onweb.gr:8706'
p1300
sg6
V799
p1301
sg8
VFresh 92.9
p1302
ssS'798'
p1303
(dp1304
g6
V798
p1305
sg8
VSchool Radio Ekali
p1306
ssS'601'
p1307
(dp1308
g6
V601
p1309
sg8
VGlam Radio
p1310
ssS'170'
p1311
(dp1312
g6
V170
p1313
sg8
VDance Radio Deep House
p1314
ssS'607'
p1315
(dp1316
g101
S'http://s2.onweb.gr:8600/'
p1317
sg6
V607
p1318
sg8
VDream Radio
p1319
ssS'586'
p1320
(dp1321
g1135
S'http://ams02.egihosting.com/6020'
p1322
sg6
V586
p1323
sg8
VMelody 96.8
p1324
ssS'587'
p1325
(dp1326
g101
S'http://s6.onweb.gr:8046'
p1327
sg6
V587
p1328
sg8
VRadio Cafe 96.7
p1329
ssS'584'
p1330
(dp1331
g101
S'http://85.25.171.129:6000'
p1332
sg6
V584
p1333
sg8
V\u03a1\u03ac\u03b4\u03b9\u03bf \u0391\u03af\u03b3\u03b9\u03bf 99.2
p1334
ssS'585'
p1335
(dp1336
g6
V585
p1337
sg8
V\u03a1\u03ac\u03b4\u03b9\u03bf \u0395\u03bd\u03b7\u03bc\u03ad\u03c1\u03c9\u03c3\u03b7 92.2
p1338
ssS'582'
p1339
(dp1340
g101
S'http://78.46.46.214:7048'
p1341
sg6
V582
p1342
sg8
VMusic Art Club
p1343
ssS'583'
p1344
(dp1345
g6
V583
p1346
sg8
VAir 104.4
p1347
ssS'580'
p1348
(dp1349
g1135
S'http://live.onestreaming.com/mixgrevena'
p1350
sg6
V580
p1351
sg8
VMix Fm 102.2
p1352
ssS'581'
p1353
(dp1354
g6
V581
p1355
sg8
VAntenna Star 105.9
p1356
ssS'588'
p1357
(dp1358
g101
S'http://s4.onweb.gr:8414'
p1359
sg6
V588
p1360
sg8
VMedia 92
p1361
ssS'589'
p1362
(dp1363
g101
S'http://s1.onweb.gr:8410/'
p1364
sg6
V589
p1365
sg8
VVenus Radio 99.3
p1366
ssS'245'
p1367
(dp1368
g6
V245
p1369
sg8
V\u039e\u03ac\u03bd\u03b8\u03b7 Dee Jay 90.6
p1370
ssS'244'
p1371
(dp1372
g101
S'http://s3.onweb.gr:8520'
p1373
sg6
V244
p1374
sg8
V\u03a1/\u03a3 \u0391\u03b3\u03b9\u03ac\u03c2 94.2
p1375
ssS'247'
p1376
(dp1377
g101
S'http://62.212.82.142:8033'
p1378
sg6
V247
p1379
sg8
VLive Fm 89.6
p1380
ssS'246'
p1381
(dp1382
g6
V246
p1383
sg8
V\u03a3\u03bf\u03ba Fm 104.8
p1384
ssS'241'
p1385
(dp1386
g6
V241
p1387
sg8
V\u0391\u03c1\u03b9\u03c3\u03c4\u03b5\u03c1\u03ac \u03a3\u03c4\u03b1 Fm 90.1
p1388
ssS'614'
p1389
(dp1390
g101
S'http://radio.mythosfm.gr:8010'
p1391
sg6
V614
p1392
sg8
V\u039c\u03cd\u03b8\u03bf\u03c2 Fm 90.6
p1393
ssS'243'
p1394
(dp1395
g101
S'http://eco.onestreaming.com:8103'
p1396
sg6
V243
p1397
sg8
V\u03a1/\u03a3 \u039a\u03b9\u03c3\u03c3\u03ac\u03b2\u03bf\u03c5 97.8
p1398
ssS'242'
p1399
(dp1400
g1135
S'http://m1.onweb.gr/palace'
p1401
sg6
V242
p1402
sg8
VPalace 91.4
p1403
ssS'615'
p1404
(dp1405
g6
V615
p1406
sg8
VUp Fm 92.5
p1407
ssS'249'
p1408
(dp1409
g1135
S'http://hotsoft.ws:8086/magicfm'
p1410
sg6
V249
p1411
sg8
VMagic Fm 98.2
p1412
ssS'248'
p1413
(dp1414
g6
V248
p1415
sg8
VKosmos Fm 100
p1416
ssS'519'
p1417
(dp1418
g101
S'http://188.40.131.14:8068/'
p1419
sg6
V519
p1420
sg8
VRadio Lepanto 101.4
p1421
ssS'518'
p1422
(dp1423
g6
V518
p1424
sg8
VStar Fm 90.9
p1425
ssS'511'
p1426
(dp1427
g6
V511
p1428
sg8
V\u03a7\u03af\u03bf\u03c2 Fm 97.8
p1429
ssS'1006'
p1430
(dp1431
g6
V1006
p1432
sg8
VMidnight Radio
p1433
ssS'1005'
p1434
(dp1435
g101
S'http://s2.onweb.gr:8654/'
p1436
sg6
V1005
p1437
sg8
VRadio1 Dance
p1438
ssS'512'
p1439
(dp1440
g6
V512
p1441
sg8
VDream On
p1442
ssS'1003'
p1443
(dp1444
g101
S'http://208.43.115.44:8138/'
p1445
sg6
V1003
p1446
sg8
VCannibal Radio
p1447
ssS'514'
p1448
(dp1449
g1135
S'http://live.onestreaming.com/avanti'
p1450
sg6
V514
p1451
sg8
VAvanti Fm 98.3
p1452
ssS'1001'
p1453
(dp1454
g101
S'http://shout.streamwithq.gr:4104/'
p1455
sg6
V1001
p1456
sg8
VAntenna Fm12 94.4
p1457
ssS'1000'
p1458
(dp1459
g101
S'http://shout.streamwithq.gr:4066/'
p1460
sg6
V1000
p1461
sg8
V\u0391\u03ba\u03c4\u03af\u03bd\u03b1 Radio 104.7
p1462
ssS'623'
p1463
(dp1464
g6
V623
p1465
sg8
VVeto Fm 91
p1466
ssS'622'
p1467
(dp1468
g101
S'http://radionostalgiagr.dyndns.org:2314/'
p1469
sg6
V622
p1470
sg8
V\u03a1\u03ac\u03b4\u03b9\u03bf \u039d\u03bf\u03c3\u03c4\u03b1\u03bb\u03b3\u03af\u03b1
p1471
ssS'621'
p1472
(dp1473
g1135
S'mms://captainjack.live24.gr/captainjack9660'
p1474
sg6
V621
p1475
sg8
V\u0394\u03af\u03c6\u03c9\u03bd\u03bf 96.6
p1476
ssS'620'
p1477
(dp1478
g6
V620
p1479
sg8
V\u03a1/\u03a3 \u039c\u03b5\u03c3\u03bf\u03bb\u03bf\u03b3\u03b3\u03af\u03bf\u03c5 92
p1480
ssS'627'
p1481
(dp1482
g6
V627
p1483
sg8
VArtemis Fm 94.4
p1484
ssS'626'
p1485
(dp1486
g1135
S'http://golive.onestreaming.com/musices'
p1487
sg6
V626
p1488
sg8
VMusicES Radio
p1489
ssS'624'
p1490
(dp1491
g6
V624
p1492
sg8
V\u039a\u03b1\u03bd\u03ac\u03bb\u03b9 1 90.4
p1493
ssS'1085'
p1494
(dp1495
g101
S'http://shoutcast.24radio.gr:8022'
p1496
sg6
V1085
p1497
sg8
VHot Rockin Radio
p1498
ssS'179'
p1499
(dp1500
g101
S'http://s5.onweb.gr:8506/'
p1501
sg6
V179
p1502
sg8
VTraffic Fm 91.8
p1503
ssS'178'
p1504
(dp1505
g6
V178
p1506
sg8
VJust Radio 93
p1507
ssS'177'
p1508
(dp1509
g1135
S'mms://kiss-fm-kard.live24.gr/kiss-fm-kard'
p1510
sg6
V177
p1511
sg8
VKiss 100.4
p1512
ssS'176'
p1513
(dp1514
g6
V176
p1515
sg8
VDiscomania
p1516
ssS'175'
p1517
(dp1518
g1135
S'http://live.onestreaming.com/paradiseradio'
p1519
sg6
V175
p1520
sg8
VParadise 90.3
p1521
ssS'174'
p1522
(dp1523
g6
V174
p1524
sg8
VNoize Radio 93.5
p1525
ssS'173'
p1526
(dp1527
g101
S'http://s6.onweb.gr:8032'
p1528
sg6
V173
p1529
sg8
VKiss 96.1
p1530
ssS'172'
p1531
(dp1532
g101
S'http://eco.onestreaming.com:8068'
p1533
sg6
V172
p1534
sg8
VTop Fm
p1535
ssS'171'
p1536
(dp1537
S'url'
p1538
S'mms://live.onestreaming.com/radio996/'
p1539
sg6
V171
p1540
sg8
VRadio 99.6
p1541
ssS'198'
p1542
(dp1543
g101
S'http://85.17.30.90:9984'
p1544
sg6
V198
p1545
sg8
VHot Mix Fm 88
p1546
ssS'977'
p1547
(dp1548
g101
S'http://50.7.243.50:8062/'
p1549
sg6
V977
p1550
sg8
VLight Radio
p1551
ssS'183'
p1552
(dp1553
g6
V183
p1554
sg8
VNRG 89.5
p1555
ssS'654'
p1556
(dp1557
g6
V654
p1558
sg8
V\u0394\u03af\u03b1\u03c5\u03bb\u03bf\u03c2 91.1
p1559
ssS'182'
p1560
(dp1561
g6
V182
p1562
sg8
V\u03a1\u03ac\u03b4\u03b9\u03bf \u0388\u03bd\u03c4\u03b1\u03c3\u03b7 93.5
p1563
ssS'599'
p1564
(dp1565
g1135
S'http://sportfmpatras.live24.gr/sportfmpatras'
p1566
sg6
V599
p1567
sg8
VSport Fm \u03a0\u03ac\u03c4\u03c1\u03b1\u03c2 96.3 
p1568
ssS'180'
p1569
(dp1570
g6
V180
p1571
sg8
VNRG 95
p1572
ssS'181'
p1573
(dp1574
g6
V181
p1575
sg8
VCapital 90.7
p1576
ssS'186'
p1577
(dp1578
g1135
S'http://live.onestreaming.com/elladaradio'
p1579
sg6
V186
p1580
sg8
V\u0395\u03bb\u03bb\u03ac\u03b4\u03b1 Fm 96.7
p1581
ssS'653'
p1582
(dp1583
g6
V653
p1584
sg8
VBest Radio 101.1
p1585
ssS'184'
p1586
(dp1587
g6
V184
p1588
sg8
VMax 100.2
p1589
ssS'185'
p1590
(dp1591
g1135
S'http://avantifm.live24.gr/avantifm'
p1592
sg6
V185
p1593
sg8
VAvanti 107.6
p1594
ssS'652'
p1595
(dp1596
g6
V652
p1597
sg8
V\u03a7\u03b1\u03bd\u03b9\u03ac Fm 33
p1598
ssS'188'
p1599
(dp1600
g6
V188
p1601
sg8
V\u03a1\u03ac\u03b4\u03b9\u03bf \u039c\u03b5\u03b8\u03cc\u03c1\u03b9\u03bf\u03c2 96
p1602
ssS'189'
p1603
(dp1604
g101
S'http://eco.onestreaming.com:8107/'
p1605
sg6
V189
p1606
sg8
V\u039a\u03b1\u03c3\u03c4\u03bf\u03c1\u03b9\u03ac Fm 91.5
p1607
ssS'658'
p1608
(dp1609
g1538
S'http://radio.metalzone.gr/listen.php?type=asx'
p1610
sg6
V658
p1611
sg8
VMetal Zone
p1612
ssS'187'
p1613
(dp1614
g6
V187
p1615
sg8
V\u0395\u03bb\u03bb\u03ac\u03b4\u03b1 Fm 98.7
p1616
ssS'650'
p1617
(dp1618
g101
S'http://shoutcast.24radio.gr:8068'
p1619
sg6
V650
p1620
sg8
V\u0388\u03bd\u03c4\u03b5\u03c7\u03bd\u03bf\u03c2 Fm
p1621
ssS'651'
p1622
(dp1623
g6
V651
p1624
sg8
V\u03a1\u03ac\u03b4\u03b9\u03bf \u0395\u03c0\u03b9\u03bb\u03bf\u03b3\u03ad\u03c2 102.8
p1625
ssS'17'
p1626
(dp1627
g101
S'http://shoutcast.24radio.gr:8000'
p1628
sg6
V17
p1629
sg8
VHybrid Radio 94.9
p1630
ssS'19'
p1631
(dp1632
g1135
S'mms://nordr.live24.gr/rythmos949ath'
p1633
sg6
V19
p1634
sg8
V\u03a1\u03c5\u03b8\u03bc\u03cc\u03c2 94.9
p1635
ssS'18'
p1636
(dp1637
g101
S'http://shoutcast.24radio.gr:8002'
p1638
sg6
V18
p1639
sg8
VRockStar
p1640
ssS'947'
p1641
(dp1642
g6
V947
p1643
sg8
VWild Radio
p1644
ssS'659'
p1645
(dp1646
g6
V659
p1647
sg8
V\u03a1\u03ac\u03b4\u03b9\u03bf \u03a7\u03b1\u03bb\u03ba\u03af\u03b4\u03b1 99.6
p1648
ssS'753'
p1649
(dp1650
g101
S'http://shoutcast.24radio.gr:8042/'
p1651
sg6
V753
p1652
sg8
VSpace Fm 107.5
p1653
ssS'116'
p1654
(dp1655
g6
V116
p1656
sg8
VPirate Fm 91
p1657
ssS'45'
p1658
(dp1659
g1135
S'mms://flash.live24.gr/flash5252'
p1660
sg6
V45
p1661
sg8
VFlash 96
p1662
ssS'657'
p1663
(dp1664
g6
V657
p1665
sg8
VCity 93
p1666
ssS'355'
p1667
(dp1668
g6
V355
p1669
sg8
VLove Radio 105.5
p1670
ssS'322'
p1671
(dp1672
g101
S'http://shout.streamwithq.gr:4110/'
p1673
sg6
V322
p1674
sg8
VRadio Retro 105.4
p1675
ssS'323'
p1676
(dp1677
g1135
S'http://live.onestreaming.com/radionetlamia'
p1678
sg6
V323
p1679
sg8
VRadio Net 101.9
p1680
ssS'320'
p1681
(dp1682
g1135
S'http://hotsoft.ws:8086/mk?.wma'
p1683
sg6
V320
p1684
sg8
V\u039c\u03bf\u03c5\u03c3\u03b9\u03ba\u03cc \u039a\u03b1\u03bd\u03ac\u03bb\u03b9 101.3
p1685
ssS'354'
p1686
(dp1687
g101
S'http://s1.onweb.gr:8838'
p1688
sg6
V354
p1689
sg8
VMaximum 93.6
p1690
ssS'326'
p1691
(dp1692
g6
V326
p1693
sg8
VSports \u0395\u03c0\u03b9\u03bb\u03bf\u03b3\u03ad\u03c2 105.5
p1694
ssS'324'
p1695
(dp1696
g1538
S'mms://live.istoikona.com/topfm'
p1697
sg6
V324
p1698
sg8
VTop Fm 102.4
p1699
ssS'325'
p1700
(dp1701
g6
V325
p1702
sg8
VSport Fm \u039e\u03ac\u03bd\u03b8\u03b7 98.4
p1703
ssS'328'
p1704
(dp1705
g6
V328
p1706
sg8
VRadio 24
p1707
ssS'329'
p1708
(dp1709
g1135
S'http://www.streamyourdream.org:8000/acroama.m3u'
p1710
sg6
V329
p1711
sg8
V\u0391\u03ba\u03c1\u03cc\u03b1\u03bc\u03b1 99.8
p1712
ssS'688'
p1713
(dp1714
g101
S'http://78.46.46.215:7056'
p1715
sg6
V688
p1716
sg8
VBaby Radio
p1717
ssS'775'
p1718
(dp1719
g1135
S'http://streaming.hotmix-radio.net/hotmixradio-80-128.mp3'
p1720
sg6
V775
p1721
sg8
VYeah! Radio
p1722
ssS'774'
p1723
(dp1724
g6
V774
p1725
sg8
VMusicmania
p1726
ssS'203'
p1727
(dp1728
g101
S'http://stream.greekradios.gr:8050'
p1729
sg6
V203
p1730
sg8
V\u03a0\u03b1\u03bb\u03bc\u03cc\u03c2 99.5
p1731
ssS'202'
p1732
(dp1733
g101
S'http://s1.onweb.gr:8076/'
p1734
sg6
V202
p1735
sg8
VRadio1 88
p1736
ssS'771'
p1737
(dp1738
g1135
S'http://streams.gr:8060/gafm'
p1739
sg6
V771
p1740
sg8
V\u0393\u03b1\u03bb\u03b1\u03be\u03af\u03b1\u03c2 Fm 92.1
p1741
ssS'204'
p1742
(dp1743
g6
V204
p1744
sg8
VHot Radio 99
p1745
ssS'773'
p1746
(dp1747
g6
V773
p1748
sg8
VAlpha 94.7
p1749
ssS'206'
p1750
(dp1751
g6
V206
p1752
sg8
VRodos Fm 90.7
p1753
ssS'209'
p1754
(dp1755
g6
V209
p1756
sg8
V\u03a1\u03ac\u03b4\u03b9\u03bf \u039b\u03b5\u03c5\u03ba\u03af\u03bc\u03bc\u03b7 105.5
p1757
ssS'208'
p1758
(dp1759
g6
V208
p1760
sg8
VPrisma Fm 91.8
p1761
ssS'779'
p1762
(dp1763
g6
V779
p1764
sg8
V\u03a1\u03c5\u03b8\u03bc\u03cc\u03c2 Fm 106
p1765
ssS'778'
p1766
(dp1767
g6
V778
p1768
sg8
V\u03a3\u03c6\u03b7\u03bd\u03ac\u03ba\u03b9\u03b1 Fm 97.3
p1769
ssS'77'
p1770
(dp1771
S'url'
p1772
S'http://78.129.143.157:8000/heartfm.m3u'
p1773
sg6
V77
p1774
sg8
VHeart 93.1
p1775
ssS'76'
p1776
(dp1777
g6
V76
p1778
sg8
V\u039b\u03b1\u03ca\u03ba\u03cc\u03c2 87.6
p1779
ssS'75'
p1780
(dp1781
g6
V75
p1782
sg8
VRSO 91.7
p1783
ssS'74'
p1784
(dp1785
g6
V74
p1786
sg8
VMetropolis 95.5
p1787
ssS'73'
p1788
(dp1789
g1772
S'http://178.32.72.194:8050/eroticos'
p1790
sg6
V73
p1791
sg8
V\u0395\u03c1\u03c9\u03c4\u03b9\u03ba\u03cc\u03c2 94.8
p1792
ssS'72'
p1793
(dp1794
S'url'
p1795
S'http://178.32.72.194:8060/rthes'
p1796
sg6
V72
p1797
sg8
V\u03a1\u03ac\u03b4\u03b9\u03bf \u0398\u03b5\u03c3\u03c3\u03b1\u03bb\u03bf\u03bd\u03af\u03ba\u03b7 94.5
p1798
ssS'71'
p1799
(dp1800
g1795
S'http://eco.onestreaming.com:8083'
p1801
sg6
V71
p1802
sg8
VSunshine 107.7
p1803
ssS'70'
p1804
(dp1805
g1795
S'http://eco.onestreaming.com:8081'
p1806
sg6
V70
p1807
sg8
VLibero 107.4
p1808
ssS'655'
p1809
(dp1810
g6
V655
p1811
sg8
VPowerMix Fm
p1812
ssS'79'
p1813
(dp1814
g1772
S'http://golive.onestreaming.com/sport103'
p1815
sg6
V79
p1816
sg8
VSport 103 Fm
p1817
ssS'78'
p1818
(dp1819
g1795
S'http://sc2.greekstream.net:4012'
p1820
sg6
V78
p1821
sg8
V\u0388\u03ba\u03c6\u03c1\u03b1\u03c3\u03b7 92.4
p1822
ssS'1040'
p1823
(dp1824
g1795
S'http://s2.onweb.gr:8604/'
p1825
sg6
V1040
p1826
sg8
V\u03a7\u03b1\u03bd\u03b9\u03ac Fm 98.9
p1827
ssS'1048'
p1828
(dp1829
g1795
S'http://85.17.177.77:8010'
p1830
sg6
V1048
p1831
sg8
VGo Radio
p1832
ssS'804'
p1833
(dp1834
g6
V804
p1835
sg8
VNikos Radio
p1836
ssS'669'
p1837
(dp1838
g6
V669
p1839
sg8
V\u039b\u03ac\u03bc\u03c8\u03b7 106.3
p1840
ssS'668'
p1841
(dp1842
g1795
S'http://s6.onweb.gr:8018/'
p1843
sg6
V668
p1844
sg8
V\u03a1\u03ac\u03b4\u03b9\u03bf \u03a0\u03b9\u03b5\u03c1\u03af\u03b1 104.2
p1845
ssS'667'
p1846
(dp1847
g6
V667
p1848
sg8
VSafari 106.7
p1849
ssS'666'
p1850
(dp1851
g6
V666
p1852
sg8
VHit Fm 103.5
p1853
ssS'664'
p1854
(dp1855
g1795
S'http://s5.onweb.gr:8488'
p1856
sg6
V664
p1857
sg8
VCavo Paradiso Radio
p1858
ssS'663'
p1859
(dp1860
g1795
S'http://s2.onweb.gr:8648/'
p1861
sg6
V663
p1862
sg8
V\u03a1\u03ac\u03b4\u03b9\u03bf \u0391\u03c0\u03cc\u03bb\u03bb\u03c9\u03bd
p1863
ssS'662'
p1864
(dp1865
g6
V662
p1866
sg8
VElectrocaine Radio
p1867
ssS'661'
p1868
(dp1869
g1795
S'http://s3.onweb.gr:8514'
p1870
sg6
V661
p1871
sg8
VMelody Fm 88.8
p1872
ssS'660'
p1873
(dp1874
g6
V660
p1875
sg8
VVenus 91.1
p1876
ssS'769'
p1877
(dp1878
g6
V769
p1879
sg8
VTop Fm 105
p1880
ssS'692'
p1881
(dp1882
g6
V692
p1883
sg8
VAlina Radio
p1884
ssS'693'
p1885
(dp1886
g6
V693
p1887
sg8
V\u039b\u03ac\u03bc\u03c8\u03b7 88.6
p1888
ssS'690'
p1889
(dp1890
g6
V690
p1891
sg8
VGap Radio
p1892
ssS'691'
p1893
(dp1894
g1772
S'http://minorefm.live24.gr/minorefm'
p1895
sg6
V691
p1896
sg8
V\u039c\u03b9\u03bd\u03cc\u03c1\u03b5 Fm
p1897
ssS'696'
p1898
(dp1899
g1795
S'http://108.60.201.114:8150'
p1900
sg6
V696
p1901
sg8
V\u0395\u03bb\u03bb\u03b7\u03bd\u03b9\u03ba\u03cc\u03c2 Fm
p1902
ssS'697'
p1903
(dp1904
g6
V697
p1905
sg8
VRadio Romeos Fm 94
p1906
ssS'694'
p1907
(dp1908
g6
V694
p1909
sg8
VDance Radio Progressive
p1910
ssS'695'
p1911
(dp1912
g1795
S'http://s1.onweb.gr:8034/'
p1913
sg6
V695
p1914
sg8
V\u039c\u03bf\u03c5\u03c3\u03b9\u03ba\u03cc\u03c2 \u0393\u03b1\u03bb\u03b1\u03be\u03af\u03b1\u03c2 105.8
p1915
ssS'699'
p1916
(dp1917
g6
V699
p1918
sg8
VPlace Fm
p1919
ssS'222'
p1920
(dp1921
g6
V222
p1922
sg8
V\u0395\u03c0\u03b9\u03ba\u03bf\u03b9\u03bd\u03c9\u03bd\u03af\u03b1 Fm 94
p1923
ssS'543'
p1924
(dp1925
g6
V543
p1926
sg8
V\u03a1\u03ac\u03b4\u03b9\u03bf \u0391\u03ba\u03b1\u03c1\u03bd\u03b1\u03bd\u03af\u03b1 97.1
p1927
ssS'540'
p1928
(dp1929
g6
V540
p1930
sg8
VGalaxy Fm 106.1
p1931
ssS'541'
p1932
(dp1933
g1795
S'http://shoutcast.24radio.gr:8014'
p1934
sg6
V541
p1935
sg8
VMaster Fm 90.2
p1936
ssS'546'
p1937
(dp1938
g6
V546
p1939
sg8
VSiesta Radio
p1940
ssS'547'
p1941
(dp1942
g1795
S'http://shout.streamwithq.gr:4100/'
p1943
sg6
V547
p1944
sg8
V\u039a\u03c1\u03b7\u03c4\u03b9\u03ba\u03ae \u03a1\u03b1\u03b4\u03b9\u03bf\u03c6\u03c9\u03bd\u03af\u03b1 \u0391\u03c4\u03c4\u03b9\u03ba\u03ae\u03c2 91.4
p1945
ssS'544'
p1946
(dp1947
g1795
S'http://78.46.46.215:7040/'
p1948
sg6
V544
p1949
sg8
V\u0395\u03c1\u03c9\u03b4\u03b9\u03cc\u03c2 \u039b\u03b1\u03b9\u03ba\u03cc\u03c2
p1950
ssS'545'
p1951
(dp1952
g1795
S'http://147.102.85.34:8000'
p1953
sg6
V545
p1954
sg8
V98 Fm
p1955
ssS'548'
p1956
(dp1957
g6
V548
p1958
sg8
V\u03a1\u03ac\u03b4\u03b9\u03bf \u039a\u03c1\u03ae\u03c4\u03b5\u03c2
p1959
ssS'549'
p1960
(dp1961
g1795
S'mms://live.istoikona.com/lgr'
p1962
sg6
V549
p1963
sg8
VLGR 103.3
p1964
ssS'994'
p1965
(dp1966
g1795
S'http://109.169.26.190:8018'
p1967
sg6
V994
p1968
sg8
VGr8 Radio
p1969
ssS'990'
p1970
(dp1971
g6
V990
p1972
sg8
VPs Radio
p1973
ssS'993'
p1974
(dp1975
g1795
S'http://shout.streamwithq.gr:4138/'
p1976
sg6
V993
p1977
sg8
V\u0391\u03bb\u03ae\u03b8\u03b5\u03b9\u03b1 Fm 96.3 
p1978
ssS'992'
p1979
(dp1980
g1795
S'http://p8060.thewood.gr:9596/'
p1981
sg6
V992
p1982
sg8
VAthens One Fm
p1983
ssS'999'
p1984
(dp1985
g1795
S'http://178.32.57.58:8557/'
p1986
sg6
V999
p1987
sg8
VDisco 80\u005c's Radio
p1988
ssS'998'
p1989
(dp1990
g1795
S'http://shoutcast.24radio.gr:8022/'
p1991
sg6
V998
p1992
sg8
VDance Radio Cyprus
p1993
ssS'120'
p1994
(dp1995
g6
V120
p1996
sg8
V\u03a1\u03ac\u03b4\u03b9\u03bf \u0391\u03ba\u03c1\u03af\u03c4\u03b5\u03c2 102.3
p1997
ssS'121'
p1998
(dp1999
g1795
S'http://eco.onestreaming.com:8150'
p2000
sg6
V121
p2001
sg8
VYou Fm 100.1
p2002
ssS'123'
p2003
(dp2004
g1795
S'http://stream.kiss922.gr:59922/'
p2005
sg6
V123
p2006
sg8
VKiss 92.2
p2007
ssS'124'
p2008
(dp2009
g1772
S'http://golive.onestreaming.com/thepopfm'
p2010
sg6
V124
p2011
sg8
VThe Pop Fm 98.6
p2012
ssS'125'
p2013
(dp2014
g1772
S'http://live.onestreaming.com/radioactive'
p2015
sg6
V125
p2016
sg8
VRadio Active 91.3
p2017
ssS'126'
p2018
(dp2019
g1772
S'http://live.onestreaming.com/anemosfm'
p2020
sg6
V126
p2021
sg8
V\u0386\u03bd\u03b5\u03bc\u03bf\u03c2 95.6
p2022
ssS'127'
p2023
(dp2024
g1795
S'http://s4.onweb.gr:8428'
p2025
sg6
V127
p2026
sg8
V\u0391\u03c1\u03c7\u03b9\u03c0\u03ad\u03bb\u03b1\u03b3\u03bf\u03c2 87.6
p2027
ssS'128'
p2028
(dp2029
g6
V128
p2030
sg8
VLove Radio 88.2
p2031
ssS'129'
p2032
(dp2033
g1795
S'mms://live.istoikona.com/super'
p2034
sg6
V129
p2035
sg8
VSuper Radio 104.7
p2036
ssS'414'
p2037
(dp2038
g1795
S'mms://194.219.230.1:3690'
p2039
sg6
V414
p2040
sg8
VMega Creta 103.1
p2041
ssS'415'
p2042
(dp2043
g6
V415
p2044
sg8
V\u0394\u03af\u03ba\u03c4\u03c5\u03bf 102.4
p2045
ssS'416'
p2046
(dp2047
g6
V416
p2048
sg8
VAqualand Radio 94.8
p2049
ssS'410'
p2050
(dp2051
g6
V410
p2052
sg8
V\u039a\u03bd\u03c9\u03c3\u03cc\u03c2 Fm 100.6
p2053
ssS'411'
p2054
(dp2055
g1795
S'http://eco.onestreaming.com:8209'
p2056
sg6
V411
p2057
sg8
VCool Fm 106.8
p2058
ssS'412'
p2059
(dp2060
g1772
S'http://live.onestreaming.com/lampsifmcrete'
p2061
sg6
V412
p2062
sg8
V\u039b\u03ac\u03bc\u03c8\u03b7 92.9
p2063
ssS'413'
p2064
(dp2065
g6
V413
p2066
sg8
VAlpha Radio 106.2
p2067
ssS'137'
p2068
(dp2069
g1772
S'http://www.listenlive.eu/klikfm.m3u'
p2070
sg6
V137
p2071
sg8
V\u039a\u03bb\u03af\u03ba Fm 105.6
p2072
ssS'922'
p2073
(dp2074
g1795
S'http://67.212.189.122:8151'
p2075
sg6
V922
p2076
sg8
V\u039c\u03ac\u03bd\u03b4\u03c1\u03b1 \u03a1\u03ac\u03b4\u03b9\u03bf
p2077
ssS'319'
p2078
(dp2079
g6
V319
p2080
sg8
VStudio A 102.7
p2081
ssS'318'
p2082
(dp2083
g1772
S'http://live.onestreaming.com/radioelassona'
p2084
sg6
V318
p2085
sg8
V\u03a1\u03ac\u03b4\u03b9\u03bf \u0395\u03bb\u03b1\u03c3\u03c3\u03cc\u03bd\u03b1 88.4
p2086
ssS'313'
p2087
(dp2088
g6
V313
p2089
sg8
V\u038c\u03bc\u03bf\u03c1\u03c6\u03b7 \u03a0\u03cc\u03bb\u03b7 89.9
p2090
ssS'312'
p2091
(dp2092
g1795
S'http://s1.onweb.gr:8028/'
p2093
sg6
V312
p2094
sg8
V\u039a\u03cd\u03bc\u03b1 Fm 90.3
p2095
ssS'311'
p2096
(dp2097
g1772
S'http://live.onestreaming.com/style100'
p2098
sg6
V311
p2099
sg8
VStyle 100
p2100
ssS'310'
p2101
(dp2102
g6
V310
p2103
sg8
V\u039b\u03cc\u03b3\u03bf\u03c2 Radio 101.1
p2104
ssS'317'
p2105
(dp2106
g6
V317
p2107
sg8
V\u03a1\u03ac\u03b4\u03b9\u03bf \u0389\u03c0\u03b5\u03b9\u03c1\u03bf\u03c2 94.5
p2108
ssS'316'
p2109
(dp2110
g6
V316
p2111
sg8
VCreta Planet 
p2112
ssS'315'
p2113
(dp2114
g1772
S'http://live.onestreaming.com/elpar'
p2115
sg6
V315
p2116
sg8
V\u0395\u03bb\u03bb\u03b7\u03bd\u03b9\u03ba\u03cc \u03a0\u03b1\u03c1\u03b1\u03b4\u03bf\u03c3\u03b9\u03b1\u03ba\u03cc
p2117
ssS'314'
p2118
(dp2119
g6
V314
p2120
sg8
V\u0396\u03b9\u03b6\u03ac\u03bd\u03b9\u03bf 89.2
p2121
ssS'496'
p2122
(dp2123
g6
V496
p2124
sg8
V\u0395\u03bb\u03bb\u03b7\u03bd\u03bf\u03a1\u03ac\u03b4\u03b9\u03bf
p2125
ssS'138'
p2126
(dp2127
g1795
S'mms://radio.istoikona.com/zenith'
p2128
sg6
V138
p2129
sg8
VZenith Radio 96.4
p2130
ssS'725'
p2131
(dp2132
S'url'
p2133
S'http://shoutcast.24radio.gr:8004/'
p2134
sg6
V725
p2135
sg8
VAthens Jukebox Radio
p2136
ssS'368'
p2137
(dp2138
g1795
S'mms://broadcast.hol.gr/IonionFMU'
p2139
sg6
V368
p2140
sg8
V\u0399\u03cc\u03bd\u03b9\u03bf\u03bd Fm \u0397\u03bb\u03b5\u03af\u03b1\u03c2 95.5
p2141
ssS'369'
p2142
(dp2143
g1795
S'http://shoutcast.24radio.gr:8044/'
p2144
sg6
V369
p2145
sg8
VRSA 91.1
p2146
ssS'366'
p2147
(dp2148
g1795
S'http://46.4.65.194:8021'
p2149
sg6
V366
p2150
sg8
VVox 103.3
p2151
ssS'367'
p2152
(dp2153
g6
V367
p2154
sg8
VOrt Fm 92.3
p2155
ssS'364'
p2156
(dp2157
g1795
S'http://s6.onweb.gr:8034'
p2158
sg6
V364
p2159
sg8
V\u03a1\u03ac\u03b4\u03b9\u03bf \u039c\u03bf\u03af\u03c1\u03b5\u03c2 97.1
p2160
ssS'365'
p2161
(dp2162
g1795
S'http://s5.onweb.gr:8418'
p2163
sg6
V365
p2164
sg8
V\u03a3\u03bf\u03c7\u03cc\u03c2 Fm 88.7
p2165
ssS'362'
p2166
(dp2167
g1795
S'http://s3.onweb.gr:8500'
p2168
sg6
V362
p2169
sg8
V\u0391\u03c1\u03bc\u03bf\u03bd\u03af\u03b1 Fm 103.2
p2170
ssS'363'
p2171
(dp2172
g1795
S'http://s3.onweb.gr:8438'
p2173
sg6
V363
p2174
sg8
V\u039b\u03ad\u03c3\u03c7\u03b7 97.6
p2175
ssS'360'
p2176
(dp2177
g1795
S'http://s1.onweb.gr:8098/'
p2178
sg6
V360
p2179
sg8
V\u03a0\u03ac\u03c1\u03bf\u03c2 Fm 98.5
p2180
ssS'361'
p2181
(dp2182
g1795
S'http://s1.onweb.gr:8066'
p2183
sg6
V361
p2184
sg8
V\u0391\u03ba\u03c1\u03cc\u03b1\u03bc\u03b1 94.6
p2185
ssS'380'
p2186
(dp2187
g6
V380
p2188
sg8
V\u0397\u03c7\u03ce Fm 102.1
p2189
ssS'381'
p2190
(dp2191
g6
V381
p2192
sg8
VRadio Point
p2193
ssS'382'
p2194
(dp2195
g6
V382
p2196
sg8
VBassline Chill Out
p2197
ssS'383'
p2198
(dp2199
g6
V383
p2200
sg8
VBassline Progressive Trance
p2201
ssS'384'
p2202
(dp2203
g6
V384
p2204
sg8
VUnderground Radio 100.3
p2205
ssS'385'
p2206
(dp2207
g6
V385
p2208
sg8
VDream Fm 103.5
p2209
ssS'386'
p2210
(dp2211
g6
V386
p2212
sg8
VParadise Radio 104.6
p2213
ssS'387'
p2214
(dp2215
g6
V387
p2216
sg8
VLips Radio
p2217
ssS'388'
p2218
(dp2219
g1795
S'http://s6.onweb.gr:8036/'
p2220
sg6
V388
p2221
sg8
V\u039a\u03ad\u03bd\u03c4\u03c1\u03bf \u039a\u03b1\u03c1\u03b4\u03b9\u03ac\u03c2 95
p2222
ssS'389'
p2223
(dp2224
g6
V389
p2225
sg8
VClub Fm 93.7
p2226
ssS'784'
p2227
(dp2228
g1795
S'http://shout.streamwithq.gr:4064/'
p2229
sg6
V784
p2230
sg8
V\u0393\u03ac\u03c5\u03b4\u03bf\u03c2 Fm 88.8
p2231
ssS'785'
p2232
(dp2233
g6
V785
p2234
sg8
VEnjoy Radio 105.7
p2235
ssS'786'
p2236
(dp2237
g6
V786
p2238
sg8
VAthens Fm
p2239
ssS'780'
p2240
(dp2241
g1795
S'http://s6.onweb.gr:8002/'
p2242
sg6
V780
p2243
sg8
VLegend Fm 101.6
p2244
ssS'781'
p2245
(dp2246
g6
V781
p2247
sg8
VKing Fm 107.8
p2248
ssS'782'
p2249
(dp2250
g6
V782
p2251
sg8
VRockha Radio
p2252
ssS'788'
p2253
(dp2254
g1795
S'http://83.170.89.19:9868'
p2255
sg6
V788
p2256
sg8
VGod Radio
p2257
ssS'789'
p2258
(dp2259
g6
V789
p2260
sg8
VMagic Fm 100
p2261
ssS'579'
p2262
(dp2263
g1772
S'http://live.onestreaming.com/ant1cy'
p2264
sg6
V579
p2265
sg8
VAnt1 Fm 102.7
p2266
ssS'578'
p2267
(dp2268
g6
V578
p2269
sg8
VStatus Radio
p2270
ssS'150'
p2271
(dp2272
g6
V150
p2273
sg8
VNet 105.8
p2274
ssS'573'
p2275
(dp2276
g1795
S'http://s3.onweb.gr:8474'
p2277
sg6
V573
p2278
sg8
VStudio A 1000
p2279
ssS'572'
p2280
(dp2281
g6
V572
p2282
sg8
VDeep Breath
p2283
ssS'571'
p2284
(dp2285
g6
V571
p2286
sg8
VStudio 306
p2287
ssS'570'
p2288
(dp2289
g1795
S'http://208.43.115.44:8262/'
p2290
sg6
V570
p2291
sg8
VMr Soul Radio
p2292
ssS'577'
p2293
(dp2294
g6
V577
p2295
sg8
VPing Pong Radio
p2296
ssS'576'
p2297
(dp2298
g6
V576
p2299
sg8
V\u039c\u03b5\u03bb\u03c9\u03b4\u03b9\u03ba\u03cc\u03c2
p2300
ssS'575'
p2301
(dp2302
g6
V575
p2303
sg8
VR06
p2304
ssS'574'
p2305
(dp2306
g6
V574
p2307
sg8
VWasteland 
p2308
ssS'60'
p2309
(dp2310
g1795
S'http://shoutcast.24radio.gr:8074'
p2311
sg6
V60
p2312
sg8
VRadio 98.2
p2313
ssS'61'
p2314
(dp2315
g1795
S'http://shout.streamwithq.gr:4044/'
p2316
sg6
V61
p2317
sg8
VFly 95.9
p2318
ssS'258'
p2319
(dp2320
g6
V258
p2321
sg8
V\u0391\u03bd\u03b1\u03c4\u03bf\u03bb\u03b9\u03ba\u03cc\u03c2 Fm 95.8
p2322
ssS'259'
p2323
(dp2324
g1795
S'http://174.36.237.66:8220/'
p2325
sg6
V259
p2326
sg8
V\u03a1\u03c5\u03b8\u03bc\u03cc\u03c2 Fm 103.8
p2327
ssS'64'
p2328
(dp2329
g1772
S'mms://radiofeeds1.mediabox.gr/kentrofm'
p2330
sg6
V64
p2331
sg8
V\u039a\u03ad\u03bd\u03c4\u03c1\u03bf Fm 98.2
p2332
ssS'66'
p2333
(dp2334
g1795
S'http://streamx2.greekradios.gr:8000'
p2335
sg6
V66
p2336
sg8
VRepublic 100.3
p2337
ssS'67'
p2338
(dp2339
g1795
S'http://radio.onweb.gr:8078/'
p2340
sg6
V67
p2341
sg8
VRock 105.5
p2342
ssS'252'
p2343
(dp2344
g1795
S'http://62.1.195.86:2281'
p2345
sg6
V252
p2346
sg8
V\u03a7\u03b9\u03b1\u03ba\u03ae \u03a6\u03c9\u03bd\u03ae 90
p2347
ssS'69'
p2348
(dp2349
g6
V69
p2350
sg8
VAnt1 97.5
p2351
ssS'250'
p2352
(dp2353
g1795
S'http://s3.onweb.gr:8032'
p2354
sg6
V250
p2355
sg8
VD-Code 96.2
p2356
ssS'251'
p2357
(dp2358
g1795
S'http://s1.onweb.gr:8040'
p2359
sg6
V251
p2360
sg8
V\u03a1\u03ac\u03b4\u03b9\u03bf \u03a1\u03b9\u03b6\u03af\u03c4\u03b5\u03c2 92.4
p2361
ssS'256'
p2362
(dp2363
g1795
S'http://shoutcast.24radio.gr:8064/'
p2364
sg6
V256
p2365
sg8
VCool Fm 90.7
p2366
ssS'257'
p2367
(dp2368
g1795
S'http://s6.onweb.gr:8026'
p2369
sg6
V257
p2370
sg8
VOrange Radio 91.1
p2371
ssS'254'
p2372
(dp2373
g1772
S'http://live.onestreaming.com/aegeanant1'
p2374
sg6
V254
p2375
sg8
VAnt1 \u0391\u03b9\u03b3\u03b1\u03af\u03bf\u03c5 105
p2376
ssS'255'
p2377
(dp2378
g6
V255
p2379
sg8
V\u03a1\u03ac\u03b4\u03b9\u03bf \u0386\u03bb\u03c6\u03b1 96
p2380
ssS'157'
p2381
(dp2382
g1772
S'http://a240.l827440239.c8274.g.lm.akamaistream.net/D/240/8274/v0001/reflector:40239'
p2383
sg6
V157
p2384
sg8
V\u03a3\u03ba\u03ac\u03ca 100.3
p2385
ssS'602'
p2386
(dp2387
g6
V602
p2388
sg8
V\u03a0\u03b1\u03bb\u03bc\u03cc\u03c2 105.4
p2389
ssS'730'
p2390
(dp2391
g6
V730
p2392
sg8
V96.5 Fm
p2393
ssS'732'
p2394
(dp2395
g1795
S'http://eco.onestreaming.com:8105'
p2396
sg6
V732
p2397
sg8
VOriginal Radio 94.4
p2398
ssS'735'
p2399
(dp2400
g6
V735
p2401
sg8
VClubs Radio
p2402
ssS'737'
p2403
(dp2404
g1795
S'http://72.55.146.84:8020/'
p2405
sg6
V737
p2406
sg8
VSiera Fm 105.3
p2407
ssS'736'
p2408
(dp2409
g1772
S'http://78.129.143.157:8000/arisfm.m3u'
p2410
sg6
V736
p2411
sg8
V\u0384\u0391\u03c1\u03b7\u03c2 Fm 92.8
p2412
ssS'739'
p2413
(dp2414
g1795
S'http://s3.onweb.gr:8532/'
p2415
sg6
V739
p2416
sg8
V\u0393\u03bb\u03ad\u03bd\u03c4\u03b9 Fm 101.1
p2417
ssS'507'
p2418
(dp2419
S'url'
p2420
S'mms://195.251.162.94:8080'
p2421
sg6
V507
p2422
sg8
V\u03a7\u03ce\u03c1\u03bf\u03c2 94.2
p2423
ssS'1030'
p2424
(dp2425
g1795
S'mms://a1235.l4434955234.c44349.g.lm.akamaistream.net/D/1235/44349/v0001/reflector:55234'
p2426
sg6
V1030
p2427
sg8
VPlay 88.9
p2428
ssS'505'
p2429
(dp2430
g1795
S'http://91.121.143.17:8000/'
p2431
sg6
V505
p2432
sg8
V1Mix Radio
p2433
ssS'502'
p2434
(dp2435
g6
V502
p2436
sg8
VBest Radio 94.7
p2437
ssS'1037'
p2438
(dp2439
g1795
S'http://62.212.82.142:8012/'
p2440
sg6
V1037
p2441
sg8
VSferikos 99.3
p2442
ssS'500'
p2443
(dp2444
g1795
S'http://shoutcast.24radio.gr:8086/'
p2445
sg6
V500
p2446
sg8
V\u039d\u03b9\u03ba\u03bf\u03bb\u03ac\u03bf\u03c5 Radio
p2447
ssS'501'
p2448
(dp2449
g1772
S'http://live.onestreaming.com/mesogios'
p2450
sg6
V501
p2451
sg8
V\u039c\u03b5\u03c3\u03cc\u03b3\u03b5\u03b9\u03bf\u03c2 Fm 105.4
p2452
ssS'631'
p2453
(dp2454
g1795
S'http://216.66.84.2:9108'
p2455
sg6
V631
p2456
sg8
VHeat Radio 88.3
p2457
ssS'44'
p2458
(dp2459
g1772
S'http://music.vimafm995.gr/vimafm?MSWMExt=.asf'
p2460
sg6
V44
p2461
sg8
V\u0392\u03ae\u03bc\u03b1 Fm 99.5
p2462
ssS'633'
p2463
(dp2464
g6
V633
p2465
sg8
V69 Music 
p2466
ssS'634'
p2467
(dp2468
g1795
S'http://eco.onestreaming.com:8077'
p2469
sg6
V634
p2470
sg8
VMaroni Radio
p2471
ssS'635'
p2472
(dp2473
g6
V635
p2474
sg8
VDalkas 88.2
p2475
ssS'636'
p2476
(dp2477
g6
V636
p2478
sg8
V1\u03bf \u03a0\u03c1\u03cc\u03b3\u03c1\u03b1\u03bc\u03bc\u03b1 \u03a7\u03af\u03bf\u03c5
p2479
ssS'637'
p2480
(dp2481
g6
V637
p2482
sg8
VStudio 54
p2483
ssS'465'
p2484
(dp2485
g6
V465
p2486
sg8
VFlash 94.5
p2487
ssS'639'
p2488
(dp2489
g1795
S'http://81.171.50.130:9124'
p2490
sg6
V639
p2491
sg8
VHellas Web Radio
p2492
ssS'467'
p2493
(dp2494
g1795
S'http://178.33.248.236:8006'
p2495
sg6
V467
p2496
sg8
VFun Radio
p2497
ssS'461'
p2498
(dp2499
g6
V461
p2500
sg8
VOff Radio
p2501
ssS'460'
p2502
(dp2503
g1772
S'http://sentrafm.live24.gr/sentrafm'
p2504
sg6
V460
p2505
sg8
VSentra Fm 103.3
p2506
ssS'463'
p2507
(dp2508
g1795
S'http://shoutcast.24radio.gr:8046/'
p2509
sg6
V463
p2510
sg8
VViva Fm 95.3
p2511
ssS'462'
p2512
(dp2513
g6
V462
p2514
sg8
V\u039c\u03b5\u03bb\u03c9\u03b4\u03b9\u03ba\u03cc\u03c2 105.7
p2515
ssS'901'
p2516
(dp2517
g1795
S'http://s3.onweb.gr:8808'
p2518
sg6
V901
p2519
sg8
V\u03a1\u03b1\u03b4\u03b9\u03bf\u03ba\u03c1\u03ae\u03c4\u03b5\u03c2
p2520
ssS'168'
p2521
(dp2522
g1795
S'http://s1.onweb.gr:8854'
p2523
sg6
V168
p2524
sg8
VPower 100.2
p2525
ssS'169'
p2526
(dp2527
g1795
S'http://s1.onweb.gr:8068'
p2528
sg6
V169
p2529
sg8
VSuper 90.4
p2530
ssS'164'
p2531
(dp2532
g6
V164
p2533
sg8
VClub Radio
p2534
ssS'165'
p2535
(dp2536
g6
V165
p2537
sg8
VRadio Dee Jay 94.2
p2538
ssS'166'
p2539
(dp2540
g1772
S'http://live.onestreaming.com/mousikokanali'
p2541
sg6
V166
p2542
sg8
V\u039c\u03bf\u03c5\u03c3\u03b9\u03ba\u03cc \u039a\u03b1\u03bd\u03ac\u03bb\u03b9 105.1
p2543
ssS'167'
p2544
(dp2545
g6
V167
p2546
sg8
VMRB Radio 101
p2547
ssS'160'
p2548
(dp2549
g6
V160
p2550
sg8
VUplifted
p2551
ssS'161'
p2552
(dp2553
g1772
S'mms://golive.onestreaming.com/ydrogeios'
p2554
sg6
V161
p2555
sg8
V\u03a5\u03b4\u03c1\u03cc\u03b3\u03b5\u03b9\u03bf\u03c2 106.9
p2556
ssS'162'
p2557
(dp2558
g1795
S'http://s3.onweb.gr:8808/'
p2559
sg6
V162
p2560
sg8
VVenus Fm 105.1
p2561
ssS'163'
p2562
(dp2563
g1772
S'http://ice.motionfm.com:80/motionone_free.m3u'
p2564
sg6
V163
p2565
sg8
VHouse Motion Fm
p2566
ssS'963'
p2567
(dp2568
g6
V963
p2569
sg8
VBrake Fm 101.6
p2570
ssS'969'
p2571
(dp2572
g1795
S'http://shout.streamwithq.gr:4042/'
p2573
sg6
V969
p2574
sg8
VRockarolla Radio
p2575
ssS'1103'
p2576
(dp2577
g6
V1103
p2578
sg8
VBeautyWar
p2579
ssS'408'
p2580
(dp2581
g1795
S'http://s8.onweb.gr:8702'
p2582
sg6
V408
p2583
sg8
V\u03a1\u03b1\u03b4\u03b9\u03bf\u03ba\u03cd\u03bc\u03b1\u03c4\u03b1 102.6
p2584
ssS'890'
p2585
(dp2586
g1772
S'http://golive.onestreaming.com/akousgazi'
p2587
sg6
V890
p2588
sg8
VAkous Gazi
p2589
ssS'891'
p2590
(dp2591
g6
V891
p2592
sg8
VAkous Terra
p2593
ssS'892'
p2594
(dp2595
g1772
S'http://golive.onestreaming.com/akousdeluxe'
p2596
sg6
V892
p2597
sg8
VAkous Deluxe
p2598
ssS'893'
p2599
(dp2600
g1772
S'http://golive.onestreaming.com/akousstage'
p2601
sg6
V893
p2602
sg8
VAkous Stage
p2603
ssS'894'
p2604
(dp2605
g1795
S'http://eco.onestreaming.com:8189/'
p2606
sg6
V894
p2607
sg8
V\u03a1\u03c5\u03b8\u03bc\u03cc\u03c2 988
p2608
ssS'895'
p2609
(dp2610
g1795
S'http://188.40.95.16:7100/'
p2611
sg6
V895
p2612
sg8
VMusic Fm
p2613
ssS'896'
p2614
(dp2615
g6
V896
p2616
sg8
V\u03a1\u03ac\u03b4\u03b9\u03bf \u039b\u03ae\u03bc\u03bd\u03bf\u03c2
p2617
ssS'436'
p2618
(dp2619
g6
V436
p2620
sg8
VRadio Air
p2621
ssS'357'
p2622
(dp2623
g1795
S'http://s1.onweb.gr:8420'
p2624
sg6
V357
p2625
sg8
V\u0396\u03c5\u03b3\u03cc\u03c2 Fm 100
p2626
ssS'356'
p2627
(dp2628
g6
V356
p2629
sg8
V\u03a1\u03b1\u03b4\u03b9\u03cc\u03c6\u03c9\u03bd\u03bf \u0392\u03cc\u03bb\u03bf\u03c2 104.6
p2630
ssS'809'
p2631
(dp2632
g1795
S'http://66.90.104.41:8090'
p2633
sg6
V809
p2634
sg8
VAsteras Radio
p2635
ssS'808'
p2636
(dp2637
g1538
S'mms://live.onestreaming.com/starfmdm'
p2638
sg6
V808
p2639
sg8
VStar Fm 93.3
p2640
ssS'353'
p2641
(dp2642
g1772
S'http://rs2.radiostreamer.com/radioalfa'
p2643
sg6
V353
p2644
sg8
V\u0386\u03bb\u03c6\u03b1 104
p2645
ssS'352'
p2646
(dp2647
g1772
S'http://live.onestreaming.com/polis'
p2648
sg6
V352
p2649
sg8
VPolis 102.6
p2650
ssS'351'
p2651
(dp2652
g1795
S'http://shout.streamwithq.gr:4052/'
p2653
sg6
V351
p2654
sg8
V\u0395\u03bb\u03bb\u03b7\u03bd\u03b9\u03ba\u03cc\u03c2 88.9
p2655
ssS'350'
p2656
(dp2657
g1772
S'http://plaisioradio.live24.gr/plaisioradio'
p2658
sg6
V350
p2659
sg8
VPlaisio Radio
p2660
ssS'803'
p2661
(dp2662
g1795
S'http://shoutcast.24radio.gr:8058/'
p2663
sg6
V803
p2664
sg8
VSfera 989
p2665
ssS'802'
p2666
(dp2667
g6
V802
p2668
sg8
VNRJ Radio 98
p2669
ssS'801'
p2670
(dp2671
g1772
S'mms://starradio.no-ip.biz:2380'
p2672
sg6
V801
p2673
sg8
VStar Fm 106.7
p2674
ssS'800'
p2675
(dp2676
g6
V800
p2677
sg8
VRadio 6 95.4
p2678
ssS'807'
p2679
(dp2680
g1795
S'http://eco.onestreaming.com:8148/'
p2681
sg6
V807
p2682
sg8
VYes! 91.2
p2683
ssS'806'
p2684
(dp2685
g1795
S'http://shoutcast.24radio.gr:8018/'
p2686
sg6
V806
p2687
sg8
VWest Radio
p2688
ssS'359'
p2689
(dp2690
g1772
S'http://live.onestreaming.com/kanali3'
p2691
sg6
V359
p2692
sg8
V\u039a\u03b1\u03bd\u03ac\u03bb\u03b9 3 104
p2693
ssS'358'
p2694
(dp2695
g6
V358
p2696
sg8
V\u0394\u03c5\u03c4\u03b9\u03ba\u03cc\u03c2 103.7
p2697
ssS'216'
p2698
(dp2699
g1772
S'http://live.onestreaming.com/rythmos943'
p2700
sg6
V216
p2701
sg8
V\u03a1\u03cd\u03b8\u03bc\u03bf\u03c2 94.3
p2702
ssS'217'
p2703
(dp2704
g6
V217
p2705
sg8
VAthletic Radio 104.2
p2706
ssS'214'
p2707
(dp2708
g6
V214
p2709
sg8
V\u03a1\u03ac\u03b4\u03b9\u03bf \u0395\u03c0\u03c4\u03ac\u03bd\u03b7\u03c3\u03b1 98.8
p2710
ssS'215'
p2711
(dp2712
g6
V215
p2713
sg8
V\u03a3\u03c4\u03af\u03b3\u03bc\u03b1 Radio 97.6
p2714
ssS'213'
p2715
(dp2716
g1795
S'http://s1.onweb.gr:8836'
p2717
sg6
V213
p2718
sg8
VLife Radio 102.9
p2719
ssS'210'
p2720
(dp2721
g1795
S'http://s1.onweb.gr:8422'
p2722
sg6
V210
p2723
sg8
VPop Fm 102.1
p2724
ssS'211'
p2725
(dp2726
g1795
S'http://s1.onweb.gr:8800/'
p2727
sg6
V211
p2728
sg8
VStar 88.8
p2729
ssS'762'
p2730
(dp2731
g6
V762
p2732
sg8
VFasma Fm 99.7
p2733
ssS'955'
p2734
(dp2735
g2133
S'http://85.17.30.90:8078'
p2736
sg6
V955
p2737
sg8
VRiver Fm 106.6
p2738
ssS'760'
p2739
(dp2740
g6
V760
p2741
sg8
VSportive Radio
p2742
ssS'761'
p2743
(dp2744
g1795
S'http://64.111.18.90:8005/'
p2745
sg6
V761
p2746
sg8
Vskglobe.net
p2747
ssS'766'
p2748
(dp2749
g1795
S'http://208.43.115.44:9846/'
p2750
sg6
V766
p2751
sg8
V\u03a1\u03ac\u03b4\u03b9\u03bf \u0395\u03cd\u03b2\u03bf\u03b9\u03b1 104.1
p2752
ssS'764'
p2753
(dp2754
g1795
S'http://live.e-streaming.eu:8110/'
p2755
sg6
V764
p2756
sg8
V\u0391\u03ba\u03c4\u03af\u03bd\u03b1 Radio 95
p2757
ssS'219'
p2758
(dp2759
g1772
S'http://freeradio.live24.gr/freeradio-1000'
p2760
sg6
V219
p2761
sg8
VFree Radio  98
p2762
ssS'40'
p2763
(dp2764
g2133
S'mms://a1251.l827423250.c8274.g.lm.akamaistream.net/D/1251/8274/v0001/reflector:23250'
p2765
sg6
V40
p2766
sg8
VFreedom
p2767
ssS'1033'
p2768
(dp2769
g1795
S'http://72.233.114.175:8020/'
p2770
sg6
V1033
p2771
sg8
VPowershots!
p2772
ssS'1072'
p2773
(dp2774
g1795
S'http://109.169.26.190:8048'
p2775
sg6
V1072
p2776
sg8
VGr8 Radio Greek
p2777
ssS'1073'
p2778
(dp2779
g1795
S'http://shoutcast.24radio.gr:8070'
p2780
sg6
V1073
p2781
sg8
V\u0394\u03b7\u03bc\u03bf\u03c4\u03b9\u03ba\u03ae \u0391\u03bd\u03b8\u03bf\u03bb\u03bf\u03b3\u03af\u03b1 88.8
p2782
ssS'289'
p2783
(dp2784
g1772
S'http://ice.motionfm.com:80/motionthree_free.m3u'
p2785
sg6
V289
p2786
sg8
VLounge Motion Fm
p2787
ssS'288'
p2788
(dp2789
g1795
S'http://s1.onweb.gr:8056'
p2790
sg6
V288
p2791
sg8
VStar Fm 94.1
p2792
ssS'321'
p2793
(dp2794
g6
V321
p2795
sg8
V\u03a1\u03b1\u03b4/\u03bd\u03af\u03b1 \u039a\u03bf\u03b6\u03ac\u03bd\u03b7\u03c2 102.3
p2796
ssS'281'
p2797
(dp2798
g1795
S'http://s1.onweb.gr:8096'
p2799
sg6
V281
p2800
sg8
V\u03a1\u03ac\u03b4\u03b9\u03bf \u039a\u03c5\u03c0\u03b1\u03c1\u03b9\u03c3\u03c3\u03af\u03b1 93.6
p2801
ssS'280'
p2802
(dp2803
g6
V280
p2804
sg8
V\u0397\u03bb\u03ad\u03ba\u03c4\u03c1\u03b1 98.8
p2805
ssS'283'
p2806
(dp2807
g1772
S'http://broadcast.hol.gr/kanali20'
p2808
sg6
V283
p2809
sg8
V\u039a\u03b1\u03bd\u03ac\u03bb\u03b9 20 107.5
p2810
ssS'282'
p2811
(dp2812
g6
V282
p2813
sg8
V\u03a0\u03b1\u03bb\u03bc\u03cc\u03c2 90.5
p2814
ssS'285'
p2815
(dp2816
g6
V285
p2817
sg8
VLight Kiss 89
p2818
ssS'284'
p2819
(dp2820
g1795
S'mms://broadcast.hol.gr/cityfm'
p2821
sg6
V284
p2822
sg8
VCity Radio 103.3
p2823
ssS'287'
p2824
(dp2825
g1795
S'mms://live.onestreaming.com/politia'
p2826
sg6
V287
p2827
sg8
V\u03a0\u03bf\u03bb\u03b9\u03c4\u03b5\u03af\u03b1 90.7
p2828
ssS'286'
p2829
(dp2830
g1795
S'http://eco.onestreaming.com:8272'
p2831
sg6
V286
p2832
sg8
VFly 89.7
p2833
ssS'678'
p2834
(dp2835
g1795
S'http://s1.onweb.gr:8866/'
p2836
sg6
V678
p2837
sg8
VSuper 92.6
p2838
ssS'679'
p2839
(dp2840
g1795
S'http://shout.streamwithq.gr:4126/'
p2841
sg6
V679
p2842
sg8
VKiss 107
p2843
ssS'674'
p2844
(dp2845
g1795
S'http://mvradio.serverroom.us:9842'
p2846
sg6
V674
p2847
sg8
VMv Radio
p2848
ssS'675'
p2849
(dp2850
g1795
S'http://psychoradio.servemp3.com'
p2851
sg6
V675
p2852
sg8
VPsycho Radio
p2853
ssS'676'
p2854
(dp2855
g1772
S'http://live.onestreaming.com/star884'
p2856
sg6
V676
p2857
sg8
VStar 88.4
p2858
ssS'677'
p2859
(dp2860
g6
V677
p2861
sg8
VFantasy 100.1
p2862
ssS'670'
p2863
(dp2864
g1772
S'http://live.onestreaming.com/makistia'
p2865
sg6
V670
p2866
sg8
V\u03a1\u03ac\u03b4\u03b9\u03bf \u039c\u03b1\u03ba\u03b9\u03c3\u03c4\u03af\u03b1 98.6
p2867
ssS'671'
p2868
(dp2869
g6
V671
p2870
sg8
VPowerMix Fm Greek
p2871
ssS'672'
p2872
(dp2873
g6
V672
p2874
sg8
V\u03a1\u03ac\u03b4\u03b9\u03bf \u0392\u03ad\u03c1\u03b1 91.8
p2875
ssS'673'
p2876
(dp2877
g6
V673
p2878
sg8
V\u03a1\u03ac\u03b4\u03b9\u03bf TRT 95.1
p2879
ssS'263'
p2880
(dp2881
g1795
S'http://eco.onestreaming.com:8185'
p2882
sg6
V263
p2883
sg8
V\u0394\u03b7\u03bc\u03bf\u03c4\u03b9\u03ba\u03cc\u03c2 \u03a4\u03c1\u03af\u03c0\u03bf\u03bb\u03b7\u03c2 91.5
p2884
ssS'262'
p2885
(dp2886
g1795
S'http://shoutcast.24radio.gr:8012/'
p2887
sg6
V262
p2888
sg8
VMust Fm 97
p2889
ssS'261'
p2890
(dp2891
g6
V261
p2892
sg8
VStyle Fm 89.6
p2893
ssS'260'
p2894
(dp2895
g6
V260
p2896
sg8
VStar Fm 92.9
p2897
ssS'267'
p2898
(dp2899
g1795
S'http://smartfm.serverroom.us:8030'
p2900
sg6
V267
p2901
sg8
VSmart Fm 100.7
p2902
ssS'266'
p2903
(dp2904
g1772
S'mms://broadcast.hol.gr/IonionFMU'
p2905
sg6
V266
p2906
sg8
VIonion Fm 95.8
p2907
ssS'265'
p2908
(dp2909
g1795
S'http://208.43.115.44:8016/'
p2910
sg6
V265
p2911
sg8
VHorizon Fm 96.5
p2912
ssS'264'
p2913
(dp2914
g6
V264
p2915
sg8
V\u0391\u03c1\u03bc\u03bf\u03bd\u03af\u03b1 Fm 93.8
p2916
ssS'269'
p2917
(dp2918
g1772
S'mms://broadcast.hol.gr/mojoradio'
p2919
sg6
V269
p2920
sg8
VMojo Radio 107.7
p2921
ssS'268'
p2922
(dp2923
g1795
S'http://217.172.179.76:8500/'
p2924
sg6
V268
p2925
sg8
VWave 97.4
p2926
ssS'59'
p2927
(dp2928
g1795
S'http://shoutcast.24radio.gr:8036'
p2929
sg6
V59
p2930
sg8
VKiss 100.6
p2931
ssS'58'
p2932
(dp2933
g6
V58
p2934
sg8
V\u039a\u03c1\u03b7\u03c4\u03b9\u03ba\u03cc\u03c1\u03b1\u03bc\u03b1 93.8
p2935
ssS'55'
p2936
(dp2937
g6
V55
p2938
sg8
V\u03a3\u03c4\u03bf \u039a\u03cc\u03ba\u03ba\u03b9\u03bd\u03bf 105.5
p2939
ssS'54'
p2940
(dp2941
g1795
S'mms://a1232.l3271935231.c32719.g.lm.akamaistream.net/D/1232/32719/v0001/reflector:35231'
p2942
sg6
V54
p2943
sg8
VKosmos 93.6
p2944
ssS'57'
p2945
(dp2946
g6
V57
p2947
sg8
V\u03a1\u03ac\u03b4\u03b9\u03bf \u03a0\u03cc\u03bd\u03c4\u03bf\u03c2 106.5
p2948
ssS'56'
p2949
(dp2950
g6
V56
p2951
sg8
V\u03a7\u03c1\u03b9\u03c3\u03c4\u03b9\u03b1\u03bd\u03b9\u03c3\u03bc\u03cc\u03c2
p2952
ssS'51'
p2953
(dp2954
g6
V51
p2955
sg8
V\u039c\u03b5\u03bb\u03c9\u03b4\u03af\u03b1 99.2
p2956
ssS'62'
p2957
(dp2958
g1795
S'http://shoutcast.24radio.gr:8060/'
p2959
sg6
V62
p2960
sg8
VLife Radio 91.6
p2961
ssS'53'
p2962
(dp2963
g1772
S'mms://ant1.live24.gr/ant1'
p2964
sg6
V53
p2965
sg8
VAnt1 97.2
p2966
ssS'52'
p2967
(dp2968
g6
V52
p2969
sg8
V\u039b\u03ac\u03bc\u03c8\u03b7 92.3
p2970
ssS'537'
p2971
(dp2972
g6
V537
p2973
sg8
VMusic Life 95.1
p2974
ssS'536'
p2975
(dp2976
g6
V536
p2977
sg8
VDolce Radio 89.5
p2978
ssS'63'
p2979
(dp2980
g6
V63
p2981
sg8
VHit Fm 92.9
p2982
ssS'533'
p2983
(dp2984
g6
V533
p2985
sg8
VMy World
p2986
ssS'532'
p2987
(dp2988
g6
V532
p2989
sg8
VRadio 88\u03bc\u03b9\u03c3\u03cc
p2990
ssS'531'
p2991
(dp2992
g1772
S'http://live.onestreaming.com/greek4u'
p2993
sg6
V531
p2994
sg8
VGr4u
p2995
ssS'539'
p2996
(dp2997
g6
V539
p2998
sg8
V\u03a1\u03ac\u03b4\u03b9\u03bf \u039c\u03b5\u03c3\u03c3\u03ac\u03c4\u03b9\u03b4\u03b1 98
p2999
ssS'538'
p3000
(dp3001
g1795
S'http://972fm.no-ip.info:8000'
p3002
sg6
V538
p3003
sg8
V97.2 Fm Stereo
p3004
ssS'201'
p3005
(dp3006
g6
V201
p3007
sg8
V\u0391\u03b3\u03ad\u03c1\u03b9 Fm 102
p3008
ssS'988'
p3009
(dp3010
g6
V988
p3011
sg8
V\u0397\u03c7\u03bf\u03c2 Radio
p3012
ssS'200'
p3013
(dp3014
g1795
S'http://eco.onestreaming.com:8129'
p3015
sg6
V200
p3016
sg8
V\u039c\u03b5\u03bb\u03c9\u03b4\u03af\u03b1 88
p3017
ssS'981'
p3018
(dp3019
g1795
S'http://199.16.186.34:8236/'
p3020
sg6
V981
p3021
sg8
VElektrik Dreams
p3022
ssS'50'
p3023
(dp3024
g6
V50
p3025
sg8
VX Fm 94.3
p3026
ssS'115'
p3027
(dp3028
g6
V115
p3029
sg8
V\u03a1\u03ac\u03b4\u03b9\u03bf \u0391\u03bb\u03ae\u03b8\u03b5\u03b9\u03b1 95.7
p3030
ssS'68'
p3031
(dp3032
g1772
S'http://golive.onestreaming.com/radioena'
p3033
sg6
V68
p3034
sg8
V99 Fm \u03a1\u03ac\u03b4\u03b9\u03bf 1
p3035
ssS'776'
p3036
(dp3037
g1795
S'mms://a323.l6160932322.c61609.e.lm.akamaistream.net/D/323/61609/v0001/reflector:32322'
p3038
sg6
V776
p3039
sg8
V\u0396\u03bf\u03cd\u03b3\u03ba\u03bb\u03b1 Radio
p3040
ssS'111'
p3041
(dp3042
g1772
S'http://golive.onestreaming.com/arion'
p3043
sg6
V111
p3044
sg8
VArion Radio
p3045
ssS'110'
p3046
(dp3047
g1772
S'http://golive.onestreaming.com/athensparty'
p3048
sg6
V110
p3049
sg8
VAthens Party
p3050
ssS'113'
p3051
(dp3052
g1795
S'http://188.40.131.14:8062'
p3053
sg6
V113
p3054
sg8
VJay Radio
p3055
ssS'112'
p3056
(dp3057
g6
V112
p3058
sg8
V\u0388\u03c1\u03c9\u03c4\u03b1\u03c2
p3059
ssS'205'
p3060
(dp3061
g1772
S'http://live.onestreaming.com/arhagelos'
p3062
sg6
V205
p3063
sg8
V\u03a1\u03ac\u03b4\u03b9\u03bf \u0391\u03c1\u03c7\u03ac\u03b3\u03b3\u03b5\u03bb\u03bf\u03c2 94.1
p3064
ssS'119'
p3065
(dp3066
g1795
S'http://s1.onweb.gr:8812'
p3067
sg6
V119
p3068
sg8
V\u03a1\u03b1\u03b4\u03b9\u03bf\u03ba\u03cd\u03bc\u03b1\u03c4\u03b1 104.4
p3069
ssS'118'
p3070
(dp3071
g6
V118
p3072
sg8
V\u039b\u03c5\u03b4\u03af\u03b1 Fm 94.2
p3073
ssS'207'
p3074
(dp3075
g6
V207
p3076
sg8
V\u03a3\u03ac\u03bc\u03bf\u03c2 Fm 97.3
p3077
ssS'429'
p3078
(dp3079
g6
V429
p3080
sg8
V\u03a1\u03c5\u03b8\u03bc\u03cc\u03c2 104
p3081
ssS'428'
p3082
(dp3083
g6
V428
p3084
sg8
V\u03a0\u03b1\u03bd\u03cc\u03c1\u03b1\u03bc\u03b1 98.4
p3085
ssS'534'
p3086
(dp3087
g1772
S'http://eco.onestreaming.com:8152/stream'
p3088
sg6
V534
p3089
sg8
VAction Radio 98.2
p3090
ssS'919'
p3091
(dp3092
g1795
S'http://r3.webradiostreams.com:7120/'
p3093
sg6
V919
p3094
sg8
VStudio 20 101.1
p3095
ssS'918'
p3096
(dp3097
g6
V918
p3098
sg8
VRadio Must Athens
p3099
ssS'914'
p3100
(dp3101
g1795
S'http://178.32.57.58:8345/'
p3102
sg6
V914
p3103
sg8
VMagic Fm 102.9
p3104
ssS'916'
p3105
(dp3106
g6
V916
p3107
sg8
V\u03a1\u03ac\u03b4\u03b9\u03bf \u039f\u03bc\u03ac\u03b4\u03b1R
p3108
ssS'427'
p3109
(dp3110
g6
V427
p3111
sg8
VThessaloniki Dee Jay 89.4
p3112
ssS'300'
p3113
(dp3114
g1795
S'http://eco.onestreaming.com:8173'
p3115
sg6
V300
p3116
sg8
VCity Fm 100
p3117
ssS'301'
p3118
(dp3119
g1795
S'http://78.46.106.4:8010'
p3120
sg6
V301
p3121
sg8
VMusic Club 105.8
p3122
ssS'302'
p3123
(dp3124
g6
V302
p3125
sg8
VEros Radio 93
p3126
ssS'303'
p3127
(dp3128
g6
V303
p3129
sg8
VRadio Erotic
p3130
ssS'304'
p3131
(dp3132
g1772
S'http://media15.internet.gr/dreamfm'
p3133
sg6
V304
p3134
sg8
VDream Fm 90.6
p3135
ssS'305'
p3136
(dp3137
g6
V305
p3138
sg8
VKiss Gold
p3139
ssS'306'
p3140
(dp3141
g6
V306
p3142
sg8
VCoast Fm 91.4
p3143
ssS'821'
p3144
(dp3145
g6
V821
p3146
sg8
VFree Angel 91.8
p3147
ssS'374'
p3148
(dp3149
g1795
S'http://s5.onweb.gr:8030'
p3150
sg6
V374
p3151
sg8
VHit Fm 89.3
p3152
ssS'568'
p3153
(dp3154
g6
V568
p3155
sg8
V\u0391\u03b8\u03bb\u03b7\u03c4\u03b9\u03ba\u03ac \u039d\u03ad\u03b1 98.7
p3156
ssS'569'
p3157
(dp3158
g1795
S'http://159.253.149.12:8138'
p3159
sg6
V569
p3160
sg8
V\u03a1\u03ac\u03b4\u03b9\u03bf \u039a\u03b1\u03bb\u03ac\u03b2\u03c1\u03c5\u03c4\u03b1 106.5
p3161
ssS'751'
p3162
(dp3163
g1795
S'http://s2.onweb.gr:8608/'
p3164
sg6
V751
p3165
sg8
V\u0395\u03c0\u03b9\u03ba\u03bf\u03b9\u03bd\u03c9\u03bd\u03af\u03b1 Fm 89.1
p3166
ssS'750'
p3167
(dp3168
g1795
S'http://208.43.115.44:8068'
p3169
sg6
V750
p3170
sg8
V\u0391\u03be\u03ac\u03c2 Radio
p3171
ssS'757'
p3172
(dp3173
g1795
S'http://shoutcast.24radio.gr:8052/'
p3174
sg6
V757
p3175
sg8
V\u0391\u03b9\u03b3\u03b1\u03af\u03bf Live 95.8
p3176
ssS'756'
p3177
(dp3178
g6
V756
p3179
sg8
V\u03a1\u03ac\u03b4\u03b9\u03bf \u0395\u03c0\u03ac\u03bb
p3180
ssS'755'
p3181
(dp3182
g2133
S'http://shoutcast.24radio.gr:8050/'
p3183
sg6
V755
p3184
sg8
Vgopop.gr Top 40 Channel
p3185
ssS'754'
p3186
(dp3187
g2133
S'http://shoutcast.24radio.gr:8048/'
p3188
sg6
V754
p3189
sg8
Vgopop.gr Disco Channel
p3190
ssS'560'
p3191
(dp3192
g2133
S'http://eco.onestreaming.com:8324'
p3193
sg6
V560
p3194
sg8
VRodon 95 Fm
p3195
ssS'561'
p3196
(dp3197
g2133
S'http://eco.onestreaming.com:8238'
p3198
sg6
V561
p3199
sg8
VSfera 94.1
p3200
ssS'759'
p3201
(dp3202
g2133
S'http://s3.onweb.gr:8530/'
p3203
sg6
V759
p3204
sg8
VStyl Fm 104.8
p3205
ssS'758'
p3206
(dp3207
g6
V758
p3208
sg8
V\u03a1\u03b1\u03b4\u03b9\u03bf\u03c6\u03c9\u03bd\u03af\u03b1 \u039a\u03c5\u03ba\u03bb\u03ac\u03b4\u03c9\u03bd
p3209
ssS'564'
p3210
(dp3211
g6
V564
p3212
sg8
VAria Fm 107.4
p3213
ssS'566'
p3214
(dp3215
g2133
S'http://208.43.115.44:9844/'
p3216
sg6
V566
p3217
sg8
V\u0395\u03bb\u03bb\u03b7\u03bd\u03ac\u03b4\u03b9\u03ba\u03bf Fm
p3218
ssS'567'
p3219
(dp3220
g6
V567
p3221
sg8
VAthens Winder Radio
p3222
ssS'506'
p3223
(dp3224
g6
V506
p3225
sg8
V\u03a1\u03ac\u03b4\u03b9\u03bf \u039d\u03b1\u03cd\u03c0\u03b1\u03ba\u03c4\u03bf\u03c2
p3226
ssS'229'
p3227
(dp3228
g6
V229
p3229
sg8
V\u0391\u03bd\u03b4\u03c1\u03bf\u03bc\u03ad\u03b4\u03b1 Net
p3230
ssS'738'
p3231
(dp3232
g6
V738
p3233
sg8
V\u0397\u03c7\u03cc\u03c1\u03b1\u03bc\u03b1 93.3
p3234
ssS'227'
p3235
(dp3236
g2133
S'http://s1.onweb.gr:8408'
p3237
sg6
V227
p3238
sg8
VStudio 3 103.5
p3239
ssS'226'
p3240
(dp3241
g2133
S'http://wm3.greekstream.net/sindosfm'
p3242
sg6
V226
p3243
sg8
V\u039a\u03b1\u03bb\u03b1\u03bc\u03b1\u03c1\u03b9\u03ac Fm 101.7
p3244
ssS'225'
p3245
(dp3246
g2133
S'http://shout.plusradio.gr:8120/'
p3247
sg6
V225
p3248
sg8
VPlus Radio 102.6
p3249
ssS'223'
p3250
(dp3251
g2133
S'http://s3.onweb.gr:8436'
p3252
sg6
V223
p3253
sg8
V\u03a1\u03ac\u03b4\u03b9\u03bf \u0394\u0395\u0398 104.9
p3254
ssS'504'
p3255
(dp3256
g380
S'mms://live.onestreaming.com/magiafm'
p3257
sg6
V504
p3258
sg8
V\u039c\u03b1\u03b3\u03b5\u03af\u03b1 Fm 104.7
p3259
ssS'221'
p3260
(dp3261
g2133
S'mms://a999.l3271920998.c32719.g.lm.akamaistream.net/D/999/32719/v0001/reflector:20998'
p3262
sg6
V221
p3263
sg8
V\u0397 \u03a6\u03c9\u03bd\u03ae \u03c4\u03b7\u03c2 \u0395\u03bb\u03bb\u03ac\u03b4\u03b1\u03c2
p3264
ssS'220'
p3265
(dp3266
g2133
S'mms://a1367.l3271923366.c32719.g.lm.akamaistream.net/D/1367/32719/v0001/reflector:23366'
p3267
sg6
V220
p3268
sg8
V\u03a6\u03b9\u03bb\u03af\u03b1 107 Fm
p3269
ssS'1027'
p3270
(dp3271
g2133
S'http://85.25.106.162:8330/'
p3272
sg6
V1027
p3273
sg8
VSoul Radio
p3274
ssS'1031'
p3275
(dp3276
g6
V1031
p3277
sg8
VSeal Radio
p3278
ssS'114'
p3279
(dp3280
g6
V114
p3281
sg8
V\u03a1\u03ac\u03b4\u03b9\u03bf \u039c\u03b1\u03c3\u03c4\u03af\u03c7\u03b1 107.7
p3282
ssS'88'
p3283
(dp3284
g6
V88
p3285
sg8
V\u03a3 \u03b1\u03b3\u03b1\u03c0\u03ce 96.1
p3286
ssS'726'
p3287
(dp3288
g2133
S'http://s2.onweb.gr:8624'
p3289
sg6
V726
p3290
sg8
VAlfa Radio 96
p3291
ssS'724'
p3292
(dp3293
g2133
S'http://shoutcast.24radio.gr:8072'
p3294
sg6
V724
p3295
sg8
V\u03a1\u03ac\u03b4\u03b9\u03bf \u0386\u03c3\u03c4\u03c5 90.6
p3296
ssS'89'
p3297
(dp3298
g1795
S'http://shout.streamwithq.gr:4144/'
p3299
sg6
V89
p3300
sg8
VStar 97.1
p3301
ssS'723'
p3302
(dp3303
g2133
S'http://s5.onweb.gr:8502'
p3304
sg6
V723
p3305
sg8
V\u0394\u03af\u03b1\u03c5\u03bb\u03bf\u03c2 \u039a\u03b1\u03c1\u03b4\u03af\u03c4\u03c3\u03b1\u03c2 102.8
p3306
ssS'720'
p3307
(dp3308
g6
V720
p3309
sg8
VVelvet.
p3310
ssS'721'
p3311
(dp3312
g2133
S'http://208.43.81.168:8748'
p3313
sg6
V721
p3314
sg8
VIoannina Dee Jay 89.6
p3315
ssS'728'
p3316
(dp3317
g2133
S'http://s2.onweb.gr:8646/'
p3318
sg6
V728
p3319
sg8
VVibe Fm 95.4
p3320
ssS'151'
p3321
(dp3322
g6
V151
p3323
sg8
V\u0394\u03b5\u03cd\u03c4\u03b5\u03c1\u03bf 103.7
p3324
ssS'604'
p3325
(dp3326
g1795
S'http://shoutcast.24radio.gr:8006'
p3327
sg6
V604
p3328
sg8
VKiss 101.3
p3329
ssS'153'
p3330
(dp3331
g6
V153
p3332
sg8
VRed 96.3
p3333
ssS'152'
p3334
(dp3335
g6
V152
p3336
sg8
V\u03a4\u03c1\u03af\u03c4\u03bf  90.9
p3337
ssS'155'
p3338
(dp3339
g1538
S'mms://a1758.l3271933757.c32719.g.lm.akamaistream.net/D/1758/32719/v0001/reflector:33757'
p3340
sg6
V155
p3341
sg8
V102 Fm
p3342
ssS'600'
p3343
(dp3344
g1795
S'http://stream.xromafm.gr:59102/'
p3345
sg6
V600
p3346
sg8
V\u03a7\u03c1\u03ce\u03bc\u03b1 Fm 102.1
p3347
ssS'603'
p3348
(dp3349
g6
V603
p3350
sg8
V\u03a3\u03c5\u03bd \u0388\u03bd\u03b1 Radio 95.8
p3351
ssS'156'
p3352
(dp3353
g1795
S'mms://a1933.l3271921932.c32719.g.lm.akamaistream.net/D/1933/32719/v0001/reflector:21932'
p3354
sg6
V156
p3355
sg8
V\u03a4\u03c1\u03af\u03c4\u03bf \u03a0\u03c1\u03cc\u03b3\u03c1\u03b1\u03bc\u03bc\u03b1 \u0392\u03c1\u03b1\u03c7\u03ad\u03b1
p3356
ssS'159'
p3357
(dp3358
g2133
S'http://topmelodyfm.selfip.net'
p3359
sg6
V159
p3360
sg8
VTop Melody 104.9
p3361
ssS'158'
p3362
(dp3363
g1772
S'mms://era.aegean.gr/era'
p3364
sg6
V158
p3365
sg8
V\u0395\u03a1\u0391 \u0392. \u0391\u03b9\u03b3\u03b1\u03af\u03bf\u03c5 103
p3366
ssS'609'
p3367
(dp3368
g6
V609
p3369
sg8
VRadio Piotita
p3370
ssS'608'
p3371
(dp3372
g1772
S'http://golive.onestreaming.com/arionlaikos'
p3373
sg6
V608
p3374
sg8
VArion \u039b\u03b1\u03ca\u03ba\u03cc\u03c2
p3375
ssS'469'
p3376
(dp3377
g6
V469
p3378
sg8
V\u03a1\u03ac\u03b4\u03b9\u03bf \u039a\u03b1\u03bb\u03bb\u03af\u03c0\u03bf\u03bb\u03b7
p3379
ssS'935'
p3380
(dp3381
g2133
S'http://176.9.35.49:9942'
p3382
sg6
V935
p3383
sg8
V\u03a1\u03ac\u03b4\u03b9\u03bf \u03a0\u03b1\u03c1\u03b5\u03bf\u03cd\u03bb\u03b1
p3384
ssS'399'
p3385
(dp3386
g2133
S'http://s7.onweb.gr:8548/'
p3387
sg6
V399
p3388
sg8
V\u03a1\u03ac\u03b4\u03b9\u03bf \u03a0\u03b1\u03bb\u03b1\u03b9\u03cc\u03c7\u03c9\u03c1\u03b1 89.3
p3389
ssS'468'
p3390
(dp3391
g6
V468
p3392
sg8
V\u0391\u03b3\u03c1\u03af\u03bd\u03b9\u03bf Fm 93.7
p3393
ssS'959'
p3394
(dp3395
g6
V959
p3396
sg8
VKappa Radio 87.9
p3397
ssS'48'
p3398
(dp3399
g6
V48
p3400
sg8
V\u0395\u03ba\u03ba\u03bb\u03b7\u03c3\u03af\u03b1 89.5
p3401
ssS'49'
p3402
(dp3403
g6
V49
p3404
sg8
V\u03a0\u03b5\u03b9\u03c1\u03b1\u03ca\u03ba\u03ae \u0395\u03ba\u03ba\u03bb\u03b7\u03c3\u03af\u03b1 91.2
p3405
ssS'46'
p3406
(dp3407
g1772
S'http://radiogold.live24.gr/radiogold'
p3408
sg6
V46
p3409
sg8
VRadio Gold
p3410
ssS'47'
p3411
(dp3412
g1772
S'mms://oasis.live24.gr/oasis8888'
p3413
sg6
V47
p3414
sg8
V\u038c\u03b1\u03c3\u03b9\u03c2 88
p3415
ssS'953'
p3416
(dp3417
g1772
S'http://live.onestreaming.com/notesserres'
p3418
sg6
V953
p3419
sg8
V\u03a1\u03ac\u03b4\u03b9\u03bf \u039d\u03cc\u03c4\u03b5\u03c2 106
p3420
ssS'952'
p3421
(dp3422
g6
V952
p3423
sg8
VSunshine Radio
p3424
ssS'42'
p3425
(dp3426
g6
V42
p3427
sg8
V\u0391\u03b8\u03ae\u03bd\u03b1 9.84
p3428
ssS'954'
p3429
(dp3430
g6
V954
p3431
sg8
VRock 69
p3432
ssS'957'
p3433
(dp3434
g6
V957
p3435
sg8
V\u039d\u03b1\u03c5\u03ac\u03b3\u03b9\u03b1
p3436
ssS'41'
p3437
(dp3438
g2133
S'http://s3.onweb.gr:8878/'
p3439
sg6
V41
p3440
sg8
V\u039a\u03c1\u03ae\u03c4\u03b7 Fm 87.5
p3441
ssS'638'
p3442
(dp3443
g2133
S'http://s3.onweb.gr:8540/'
p3444
sg6
V638
p3445
sg8
VRadio Epigee
p3446
ssS'464'
p3447
(dp3448
g6
V464
p3449
sg8
VMarconi Radio
p3450
ssS'508'
p3451
(dp3452
g6
V508
p3453
sg8
V\u039b\u03b1\u03ca\u03ba\u03cc Radio
p3454
ssS'489'
p3455
(dp3456
g2133
S'http://shoutcast.24radio.gr:8076'
p3457
sg6
V489
p3458
sg8
V\u03a1\u03ac\u03b4\u03b9\u03bf \u039c\u03b5\u03bb\u03c9\u03b4\u03af\u03b1 102.4
p3459
ssS'488'
p3460
(dp3461
g6
V488
p3462
sg8
V\u0389\u03c7\u03bf\u03c2 Radio 91
p3463
ssS'487'
p3464
(dp3465
g6
V487
p3466
sg8
VPluslive Radio
p3467
ssS'486'
p3468
(dp3469
g2133
S'http://78.46.46.214:8000/'
p3470
sg6
V486
p3471
sg8
VRadio Relax
p3472
ssS'485'
p3473
(dp3474
g6
V485
p3475
sg8
VMango Radio Urban
p3476
ssS'484'
p3477
(dp3478
g1772
S'http://live.onestreaming.com/myradionet'
p3479
sg6
V484
p3480
sg8
VMy Radio 89.6
p3481
ssS'483'
p3482
(dp3483
g6
V483
p3484
sg8
V\u03a1\u03ac\u03b4\u03b9\u03bf \u0397\u03c7\u03cc
p3485
ssS'482'
p3486
(dp3487
g6
V482
p3488
sg8
VSigma Radio
p3489
ssS'481'
p3490
(dp3491
g6
V481
p3492
sg8
VAntenna Radio
p3493
ssS'480'
p3494
(dp3495
g6
V480
p3496
sg8
VRolling Paper
p3497
ssS'509'
p3498
(dp3499
g2133
S'http://50.7.243.50:8127/'
p3500
sg6
V509
p3501
sg8
VEnergy 93.4
p3502
ssS'473'
p3503
(dp3504
g6
V473
p3505
sg8
VRadio Next
p3506
ssS'470'
p3507
(dp3508
g2133
S'http://83.133.127.198:8999'
p3509
sg6
V470
p3510
sg8
VReal Fm 107.1
p3511
ssS'471'
p3512
(dp3513
g1772
S'http://radio.radionova.gr:8263/kritorama.m3u'
p3514
sg6
V471
p3515
sg8
V\u039a\u03c1\u03b7\u03c4\u03cc\u03c1\u03b1\u03bc\u03b1 97.9
p3516
ssS'476'
p3517
(dp3518
g2133
S'mms://a714.l649552713.c6495.g.lm.akamaistream.net/D/714/6495/v0001/reflector:52713'
p3519
sg6
V476
p3520
sg8
VMusic 89.2
p3521
ssS'477'
p3522
(dp3523
g6
V477
p3524
sg8
VTripa Radio
p3525
ssS'474'
p3526
(dp3527
g2133
S'http://eco.onestreaming.com:8324'
p3528
sg6
V474
p3529
sg8
V\u0395\u03a1\u0391 \u03a0\u03ac\u03c4\u03c1\u03b1\u03c2 92.5
p3530
ssS'475'
p3531
(dp3532
g6
V475
p3533
sg8
VFlash \u03a0\u03ac\u03c4\u03c1\u03b1\u03c2 98.7
p3534
ssS'478'
p3535
(dp3536
g2133
S'http://hotfm.live24.gr/shock'
p3537
sg6
V478
p3538
sg8
VHot Fm
p3539
ssS'479'
p3540
(dp3541
g2133
S'http://178.32.57.58:8557/'
p3542
sg6
V479
p3543
sg8
VStudio 359
p3544
ss.