(dp1
S'507'
p2
(dp3
S'id'
p4
V507
p5
sS'title'
p6
V\u03a7\u03ce\u03c1\u03bf\u03c2 94.2
p7
ssS'818'
p8
(dp9
g4
V818
p10
sg6
VRadio Heaven
p11
ssS'819'
p12
(dp13
g4
V819
p14
sg6
VWinder Ellinikos
p15
ssS'346'
p16
(dp17
S'url'
p18
S'http://metro903.live24.gr/metro903-1000'
p19
sg4
V346
p20
sg6
VMetro Fm 90.3
p21
ssS'347'
p22
(dp23
g4
V347
p24
sg6
V\u0395\u03bb\u03bb\u03b7\u03bd\u03b9\u03ba\u03cc\u03c2 90.3
p25
ssS'340'
p26
(dp27
g18
S'http://s6.onweb.gr:8056'
p28
sg4
V340
p29
sg6
V\u03a1\u03ac\u03b4\u03b9\u03bf \u03a6\u03ac\u03c1\u03bf\u03c2 92.7
p30
ssS'341'
p31
(dp32
g18
S'http://s3.onweb.gr:8060'
p33
sg4
V341
p34
sg6
V\u03a0\u03af\u03bd\u03b4\u03bf\u03c2 Fm 107.7
p35
ssS'342'
p36
(dp37
g4
V342
p38
sg6
VStar 99
p39
ssS'343'
p40
(dp41
g4
V343
p42
sg6
VPop Fm 89.1
p43
ssS'810'
p44
(dp45
S'id'
p46
V810
p47
sS'title'
p48
V365 Radio
p49
ssS'811'
p50
(dp51
g4
V811
p52
sg6
V\u03a1\u03ac\u03b4\u03b9\u03bf \u0391\u03af\u03b3\u03b9\u03bd\u03b1
p53
ssS'812'
p54
(dp55
g18
S'http://live.e-streaming.eu:8120/'
p56
sg4
V812
p57
sg6
V\u03a1\u03ac\u03b4\u03b9\u03bf \u039c\u03c9\u03c1\u03b9\u03ac\u03c2 102.7
p58
ssS'348'
p59
(dp60
g18
S'http://live.isolservers.com:8400'
p61
sg4
V348
p62
sg6
V\u03a3\u03b5\u03af\u03c1\u03b9\u03bf\u03c2 Fm 95.8
p63
ssS'815'
p64
(dp65
g4
V815
p66
sg6
VFresh Web Radio
p67
ssS'816'
p68
(dp69
g18
S'http://www.streamyourdream.org:8000/urbanradio'
p70
sg4
V816
p71
sg6
VUrban Radio
p72
ssS'817'
p73
(dp74
g18
S'http://66.90.104.41:8356/'
p75
sg4
V817
p76
sg6
VD Radio
p77
ssS'595'
p78
(dp79
g4
V595
p80
sg6
V\u03a9\u03bc\u03ad\u03b3\u03b1 Fm 90
p81
ssS'719'
p82
(dp83
g18
S'http://208.43.121.133:9652/'
p84
sg4
V719
p85
sg6
V\u03a0\u03cc\u03bd\u03c4\u03bf\u03c2 \u039b\u03b5\u03bb\u03ad\u03b2\u03c9\u03c3\u03b5 101.3
p86
ssS'718'
p87
(dp88
g4
V718
p89
sg6
VPlus Elegance
p90
ssS'716'
p91
(dp92
g18
S'http://stream-push2.live24.gr/synorafm-3462'
p93
sg4
V716
p94
sg6
V\u03a3\u03cd\u03bd\u03bf\u03c1\u03b1 Fm 92.2
p95
ssS'714'
p96
(dp97
g18
S'http://eco.onestreaming.com:8072'
p98
sg4
V714
p99
sg6
VLove Radio 97.2
p100
ssS'713'
p101
(dp102
g4
V713
p103
sg6
VRadio Alpha Omega
p104
ssS'711'
p105
(dp106
g18
S'http://75.75.226.26:8204'
p107
sg4
V711
p108
sg6
VAlpha Fm 104.7
p109
ssS'710'
p110
(dp111
g4
V710
p112
sg6
VSport Fm \u03a1\u03ad\u03b8\u03c5\u03bc\u03bd\u03bf 103.3
p113
ssS'618'
p114
(dp115
g18
S'http://shoutcast.24radio.gr:8038/'
p116
sg4
V618
p117
sg6
VViva Gr 102.8
p118
ssS'1065'
p119
(dp120
g18
S'http://eco.onestreaming.com:8222/'
p121
sg4
V1065
p122
sg6
VPlay Radio
p123
ssS'619'
p124
(dp125
g4
V619
p126
sg6
VTechno Time Radio
p127
ssS'427'
p128
(dp129
g4
V427
p130
sg6
VThessaloniki Dee Jay 89.4
p131
ssS'298'
p132
(dp133
g4
V298
p134
sg6
V\u0395\u03bb\u03bb\u03b7\u03bd\u03b9\u03ba\u03cc\u03c2 107.2
p135
ssS'299'
p136
(dp137
g18
S'mms://1045fm.live24.gr/1045fm/'
p138
sg4
V299
p139
sg6
V\u03a1\u03c5\u03b8\u03bc\u03cc\u03c2 104.5
p140
ssS'296'
p141
(dp142
g4
V296
p143
sg6
VDance Radio Chill Out
p144
ssS'297'
p145
(dp146
g4
V297
p147
sg6
V\u039b\u03ac\u03bc\u03c8\u03b7 Fm 105.7
p148
ssS'295'
p149
(dp150
g4
V295
p151
sg6
VDance Radio Global
p152
ssS'292'
p153
(dp154
g4
V292
p155
sg6
VI. Galaxy Sport Fm 90.8
p156
ssS'293'
p157
(dp158
g4
V293
p159
sg6
V\u0395\u03c1\u03c9\u03c4\u03cc\u03ba\u03c1\u03b9\u03c4\u03bf\u03c2 87.9
p160
ssS'290'
p161
(dp162
g18
S'http://ice.motionfm.com:80/motiontwo_free'
p163
sg4
V290
p164
sg6
VSmooth Motion Fm
p165
ssS'291'
p166
(dp167
g18
S'http://85.17.75.142/echoes'
p168
sg4
V291
p169
sg6
VEchoes
p170
ssS'591'
p171
(dp172
g4
V591
p173
sg6
VPlus Amor
p174
ssS'590'
p175
(dp176
g18
S'http://eco.onestreaming.com:8257'
p177
sg4
V590
p178
sg6
VRadio Star 95,5
p179
ssS'1085'
p180
(dp181
g18
S'http://shoutcast.24radio.gr:8022'
p182
sg4
V1085
p183
sg6
VHot Rockin Radio
p184
ssS'592'
p185
(dp186
g4
V592
p187
sg6
VPlus Dance
p188
ssS'199'
p189
(dp190
g18
S'http://live.onestreaming.com/lihnari'
p191
sg4
V199
p192
sg6
V\u039b\u03c5\u03c7\u03bd\u03ac\u03c1\u03b9 91.4
p193
ssS'594'
p194
(dp195
g4
V594
p196
sg6
VOxygen Fm 95.3
p197
ssS'597'
p198
(dp199
g18
S'http://live.onestreaming.com/blacklemon'
p200
sg4
V597
p201
sg6
VBlack Lemon Radio 
p202
ssS'596'
p203
(dp204
g4
V596
p205
sg6
VRadio Project
p206
ssS'195'
p207
(dp208
g18
S'http://s6.onweb.gr:8012'
p209
sg4
V195
p210
sg6
VTop FM 106.4
p211
ssS'194'
p212
(dp213
g4
V194
p214
sg6
V\u03a1\u03ac\u03b4\u03b9\u03bf \u03a0\u03ac\u03c4\u03c1\u03b1 106.5
p215
ssS'197'
p216
(dp217
S'url'
p218
S'http://s3.onweb.gr:8888'
p219
sg4
V197
p220
sg6
VLoud 88.8
p221
ssS'196'
p222
(dp223
g4
V196
p224
sg6
V\u03a1\u03ac\u03b4\u03b9\u03bf \u03a3\u03c4\u03bf\u03c1\u03ba 89.8
p225
ssS'191'
p226
(dp227
g218
S'http://s4.onweb.gr:8468'
p228
sg4
V191
p229
sg6
V\u03a1\u03ac\u03b4\u03b9\u03bf \u039b\u03ad\u03c7\u03bf\u03b2\u03bf 97.1
p230
ssS'190'
p231
(dp232
g4
V190
p233
sg6
V\u03a1\u03ac\u03b4\u03b9\u03bf \u03a6\u03bb\u03ce\u03c1\u03b9\u03bd\u03b1 101.5
p234
ssS'193'
p235
(dp236
g218
S'http://live.onestreaming.com/toxotis'
p237
sg4
V193
p238
sg6
V\u03a4\u03bf\u03be\u03cc\u03c4\u03b7\u03c2 Fm 96.3
p239
ssS'192'
p240
(dp241
g218
S'http://72.55.146.84:8002/'
p242
sg4
V192
p243
sg6
V\u0395\u03c1\u03c9\u03c4\u03b9\u03ba\u03cc\u03c2 99.5
p244
ssS'270'
p245
(dp246
g218
S'http://s3.onweb.gr:8046'
p247
sg4
V270
p248
sg6
VEnjoy Radio 107
p249
ssS'271'
p250
(dp251
g4
V271
p252
sg6
V\u039b\u03ac\u03bc\u03c8\u03b7 103.3
p253
ssS'272'
p254
(dp255
g218
S'http://78.129.159.205:8048'
p256
sg4
V272
p257
sg6
V\u0399\u03b5\u03c1\u03ac \u039c\u03b7\u03c4\u03c1\u03cc\u03c0\u03bf\u03bb\u03b7 88.4
p258
ssS'273'
p259
(dp260
g218
S'mms://radiogamma.live24.gr/radiogamma'
p261
sg4
V273
p262
sg6
V\u03a1\u03ac\u03b4\u03b9\u03bf \u0393\u03ac\u03bc\u03bc\u03b1 94
p263
ssS'274'
p264
(dp265
g218
S'http://s1.onweb.gr:8898'
p266
sg4
V274
p267
sg6
V\u039d\u03b5\u03bc\u03ad\u03b1 Radio 107.6
p268
ssS'275'
p269
(dp270
g218
S'http://s6.onweb.gr:8008'
p271
sg4
V275
p272
sg6
VJust 96.4
p273
ssS'276'
p274
(dp275
g218
S'http://s3.onweb.gr:8510'
p276
sg4
V276
p277
sg6
V\u039b\u03bf\u03c5\u03c4\u03c1\u03ac\u03ba\u03b9 Fm 96.9
p278
ssS'277'
p279
(dp280
g218
S'http://s3.onweb.gr:8472/'
p281
sg4
V277
p282
sg6
VL Radio 87.5
p283
ssS'278'
p284
(dp285
g218
S'http://s1.onweb.gr:8828'
p286
sg4
V278
p287
sg6
V\u03a1\u03ac\u03b4\u03b9\u03bf \u0395\u03bd\u03ad\u03c1\u03b3\u03b5\u03b9\u03b1 106.4
p288
ssS'279'
p289
(dp290
g218
S'http://stream.kiss922.gr:59922/'
p291
sg4
V279
p292
sg6
VKiss 93.8
p293
ssS'524'
p294
(dp295
g4
V524
p296
sg6
VRussian Wave 105.6
p297
ssS'525'
p298
(dp299
g4
V525
p300
sg6
VPost Rocking
p301
ssS'526'
p302
(dp303
g4
V526
p304
sg6
V\u03a3\u03ba\u03ac\u03ca \u0391\u03c1\u03b3\u03bf\u03bb\u03af\u03b4\u03b1\u03c2 102.3
p305
ssS'527'
p306
(dp307
g4
V527
p308
sg6
VNoise Fm 100.5
p309
ssS'520'
p310
(dp311
g4
V520
p312
sg6
VArion Kids
p313
ssS'521'
p314
(dp315
g218
S'http://eco.onestreaming.com:8266'
p316
sg4
V521
p317
sg6
V\u0397\u03c7\u03ce Radio 102.7
p318
ssS'523'
p319
(dp320
g218
S'http://live.onestreaming.com/orthodoxia'
p321
sg4
V523
p322
sg6
V\u039f\u03c1\u03b8\u03bf\u03b4\u03bf\u03be\u03af\u03b1 \u03ba\u03b1\u03b9 \u03a0\u03b1\u03c1\u03ac\u03b4\u03bf\u03c3\u03b7
p323
ssS'1014'
p324
(dp325
g218
S'http://188.138.19.96:8030/'
p326
sg4
V1014
p327
sg6
VDeejay Fm 107.3
p328
ssS'528'
p329
(dp330
g4
V528
p331
sg6
VGreekzlive Radio
p332
ssS'529'
p333
(dp334
g218
S'http://shoutcast.24radio.gr:8010/'
p335
sg4
V529
p336
sg6
VNetcruise Radio
p337
ssS'449'
p338
(dp339
g4
V449
p340
sg6
VCocktail Radio
p341
ssS'448'
p342
(dp343
g218
S'http://eco.onestreaming.com:8005/stream'
p344
sg4
V448
p345
sg6
VLoco Radio
p346
ssS'443'
p347
(dp348
g218
S'http://www.tuningradio.gr:8000/'
p349
sg4
V443
p350
sg6
VTuning Radio
p351
ssS'442'
p352
(dp353
g4
V442
p354
sg6
V\u03a1\u03ac\u03b4\u03b9\u03bf \u03a6\u03ac\u03c3\u03b7
p355
ssS'441'
p356
(dp357
g4
V441
p358
sg6
VHot Station
p359
ssS'440'
p360
(dp361
g4
V440
p362
sg6
VActive Radio
p363
ssS'447'
p364
(dp365
g4
V447
p366
sg6
VMango Radio
p367
ssS'446'
p368
(dp369
S'url'
p370
S'http://live.waveradio.gr:8000/listen'
p371
sg4
V446
p372
sg6
VWave Radio
p373
ssS'445'
p374
(dp375
g4
V445
p376
sg6
VNotes Radio
p377
ssS'444'
p378
(dp379
g4
V444
p380
sg6
VBlue Radio
p381
ssS'108'
p382
(dp383
g4
V108
p384
sg6
VEpirusMusic
p385
ssS'109'
p386
(dp387
g4
V109
p388
sg6
VBlu Radio
p389
ssS'102'
p390
(dp391
g4
V102
p392
sg6
VTrip Radio
p393
ssS'103'
p394
(dp395
g370
S'http://live.onestreaming.com/deltaradio'
p396
sg4
V103
p397
sg6
VIEK Delta Radio
p398
ssS'100'
p399
(dp400
g4
V100
p401
sg6
VEvia Channel 94.2
p402
ssS'101'
p403
(dp404
g4
V101
p405
sg6
VStudio E 103
p406
ssS'107'
p407
(dp408
g370
S'http://s4.onweb.gr:8062/'
p409
sg4
V107
p410
sg6
V\u039e\u03b5\u03bd\u03cd\u03c7\u03c4\u03b7\u03c2
p411
ssS'104'
p412
(dp413
g4
V104
p414
sg6
V1431 AM
p415
ssS'105'
p416
(dp417
g370
S'http://live.onestreaming.com/bestmytilini'
p418
sg4
V105
p419
sg6
VBest Fm 98.1
p420
ssS'39'
p421
(dp422
g370
S'http://parea104.live24.gr/parea104'
p423
sg4
V39
p424
sg6
V\u03a0\u03b1\u03c1\u03ad\u03b1 104
p425
ssS'38'
p426
(dp427
g370
S'mms://johngreek.live24.gr/polis2795'
p428
sg4
V38
p429
sg6
VNRJ Radio 88.6
p430
ssS'907'
p431
(dp432
g4
V907
p433
sg6
VRadio Digital
p434
ssS'904'
p435
(dp436
g4
V904
p437
sg6
VSuper Radio
p438
ssS'33'
p439
(dp440
g370
S'mms://nitro.live24.gr/nitro4555'
p441
sg4
V33
p442
sg6
VNitro 102.5
p443
ssS'32'
p444
(dp445
g370
S'mms://kissfm.live24.gr/kiss2111'
p446
sg4
V32
p447
sg6
VKiss 92.9
p448
ssS'31'
p449
(dp450
g370
S'mms://best.live24.gr/best1222'
p451
sg4
V31
p452
sg6
VBest 92.6
p453
ssS'30'
p454
(dp455
g370
S'http://loveradio.live24.gr/loveradio-1000'
p456
sg4
V30
p457
sg6
VLove Radio 97.5
p458
ssS'37'
p459
(dp460
g370
S'http://dromos898.live24.gr/dromos898'
p461
sg4
V37
p462
sg6
V\u0394\u03c1\u03cc\u03bc\u03bf\u03c2 Fm 89.8
p463
ssS'36'
p464
(dp465
g4
V36
p466
sg6
VRadio 9 98.9
p467
ssS'35'
p468
(dp469
g4
V35
p470
sg6
VHi Jack
p471
ssS'34'
p472
(dp473
g370
S'mms://sfera.live24.gr/sfera4132'
p474
sg4
V34
p475
sg6
VSfera 102.2
p476
ssS'641'
p477
(dp478
g4
V641
p479
sg6
VCosmos Fm 103.8
p480
ssS'640'
p481
(dp482
g370
S'http://s4.onweb.gr:8442/'
p483
sg4
V640
p484
sg6
VRadio Amore
p485
ssS'643'
p486
(dp487
g370
S'http://174.36.237.66:8112/'
p488
sg4
V643
p489
sg6
VEnergy Fm 101
p490
ssS'645'
p491
(dp492
g4
V645
p493
sg6
VPrime Radio 100.3
p494
ssS'644'
p495
(dp496
g370
S'http://s3.onweb.gr:8474/'
p497
sg4
V644
p498
sg6
VFresh Radio
p499
ssS'88'
p500
(dp501
g4
V88
p502
sg6
V\u03a3 \u03b1\u03b3\u03b1\u03c0\u03ce 96.1
p503
ssS'646'
p504
(dp505
g370
S'http://s5.onweb.gr:8504/'
p506
sg4
V646
p507
sg6
V\u03a6\u03ac\u03c1\u03bf\u03c2 Fm 104
p508
ssS'649'
p509
(dp510
g370
S'http://eco.onestreaming.com:8294'
p511
sg4
V649
p512
sg6
VPower Fm 92.6
p513
ssS'648'
p514
(dp515
g4
V648
p516
sg6
VView Fm 103.9
p517
ssS'435'
p518
(dp519
g4
V435
p520
sg6
VCoolfm.eu
p521
ssS'432'
p522
(dp523
g4
V432
p524
sg6
VSplash Radio
p525
ssS'433'
p526
(dp527
g4
V433
p528
sg6
V\u0394\u03b9\u03b1\u03b8\u03b5\u03c4\u03b9\u03ba\u03ae
p529
ssS'1002'
p530
(dp531
g4
V1002
p532
sg6
V\u03a1\u03c5\u03b8\u03bc\u03cc\u03c2 Fm12 93.5
p533
ssS'339'
p534
(dp535
g370
S'http://live.skyradio.gr:9920'
p536
sg4
V339
p537
sg6
VSky Radio 99.2
p538
ssS'338'
p539
(dp540
g370
S'http://94.23.159.115:8088/'
p541
sg4
V338
p542
sg6
VSafari 104.7
p543
ssS'335'
p544
(dp545
g370
S'http://eco.onestreaming.com:8070'
p546
sg4
V335
p547
sg6
V\u0392\u03ae\u03bc\u03b1 Fm 90.1
p548
ssS'334'
p549
(dp550
g4
V334
p551
sg6
V\u039c\u03cd\u03b8\u03bf\u03c2 93.4
p552
ssS'337'
p553
(dp554
g4
V337
p555
sg6
V\u03a1\u03ac\u03b4\u03b9\u03bf \u0398\u03b5\u03c3\u03c0\u03c1\u03c9\u03c4\u03af\u03b1 97.1
p556
ssS'336'
p557
(dp558
g4
V336
p559
sg6
V\u03a1\u03ac\u03b4\u03b9\u03bf \u03a0\u03c1\u03ad\u03b2\u03b5\u03b6\u03b1 93
p560
ssS'331'
p561
(dp562
g370
S'http://s2.onweb.gr:8632'
p563
sg4
V331
p564
sg6
V\u0391\u03ba\u03c4\u03af\u03bd\u03b1 Fm 107.6
p565
ssS'330'
p566
(dp567
g370
S'mms://radio.istoikona.com/cosmos'
p568
sg4
V330
p569
sg6
VCosmos Radio 95.2
p570
ssS'332'
p571
(dp572
g4
V332
p573
sg6
VRadio Blackman 103.1
p574
ssS'89'
p575
(dp576
g370
S'http://shout.streamwithq.gr:4144/'
p577
sg4
V89
p578
sg6
VStar 97.1
p579
ssS'558'
p580
(dp581
g4
V558
p582
sg6
VXLR8 Net
p583
ssS'344'
p584
(dp585
g370
S'http://78.129.143.157:8000/starfm'
p586
sg4
V344
p587
sg6
VStar Fm 97.1
p588
ssS'345'
p589
(dp590
g370
S'http://live.onestreaming.com/karpenisi'
p591
sg4
V345
p592
sg6
V\u03a1\u03ac\u03b4\u03b9\u03bf \u039a\u03b1\u03c1\u03c0\u03b5\u03bd\u03ae\u03c3\u03b9 97.5
p593
ssS'748'
p594
(dp595
g370
S'http://nyc04.egihosting.com/458378'
p596
sg4
V748
p597
sg6
VCity International 106.1
p598
ssS'98'
p599
(dp600
g4
V98
p601
sg6
VGnet Radio
p602
ssS'91'
p603
(dp604
g370
S'http://sc2.greekstream.net:4008'
p605
sg4
V91
p606
sg6
V\u03a3\u03c4\u03b1\u03b8\u03bc\u03cc\u03c2
p607
ssS'90'
p608
(dp609
g370
S'http://stream.greekradios.gr:9060'
p610
sg4
V90
p611
sg6
VZoo Radio 90.8
p612
ssS'93'
p613
(dp614
g4
V93
p615
sg6
VGrassagoogoo
p616
ssS'92'
p617
(dp618
g4
V92
p619
sg6
V\u039a\u03bf\u03c3\u03bc\u03bf\u03c1\u03ac\u03b4\u03b9\u03bf 95.1
p620
ssS'95'
p621
(dp622
g4
V95
p623
sg6
VRadio Jukebox
p624
ssS'94'
p625
(dp626
g4
V94
p627
sg6
VRock Machine
p628
ssS'97'
p629
(dp630
g4
V97
p631
sg6
VAlpha 100.5
p632
ssS'96'
p633
(dp634
g370
S'http://webradio.musicheaven.gr:9850'
p635
sg4
V96
p636
sg6
VMusic Heaven
p637
ssS'349'
p638
(dp639
g370
S'http://s1.onweb.gr:8860'
p640
sg4
V349
p641
sg6
V\u03a3\u03c4\u03c5\u03bb\u03af\u03b4\u03b1 Fm 94.1
p642
ssS'153'
p643
(dp644
g4
V153
p645
sg6
VRed 96.3
p646
ssS'740'
p647
(dp648
g370
S'http://85.17.30.90:8044/'
p649
sg4
V740
p650
sg6
VStar Fm 95.7
p651
ssS'742'
p652
(dp653
g4
V742
p654
sg6
V\u03a1\u03ac\u03b4\u03b9\u03bf \u0391\u03bc\u03c6\u03b9\u03bb\u03bf\u03c7\u03af\u03b1 104.5
p655
ssS'743'
p656
(dp657
g370
S'http://eco.onestreaming.com:8286'
p658
sg4
V743
p659
sg6
V\u039b\u03ac\u03ba\u03ba\u03b1 \u03a3\u03bf\u03cd\u03bb\u03b9 Radio
p660
ssS'559'
p661
(dp662
g370
S'http://208.43.115.44:9888/'
p663
sg4
V559
p664
sg6
V\u0395\u03bb\u03bb\u03b7\u03bd\u03b9\u03ba\u03cc \u03a6\u03b1\u03b9\u03bd\u03cc\u03bc\u03b5\u03bd\u03bf
p665
ssS'745'
p666
(dp667
g4
V745
p668
sg6
VMoreradio
p669
ssS'555'
p670
(dp671
g370
S'http://72.55.146.84:8004/'
p672
sg4
V555
p673
sg6
VDiva Fm 91.6
p674
ssS'554'
p675
(dp676
g370
S'http://s7.onweb.gr:8552/'
p677
sg4
V554
p678
sg6
VHot 101.2
p679
ssS'556'
p680
(dp681
g4
V556
p682
sg6
VLemon Radio
p683
ssS'551'
p684
(dp685
g370
S'http://live.onestreaming.com/radiosamos'
p686
sg4
V551
p687
sg6
V\u03a1\u03ac\u03b4\u03b9\u03bf \u03a3\u03ac\u03bc\u03bf\u03c2 102
p688
ssS'550'
p689
(dp690
g4
V550
p691
sg6
VHuts Radio
p692
ssS'553'
p693
(dp694
g4
V553
p695
sg6
VStudio Fm 1 105.4
p696
ssS'552'
p697
(dp698
g370
S'http://golive.onestreaming.com/astraradio'
p699
sg4
V552
p700
sg6
VAstra Radio 93.2
p701
ssS'238'
p702
(dp703
g370
S'http://85.17.30.90:9986'
p704
sg4
V238
p705
sg6
V\u0397\u03c7\u03cc\u03c1\u03b1\u03bc\u03b1 100.8
p706
ssS'239'
p707
(dp708
g370
S'http://s1.onweb.gr:8052'
p709
sg4
V239
p710
sg6
V\u03a0\u03c1\u03ce\u03c4\u03bf Fm 99
p711
ssS'234'
p712
(dp713
g4
V234
p714
sg6
V\u03a0\u03cc\u03bb\u03b9\u03c2 99.4
p715
ssS'235'
p716
(dp717
g370
S'http://s1.onweb.gr:8824'
p718
sg4
V235
p719
sg6
V\u03a1\u03ac\u03b4\u03b9\u03bf 2 97.1
p720
ssS'236'
p721
(dp722
g370
S'http://live.onestreaming.com/radiovelika'
p723
sg4
V236
p724
sg6
VRadio Velika 92.2
p725
ssS'237'
p726
(dp727
g4
V237
p728
sg6
VBest Radio 93.9
p729
ssS'230'
p730
(dp731
g4
V230
p732
sg6
V\u03a1\u03ac\u03b4\u03b9\u03bf \u03a6\u03ac\u03c1\u03bf\u03c2 91.8
p733
ssS'231'
p734
(dp735
g4
V231
p736
sg6
VHeart Fm 105.1
p737
ssS'232'
p738
(dp739
g4
V232
p740
sg6
VAstra 97.3
p741
ssS'233'
p742
(dp743
g4
V233
p744
sg6
V\u03a1\u03ac\u03b4\u03b9\u03bf \u039a\u03b9\u03b2\u03c9\u03c4\u03cc\u03c2 87.8
p745
ssS'1055'
p746
(dp747
g370
S'http://eco.onestreaming.com:8014/live'
p748
sg4
V1055
p749
sg6
VBleep Radio
p750
ssS'1059'
p751
(dp752
g370
S'http://188.40.131.14:6004/'
p753
sg4
V1059
p754
sg6
VCosi Radio
p755
ssS'155'
p756
(dp757
g370
S'mms://a1758.l3271933757.c32719.g.lm.akamaistream.net/D/1758/32719/v0001/reflector:33757'
p758
sg4
V155
p759
sg6
V102 Fm
p760
ssS'146'
p761
(dp762
g370
S'mms://radio.istoikona.com/starfmcy'
p763
sg4
V146
p764
sg6
VStar Fm 93.7
p765
ssS'147'
p766
(dp767
g370
S'mms://radio.istoikona.com/rockfm'
p768
sg4
V147
p769
sg6
VRock Fm 98.5
p770
ssS'144'
p771
(dp772
g4
V144
p773
sg6
VMusicNetCy \u0388\u03bd\u03c4\u03b5\u03c7\u03bd\u03bf
p774
ssS'145'
p775
(dp776
g4
V145
p777
sg6
VKiss 89.0
p778
ssS'142'
p779
(dp780
g370
S'mms://radio.istoikona.com/sport1'
p781
sg4
V142
p782
sg6
VSports 1 93.7
p783
ssS'143'
p784
(dp785
g4
V143
p786
sg6
VChoice Fm 104.3
p787
ssS'140'
p788
(dp789
g370
S'mms://radio.istoikona.com/kanali61'
p790
sg4
V140
p791
sg6
V\u039a\u03b1\u03bd\u03ac\u03bb\u03b9 6 106
p792
ssS'141'
p793
(dp794
g370
S'mms://live.istoikona.com/astra'
p795
sg4
V141
p796
sg6
VAstra 92.8
p797
ssS'612'
p798
(dp799
g370
S'http://s3.onweb.gr:8536/'
p800
sg4
V612
p801
sg6
V\u0391\u03c1\u03b3\u03bf\u03c3\u03b1\u03c1\u03c9\u03bd\u03b9\u03ba\u03cc\u03c2 106.4
p802
ssS'613'
p803
(dp804
g4
V613
p805
sg6
VLa Radio
p806
ssS'610'
p807
(dp808
g370
S'http://www.streamyourdream.org/djlarisa'
p809
sg4
V610
p810
sg6
VLarissa Dee Jay 101.8
p811
ssS'611'
p812
(dp813
g4
V611
p814
sg6
VParanoise Radio
p815
ssS'616'
p816
(dp817
g370
S'http://109.169.26.78:9294'
p818
sg4
V616
p819
sg6
VMood Radio
p820
ssS'617'
p821
(dp822
g4
V617
p823
sg6
VSeek Fm
p824
ssS'614'
p825
(dp826
g370
S'http://radio.mythosfm.gr:8010'
p827
sg4
V614
p828
sg6
V\u039c\u03cd\u03b8\u03bf\u03c2 Fm 90.6
p829
ssS'149'
p830
(dp831
g370
S'mms://a1113.l3271935112.c32719.g.lm.akamaistream.net/D/1113/32719/v0001/reflector:35112'
p832
sg4
V149
p833
sg6
V\u0395\u03a1\u0391 \u03a3\u03c0\u03bf\u03c1 101.8
p834
ssS'510'
p835
(dp836
g370
S'http://shoutcast.24radio.gr:8062/'
p837
sg4
V510
p838
sg6
V\u03a1\u03ac\u03b4\u03b9\u03bf \u039a\u03b1\u03c3\u03c4\u03bf\u03c1\u03b9\u03ac 93 Fm
p839
ssS'513'
p840
(dp841
g370
S'http://188.40.131.14:8004'
p842
sg4
V513
p843
sg6
VSpace Fm 107
p844
ssS'946'
p845
(dp846
g4
V946
p847
sg6
VMadbox Radio
p848
ssS'515'
p849
(dp850
g370
S'http://eco.onestreaming.com:8168'
p851
sg4
V515
p852
sg6
VRadio In \u039b\u03b1\u03ca\u03ba\u03ac
p853
ssS'944'
p854
(dp855
g4
V944
p856
sg6
VEiva Radio
p857
ssS'945'
p858
(dp859
g4
V945
p860
sg6
VFly Fm
p861
ssS'943'
p862
(dp863
g4
V943
p864
sg6
VEnallax Radio
p865
ssS'940'
p866
(dp867
g4
V940
p868
sg6
VRadio Mostra
p869
ssS'941'
p870
(dp871
g370
S'http://live.onestreaming.com/aeolos'
p872
sg4
V941
p873
sg6
V\u03a1\u03ac\u03b4\u03b9\u03bf \u0391\u03af\u03bf\u03bb\u03bf\u03c2 92.8
p874
ssS'689'
p875
(dp876
g4
V689
p877
sg6
VStatus Radio.net
p878
ssS'1001'
p879
(dp880
g370
S'http://shout.streamwithq.gr:4104/'
p881
sg4
V1001
p882
sg6
VAntenna Fm12 94.4
p883
ssS'685'
p884
(dp885
g370
S'http://live.onestreaming.com/koziani'
p886
sg4
V685
p887
sg6
V\u03a1\u03ac\u03b4\u03b9\u03bf \u039a\u03bf\u03b6\u03b9\u03ac\u03bd\u03b7
p888
ssS'684'
p889
(dp890
g4
V684
p891
sg6
VDerti 104.9
p892
ssS'687'
p893
(dp894
g370
S'http://live.onestreaming.com/radioionia'
p895
sg4
V687
p896
sg6
V\u03a1\u03ac\u03b4\u03b9\u03bf \u0399\u03c9\u03bd\u03af\u03b1 95.2
p897
ssS'686'
p898
(dp899
g370
S'http://s1.onweb.gr:8852/'
p900
sg4
V686
p901
sg6
V\u039a\u03c1\u03b7\u03c4\u03b9\u03ba\u03cc\u03c2 Fm 88.7
p902
ssS'681'
p903
(dp904
g370
S'http://s2.onweb.gr:8602/'
p905
sg4
V681
p906
sg6
V\u039a\u03bb\u03af\u03ba Fm 106.2
p907
ssS'680'
p908
(dp909
g370
S'http://live.onestreaming.com/super88'
p910
sg4
V680
p911
sg6
VSuper Radio 88
p912
ssS'683'
p913
(dp914
g4
V683
p915
sg6
V\u03a3\u03b1\u03bd\u03c4\u03bf\u03c1\u03af\u03bd\u03b7 106.4
p916
ssS'682'
p917
(dp918
g4
V682
p919
sg6
VTi Amo Fm 102.7
p920
ssS'133'
p921
(dp922
g4
V133
p923
sg6
VLove Radio 100.7
p924
ssS'132'
p925
(dp926
g370
S'http://live.onestreaming.com/mixfm'
p927
sg4
V132
p928
sg6
VMix Fm 102.3
p929
ssS'131'
p930
(dp931
g4
V131
p932
sg6
VEnergy 107.6
p933
ssS'130'
p934
(dp935
g370
S'mms://live.istoikona.com/sferacy'
p936
sg4
V130
p937
sg6
VSfera 96.8
p938
ssS'498'
p939
(dp940
g370
S'http://www.streamyourdream.org/djvolos'
p941
sg4
V498
p942
sg6
VVolos Dee Jay 90.7
p943
ssS'136'
p944
(dp945
g4
V136
p946
sg6
VRadio Dee Jay 93.6
p947
ssS'135'
p948
(dp949
g4
V135
p950
sg6
VSuper Sport Fm 104
p951
ssS'134'
p952
(dp953
g370
S'http://golive.onestreaming.com/radioproto'
p954
sg4
V134
p955
sg6
V\u03a1\u03ac\u03b4\u03b9\u03bf \u03a0\u03c1\u03ce\u03c4\u03bf 99.3
p956
ssS'494'
p957
(dp958
g370
S'http://208.43.115.44:8070'
p959
sg4
V494
p960
sg6
V\u0397\u03c7\u03cc\u03c1\u03b1\u03bc\u03b1
p961
ssS'495'
p962
(dp963
g4
V495
p964
sg6
VBalloni Radio
p965
ssS'139'
p966
(dp967
g370
S'mms://live.istoikona.com/topfmcy'
p968
sg4
V139
p969
sg6
VTop Fm 99.9
p970
ssS'497'
p971
(dp972
g370
S'http://drs953.live24.gr/drs953'
p973
sg4
V497
p974
sg6
VDRS 95.3 Disco Radio
p975
ssS'490'
p976
(dp977
g4
V490
p978
sg6
V\u039a\u03b1\u03c3\u03c4\u03ad\u03bb\u03bb\u03b9\u03b1 Radio
p979
ssS'491'
p980
(dp981
g4
V491
p982
sg6
VTEI Radio Digital
p983
ssS'492'
p984
(dp985
g4
V492
p986
sg6
V\u0394\u03c5\u03c4\u03b9\u03ba\u03ac Fm 96.1
p987
ssS'493'
p988
(dp989
g370
S'http://s3.onweb.gr:8524/'
p990
sg4
V493
p991
sg6
VInternational Fm 107.5
p992
ssS'24'
p993
(dp994
g370
S'mms://galaxy.live24.gr/galaxy9292'
p995
sg4
V24
p996
sg6
VGalaxy 92
p997
ssS'25'
p998
(dp999
g370
S'http://realfm.live24.gr/realfm'
p1000
sg4
V25
p1001
sg6
VReal Fm 97.8
p1002
ssS'26'
p1003
(dp1004
g370
S'http://village883.live24.gr/village883'
p1005
sg4
V26
p1006
sg6
VV Fm 88.3
p1007
ssS'27'
p1008
(dp1009
g370
S'mms://derti.live24.gr/derty1000'
p1010
sg4
V27
p1011
sg6
VDerti 98.6
p1012
ssS'20'
p1013
(dp1014
g370
S'http://91.132.6.21:8001'
p1015
sg4
V20
p1016
sg6
VAthens Dee Jay 95.2
p1017
ssS'21'
p1018
(dp1019
g4
V21
p1020
sg6
VRock Fm 96.9
p1021
ssS'22'
p1022
(dp1023
g370
S'mms://orange.live24.gr/orange9320'
p1024
sg4
V22
p1025
sg6
VHappy 93.2
p1026
ssS'23'
p1027
(dp1028
g370
S'mms://enleuko.live24.gr/enleuko877'
p1029
sg4
V23
p1030
sg6
V\u0395\u03bd \u039b\u03b5\u03c5\u03ba\u03ce 87.7
p1031
ssS'28'
p1032
(dp1033
g370
S'http://diesi.live24.gr/diesi1013'
p1034
sg4
V28
p1035
sg6
V\u0394\u03af\u03b5\u03c3\u03b7 101.3
p1036
ssS'29'
p1037
(dp1038
g370
S'mms://sportfm.live24.gr/sportfm7712'
p1039
sg4
V29
p1040
sg6
VNova Sport Fm 94.6
p1041
ssS'407'
p1042
(dp1043
g4
V407
p1044
sg6
V\u03a1\u03ac\u03b4\u03b9\u03bf \u03a7\u03b5\u03c1\u03c3\u03cc\u03bd\u03b7\u03c3\u03c3\u03bf\u03c2 97.2
p1045
ssS'406'
p1046
(dp1047
g4
V406
p1048
sg6
VMetro 89.2
p1049
ssS'405'
p1050
(dp1051
g370
S'http://s3.onweb.gr:8438/'
p1052
sg4
V405
p1053
sg6
VMax 92.5
p1054
ssS'404'
p1055
(dp1056
g4
V404
p1057
sg6
VLava Fm 107.7
p1058
ssS'403'
p1059
(dp1060
g4
V403
p1061
sg6
V\u039d\u03ad\u03bf \u03a1\u03b1\u03b4\u03b9\u03cc\u03c6\u03c9\u03bd\u03bf 102.3
p1062
ssS'402'
p1063
(dp1064
g370
S'http://eco.onestreaming.com:8237/live'
p1065
sg4
V402
p1066
sg6
VRadio 98.4
p1067
ssS'401'
p1068
(dp1069
g370
S'http://s4.onweb.gr:8484'
p1070
sg4
V401
p1071
sg6
V\u039d\u03cc\u03c4\u03bf\u03c2 101.8
p1072
ssS'400'
p1073
(dp1074
g4
V400
p1075
sg6
V\u03a1\u03ac\u03b4\u03b9\u03bf \u039c\u03b1\u03c1\u03c4\u03c5\u03c1\u03af\u03b1 95.5
p1076
ssS'933'
p1077
(dp1078
g370
S'http://shoutcast.24radio.gr:8042/'
p1079
sg4
V933
p1080
sg6
VSfera 91
p1081
ssS'932'
p1082
(dp1083
g370
S'http://www.ghostradio.gr/world-128'
p1084
sg4
V932
p1085
sg6
VGhost Radio
p1086
ssS'409'
p1087
(dp1088
g4
V409
p1089
sg6
V\u0389\u03c7\u03bf\u03c2 Fm 94.2
p1090
ssS'934'
p1091
(dp1092
g4
V934
p1093
sg6
VMusic Box Fm
p1094
ssS'379'
p1095
(dp1096
g4
V379
p1097
sg6
VSmooth Traxx
p1098
ssS'378'
p1099
(dp1100
g4
V378
p1101
sg6
V\u03a7\u03c1\u03b9\u03c3\u03c4\u03b9\u03b1\u03bd\u03b9\u03ba\u03ae \u0391\u03bb\u03ae\u03b8\u03b5\u03b9\u03b1 88.4
p1102
ssS'371'
p1103
(dp1104
g370
S'http://s1.onweb.gr:8008/'
p1105
sg4
V371
p1106
sg6
VAquarius 105.5
p1107
ssS'370'
p1108
(dp1109
g4
V370
p1110
sg6
V\u0395\u03bd\u03b1\u03bb\u03bb\u03ac\u03be Fm 99.9
p1111
ssS'373'
p1112
(dp1113
g370
S'mms://m2.onweb.gr/amorefm'
p1114
sg4
V373
p1115
sg6
VAmore Fm 107.9
p1116
ssS'372'
p1117
(dp1118
g370
S'http://s4.onweb.gr:8080'
p1119
sg4
V372
p1120
sg6
V\u03a1\u03ac\u03b4\u03b9\u03bf \u03a5\u03c0\u03ac\u03c1\u03c7\u03c9 103.7
p1121
ssS'375'
p1122
(dp1123
g370
S'mms://radiofeeds1.mediabox.gr/attradio'
p1124
sg4
V375
p1125
sg6
VAttradio
p1126
ssS'820'
p1127
(dp1128
g370
S'http://shoutcast.24radio.gr:8066/'
p1129
sg4
V820
p1130
sg6
VBee Radio
p1131
ssS'377'
p1132
(dp1133
g370
S'http://live.onestreaming.com/spyridon'
p1134
sg4
V377
p1135
sg6
V\u0386\u03b3\u03b9\u03bf\u03c2 \u03a3\u03c0\u03c5\u03c1\u03af\u03b4\u03c9\u03bd 91.1
p1136
ssS'376'
p1137
(dp1138
g4
V376
p1139
sg6
VIEK Delta Radio Alt.
p1140
ssS'709'
p1141
(dp1142
g4
V709
p1143
sg6
VEnergy Corfu 95.7
p1144
ssS'704'
p1145
(dp1146
g370
S'http://eco.onestreaming.com:8226'
p1147
sg4
V704
p1148
sg6
VTop Fm 96.9
p1149
ssS'705'
p1150
(dp1151
g4
V705
p1152
sg6
VStatus Radio 94.2
p1153
ssS'706'
p1154
(dp1155
g370
S'http://live.onestreaming.com/novamusic'
p1156
sg4
V706
p1157
sg6
VNova Radio 93.1
p1158
ssS'707'
p1159
(dp1160
g370
S'http://46.4.82.77:9998/'
p1161
sg4
V707
p1162
sg6
V\u03a7\u03c9\u03c1\u03af\u03c2 \u038c\u03c1\u03b9\u03b1
p1163
ssS'700'
p1164
(dp1165
g4
V700
p1166
sg6
VHello Radio
p1167
ssS'701'
p1168
(dp1169
g4
V701
p1170
sg6
VRadio Hxos Maik
p1171
ssS'702'
p1172
(dp1173
g370
S'http://relay4.mindradio.gr:80/live'
p1174
sg4
V702
p1175
sg6
VMind Radio
p1176
ssS'703'
p1177
(dp1178
g370
S'http://159.253.149.12:8094'
p1179
sg4
V703
p1180
sg6
VTropic Radio
p1181
ssS'393'
p1182
(dp1183
g370
S'http://s9.onweb.gr:8044/'
p1184
sg4
V393
p1185
sg6
VMad 95
p1186
ssS'392'
p1187
(dp1188
g370
S'http://s9.onweb.gr:8802'
p1189
sg4
V392
p1190
sg6
V\u03a1\u03ac\u03b4\u03b9\u03bf \u039b\u03b1\u03c3\u03ae\u03b8\u03b9 92.3
p1191
ssS'391'
p1192
(dp1193
g370
S'http://live.onestreaming.com/planetradio'
p1194
sg4
V391
p1195
sg6
VPlanet Radio 90.6
p1196
ssS'390'
p1197
(dp1198
g370
S'http://s4.onweb.gr:8466/'
p1199
sg4
V390
p1200
sg6
VRadio Melody 88
p1201
ssS'397'
p1202
(dp1203
g4
V397
p1204
sg6
V\u03a1\u03ac\u03b4\u03b9\u03bf \u039a\u03c1\u03ae\u03c4\u03b7 101.5
p1205
ssS'396'
p1206
(dp1207
g370
S'http://live.onestreaming.com/hxofm'
p1208
sg4
V396
p1209
sg6
V\u0397\u03c7\u03ce Fm 99.8
p1210
ssS'395'
p1211
(dp1212
g4
V395
p1213
sg6
V\u0394\u03af\u03b1\u03c5\u03bb\u03bf\u03c2 96.9
p1214
ssS'394'
p1215
(dp1216
g4
V394
p1217
sg6
VAtlantis Fm 105.2
p1218
ssS'82'
p1219
(dp1220
g370
S'http://imagine.1stepstream.com:8000/live'
p1221
sg4
V82
p1222
sg6
VImagine 89.7
p1223
ssS'83'
p1224
(dp1225
g4
V83
p1226
sg6
VVelvet 96.8
p1227
ssS'80'
p1228
(dp1229
g4
V80
p1230
sg6
VFm 100
p1231
ssS'398'
p1232
(dp1233
g4
V398
p1234
sg6
V\u039b\u03b1\u03c4\u03ce Fm 103.3
p1235
ssS'86'
p1236
(dp1237
g370
S'http://stream.greekradios.gr:4000'
p1238
sg4
V86
p1239
sg6
VRainbow 89
p1240
ssS'87'
p1241
(dp1242
g370
S'http://83.133.127.198:9096'
p1243
sg4
V87
p1244
sg6
VRock Radio 104.7
p1245
ssS'84'
p1246
(dp1247
g4
V84
p1248
sg6
V\u03a0\u03b1\u03bb\u03bc\u03cc\u03c2 96.5
p1249
ssS'85'
p1250
(dp1251
g4
V85
p1252
sg6
V\u038c\u03bb\u03b1 Fm 91.4
p1253
ssS'797'
p1254
(dp1255
g4
V797
p1256
sg6
VGiga Fm 105.4
p1257
ssS'794'
p1258
(dp1259
g4
V794
p1260
sg6
VRadio Mora
p1261
ssS'793'
p1262
(dp1263
g4
V793
p1264
sg6
V\u03a1\u03ac\u03b4\u03b9\u03bf \u0388\u03bd\u03c4\u03b5\u03c7\u03bd\u03bf\u03c2
p1265
ssS'791'
p1266
(dp1267
g370
S'http://shoutcast.24radio.gr:8056/'
p1268
sg4
V791
p1269
sg6
V\u03a1\u03ac\u03b4\u03b9\u03bf \u039c\u03ad\u03bb\u03b9 106
p1270
ssS'790'
p1271
(dp1272
g370
S'http://75.75.226.26:7099'
p1273
sg4
V790
p1274
sg6
VBlue Station
p1275
ssS'799'
p1276
(dp1277
g370
S'http://s8.onweb.gr:8706'
p1278
sg4
V799
p1279
sg6
VFresh 92.9
p1280
ssS'798'
p1281
(dp1282
g4
V798
p1283
sg6
VSchool Radio Ekali
p1284
ssS'170'
p1285
(dp1286
g4
V170
p1287
sg6
VDance Radio Deep House
p1288
ssS'586'
p1289
(dp1290
g370
S'http://ams02.egihosting.com/6020'
p1291
sg4
V586
p1292
sg6
VMelody 96.8
p1293
ssS'587'
p1294
(dp1295
g370
S'http://s6.onweb.gr:8046'
p1296
sg4
V587
p1297
sg6
VRadio Cafe 96.7
p1298
ssS'584'
p1299
(dp1300
g370
S'http://85.25.171.129:6000'
p1301
sg4
V584
p1302
sg6
V\u03a1\u03ac\u03b4\u03b9\u03bf \u0391\u03af\u03b3\u03b9\u03bf 99.2
p1303
ssS'585'
p1304
(dp1305
g4
V585
p1306
sg6
V\u03a1\u03ac\u03b4\u03b9\u03bf \u0395\u03bd\u03b7\u03bc\u03ad\u03c1\u03c9\u03c3\u03b7 92.2
p1307
ssS'582'
p1308
(dp1309
g370
S'http://78.46.46.214:7048'
p1310
sg4
V582
p1311
sg6
VMusic Art Club
p1312
ssS'583'
p1313
(dp1314
g4
V583
p1315
sg6
VAir 104.4
p1316
ssS'580'
p1317
(dp1318
g370
S'http://live.onestreaming.com/mixgrevena'
p1319
sg4
V580
p1320
sg6
VMix Fm 102.2
p1321
ssS'581'
p1322
(dp1323
g4
V581
p1324
sg6
VAntenna Star 105.9
p1325
ssS'588'
p1326
(dp1327
g370
S'http://s4.onweb.gr:8414'
p1328
sg4
V588
p1329
sg6
VMedia 92
p1330
ssS'589'
p1331
(dp1332
g370
S'http://s1.onweb.gr:8410/'
p1333
sg4
V589
p1334
sg6
VVenus Radio 99.3
p1335
ssS'245'
p1336
(dp1337
g4
V245
p1338
sg6
V\u039e\u03ac\u03bd\u03b8\u03b7 Dee Jay 90.6
p1339
ssS'244'
p1340
(dp1341
g370
S'http://s3.onweb.gr:8520'
p1342
sg4
V244
p1343
sg6
V\u03a1/\u03a3 \u0391\u03b3\u03b9\u03ac\u03c2 94.2
p1344
ssS'247'
p1345
(dp1346
g370
S'http://62.212.82.142:8033'
p1347
sg4
V247
p1348
sg6
VLive Fm 89.6
p1349
ssS'246'
p1350
(dp1351
g4
V246
p1352
sg6
V\u03a3\u03bf\u03ba Fm 104.8
p1353
ssS'241'
p1354
(dp1355
g4
V241
p1356
sg6
V\u0391\u03c1\u03b9\u03c3\u03c4\u03b5\u03c1\u03ac \u03a3\u03c4\u03b1 Fm 90.1
p1357
ssS'148'
p1358
(dp1359
g4
V148
p1360
sg6
V\u03a1\u03ac\u03b4\u03b9\u03bf \u03a0\u03ac\u03c6\u03bf\u03c2 93.7
p1361
ssS'243'
p1362
(dp1363
g370
S'http://eco.onestreaming.com:8103'
p1364
sg4
V243
p1365
sg6
V\u03a1/\u03a3 \u039a\u03b9\u03c3\u03c3\u03ac\u03b2\u03bf\u03c5 97.8
p1366
ssS'242'
p1367
(dp1368
g370
S'http://m1.onweb.gr/palace'
p1369
sg4
V242
p1370
sg6
VPalace 91.4
p1371
ssS'615'
p1372
(dp1373
g4
V615
p1374
sg6
VUp Fm 92.5
p1375
ssS'249'
p1376
(dp1377
g370
S'http://hotsoft.ws:8086/magicfm'
p1378
sg4
V249
p1379
sg6
VMagic Fm 98.2
p1380
ssS'248'
p1381
(dp1382
g4
V248
p1383
sg6
VKosmos Fm 100
p1384
ssS'519'
p1385
(dp1386
g370
S'http://188.40.131.14:8068/'
p1387
sg4
V519
p1388
sg6
VRadio Lepanto 101.4
p1389
ssS'518'
p1390
(dp1391
g4
V518
p1392
sg6
VStar Fm 90.9
p1393
ssS'511'
p1394
(dp1395
g4
V511
p1396
sg6
V\u03a7\u03af\u03bf\u03c2 Fm 97.8
p1397
ssS'1006'
p1398
(dp1399
g4
V1006
p1400
sg6
VMidnight Radio
p1401
ssS'1005'
p1402
(dp1403
g370
S'http://s2.onweb.gr:8654/'
p1404
sg4
V1005
p1405
sg6
VRadio1 Dance
p1406
ssS'512'
p1407
(dp1408
g4
V512
p1409
sg6
VDream On
p1410
ssS'1003'
p1411
(dp1412
g370
S'http://208.43.115.44:8138/'
p1413
sg4
V1003
p1414
sg6
VCannibal Radio
p1415
ssS'514'
p1416
(dp1417
g370
S'http://live.onestreaming.com/avanti'
p1418
sg4
V514
p1419
sg6
VAvanti Fm 98.3
p1420
ssS'517'
p1421
(dp1422
g4
V517
p1423
sg6
VRock Way
p1424
ssS'1000'
p1425
(dp1426
g370
S'http://shout.streamwithq.gr:4066/'
p1427
sg4
V1000
p1428
sg6
V\u0391\u03ba\u03c4\u03af\u03bd\u03b1 Radio 104.7
p1429
ssS'623'
p1430
(dp1431
g4
V623
p1432
sg6
VVeto Fm 91
p1433
ssS'622'
p1434
(dp1435
g370
S'http://radionostalgiagr.dyndns.org:2314/'
p1436
sg4
V622
p1437
sg6
V\u03a1\u03ac\u03b4\u03b9\u03bf \u039d\u03bf\u03c3\u03c4\u03b1\u03bb\u03b3\u03af\u03b1
p1438
ssS'621'
p1439
(dp1440
g370
S'mms://captainjack.live24.gr/captainjack9660'
p1441
sg4
V621
p1442
sg6
V\u0394\u03af\u03c6\u03c9\u03bd\u03bf 96.6
p1443
ssS'620'
p1444
(dp1445
g4
V620
p1446
sg6
V\u03a1/\u03a3 \u039c\u03b5\u03c3\u03bf\u03bb\u03bf\u03b3\u03b3\u03af\u03bf\u03c5 92
p1447
ssS'627'
p1448
(dp1449
g4
V627
p1450
sg6
VArtemis Fm 94.4
p1451
ssS'626'
p1452
(dp1453
g370
S'http://golive.onestreaming.com/musices'
p1454
sg4
V626
p1455
sg6
VMusicES Radio
p1456
ssS'624'
p1457
(dp1458
g4
V624
p1459
sg6
V\u039a\u03b1\u03bd\u03ac\u03bb\u03b9 1 90.4
p1460
ssS'593'
p1461
(dp1462
g218
S'http://78.46.46.214:7054'
p1463
sg4
V593
p1464
sg6
V\u03a1\u03ac\u03b4\u03b9\u03bf \u03a4\u03c1\u03b9\u03c6\u03c5\u03bb\u03af\u03b1\u03c2 101.3
p1465
ssS'179'
p1466
(dp1467
g370
S'http://s5.onweb.gr:8506/'
p1468
sg4
V179
p1469
sg6
VTraffic Fm 91.8
p1470
ssS'178'
p1471
(dp1472
g4
V178
p1473
sg6
VJust Radio 93
p1474
ssS'177'
p1475
(dp1476
g370
S'mms://kiss-fm-kard.live24.gr/kiss-fm-kard'
p1477
sg4
V177
p1478
sg6
VKiss 100.4
p1479
ssS'176'
p1480
(dp1481
g4
V176
p1482
sg6
VDiscomania
p1483
ssS'175'
p1484
(dp1485
g370
S'http://live.onestreaming.com/paradiseradio'
p1486
sg4
V175
p1487
sg6
VParadise 90.3
p1488
ssS'174'
p1489
(dp1490
g4
V174
p1491
sg6
VNoize Radio 93.5
p1492
ssS'173'
p1493
(dp1494
g370
S'http://s6.onweb.gr:8032'
p1495
sg4
V173
p1496
sg6
VKiss 96.1
p1497
ssS'172'
p1498
(dp1499
g370
S'http://eco.onestreaming.com:8068'
p1500
sg4
V172
p1501
sg6
VTop Fm
p1502
ssS'171'
p1503
(dp1504
g370
S'mms://live.onestreaming.com/radio996/'
p1505
sg4
V171
p1506
sg6
VRadio 99.6
p1507
ssS'198'
p1508
(dp1509
g4
V198
p1510
sg6
VHot Mix Fm 88
p1511
ssS'977'
p1512
(dp1513
g370
S'http://50.7.243.50:8062/'
p1514
sg4
V977
p1515
sg6
VLight Radio
p1516
ssS'183'
p1517
(dp1518
g4
V183
p1519
sg6
VNRG 89.5
p1520
ssS'654'
p1521
(dp1522
g4
V654
p1523
sg6
V\u0394\u03af\u03b1\u03c5\u03bb\u03bf\u03c2 91.1
p1524
ssS'182'
p1525
(dp1526
g4
V182
p1527
sg6
V\u03a1\u03ac\u03b4\u03b9\u03bf \u0388\u03bd\u03c4\u03b1\u03c3\u03b7 93.5
p1528
ssS'599'
p1529
(dp1530
g18
S'http://sportfmpatras.live24.gr/sportfmpatras'
p1531
sg4
V599
p1532
sg6
VSport Fm \u03a0\u03ac\u03c4\u03c1\u03b1\u03c2 96.3 
p1533
ssS'180'
p1534
(dp1535
g4
V180
p1536
sg6
VNRG 95
p1537
ssS'181'
p1538
(dp1539
g4
V181
p1540
sg6
VCapital 90.7
p1541
ssS'186'
p1542
(dp1543
g370
S'http://live.onestreaming.com/elladaradio'
p1544
sg4
V186
p1545
sg6
V\u0395\u03bb\u03bb\u03ac\u03b4\u03b1 Fm 96.7
p1546
ssS'653'
p1547
(dp1548
g4
V653
p1549
sg6
VBest Radio 101.1
p1550
ssS'184'
p1551
(dp1552
g4
V184
p1553
sg6
VMax 100.2
p1554
ssS'185'
p1555
(dp1556
g370
S'http://avantifm.live24.gr/avantifm'
p1557
sg4
V185
p1558
sg6
VAvanti 107.6
p1559
ssS'652'
p1560
(dp1561
g4
V652
p1562
sg6
V\u03a7\u03b1\u03bd\u03b9\u03ac Fm 33
p1563
ssS'188'
p1564
(dp1565
g4
V188
p1566
sg6
V\u03a1\u03ac\u03b4\u03b9\u03bf \u039c\u03b5\u03b8\u03cc\u03c1\u03b9\u03bf\u03c2 96
p1567
ssS'189'
p1568
(dp1569
g370
S'http://eco.onestreaming.com:8107/'
p1570
sg4
V189
p1571
sg6
V\u039a\u03b1\u03c3\u03c4\u03bf\u03c1\u03b9\u03ac Fm 91.5
p1572
ssS'658'
p1573
(dp1574
g370
S'http://radio.metalzone.gr/listen.php?type=asx'
p1575
sg4
V658
p1576
sg6
VMetal Zone
p1577
ssS'187'
p1578
(dp1579
g4
V187
p1580
sg6
V\u0395\u03bb\u03bb\u03ac\u03b4\u03b1 Fm 98.7
p1581
ssS'650'
p1582
(dp1583
g370
S'http://shoutcast.24radio.gr:8068'
p1584
sg4
V650
p1585
sg6
V\u0388\u03bd\u03c4\u03b5\u03c7\u03bd\u03bf\u03c2 Fm
p1586
ssS'651'
p1587
(dp1588
g4
V651
p1589
sg6
V\u03a1\u03ac\u03b4\u03b9\u03bf \u0395\u03c0\u03b9\u03bb\u03bf\u03b3\u03ad\u03c2 102.8
p1590
ssS'17'
p1591
(dp1592
g370
S'http://shoutcast.24radio.gr:8000'
p1593
sg4
V17
p1594
sg6
VHybrid Radio 94.9
p1595
ssS'19'
p1596
(dp1597
g370
S'mms://nordr.live24.gr/rythmos949ath'
p1598
sg4
V19
p1599
sg6
V\u03a1\u03c5\u03b8\u03bc\u03cc\u03c2 94.9
p1600
ssS'18'
p1601
(dp1602
g370
S'http://shoutcast.24radio.gr:8002'
p1603
sg4
V18
p1604
sg6
VRockStar
p1605
ssS'947'
p1606
(dp1607
g4
V947
p1608
sg6
VWild Radio
p1609
ssS'659'
p1610
(dp1611
g4
V659
p1612
sg6
V\u03a1\u03ac\u03b4\u03b9\u03bf \u03a7\u03b1\u03bb\u03ba\u03af\u03b4\u03b1 99.6
p1613
ssS'568'
p1614
(dp1615
g4
V568
p1616
sg6
V\u0391\u03b8\u03bb\u03b7\u03c4\u03b9\u03ba\u03ac \u039d\u03ad\u03b1 98.7
p1617
ssS'657'
p1618
(dp1619
g4
V657
p1620
sg6
VCity 93
p1621
ssS'809'
p1622
(dp1623
g370
S'http://66.90.104.41:8090'
p1624
sg4
V809
p1625
sg6
VAsteras Radio
p1626
ssS'322'
p1627
(dp1628
g370
S'http://shout.streamwithq.gr:4110/'
p1629
sg4
V322
p1630
sg6
VRadio Retro 105.4
p1631
ssS'323'
p1632
(dp1633
g370
S'http://live.onestreaming.com/radionetlamia'
p1634
sg4
V323
p1635
sg6
VRadio Net 101.9
p1636
ssS'320'
p1637
(dp1638
g370
S'http://hotsoft.ws:8086/mk?.wma'
p1639
sg4
V320
p1640
sg6
V\u039c\u03bf\u03c5\u03c3\u03b9\u03ba\u03cc \u039a\u03b1\u03bd\u03ac\u03bb\u03b9 101.3
p1641
ssS'808'
p1642
(dp1643
g370
S'mms://live.onestreaming.com/starfmdm'
p1644
sg4
V808
p1645
sg6
VStar Fm 93.3
p1646
ssS'326'
p1647
(dp1648
g4
V326
p1649
sg6
VSports \u0395\u03c0\u03b9\u03bb\u03bf\u03b3\u03ad\u03c2 105.5
p1650
ssS'324'
p1651
(dp1652
g370
S'mms://live.istoikona.com/topfm'
p1653
sg4
V324
p1654
sg6
VTop Fm 102.4
p1655
ssS'325'
p1656
(dp1657
g4
V325
p1658
sg6
VSport Fm \u039e\u03ac\u03bd\u03b8\u03b7 98.4
p1659
ssS'328'
p1660
(dp1661
g4
V328
p1662
sg6
VRadio 24
p1663
ssS'329'
p1664
(dp1665
g370
S'http://www.streamyourdream.org:8000/acroama'
p1666
sg4
V329
p1667
sg6
V\u0391\u03ba\u03c1\u03cc\u03b1\u03bc\u03b1 99.8
p1668
ssS'688'
p1669
(dp1670
g370
S'http://78.46.46.215:7056'
p1671
sg4
V688
p1672
sg6
VBaby Radio
p1673
ssS'775'
p1674
(dp1675
g370
S'http://streaming.hotmix-radio.net/hotmixradio-80-128.mp3'
p1676
sg4
V775
p1677
sg6
VYeah! Radio
p1678
ssS'774'
p1679
(dp1680
g4
V774
p1681
sg6
VMusicmania
p1682
ssS'203'
p1683
(dp1684
g370
S'http://stream.greekradios.gr:8050'
p1685
sg4
V203
p1686
sg6
V\u03a0\u03b1\u03bb\u03bc\u03cc\u03c2 99.5
p1687
ssS'202'
p1688
(dp1689
g370
S'http://s1.onweb.gr:8076/'
p1690
sg4
V202
p1691
sg6
VRadio1 88
p1692
ssS'771'
p1693
(dp1694
g370
S'http://streams.gr:8060/gafm'
p1695
sg4
V771
p1696
sg6
V\u0393\u03b1\u03bb\u03b1\u03be\u03af\u03b1\u03c2 Fm 92.1
p1697
ssS'204'
p1698
(dp1699
g4
V204
p1700
sg6
VHot Radio 99
p1701
ssS'773'
p1702
(dp1703
g4
V773
p1704
sg6
VAlpha 94.7
p1705
ssS'206'
p1706
(dp1707
g4
V206
p1708
sg6
VRodos Fm 90.7
p1709
ssS'209'
p1710
(dp1711
g4
V209
p1712
sg6
V\u03a1\u03ac\u03b4\u03b9\u03bf \u039b\u03b5\u03c5\u03ba\u03af\u03bc\u03bc\u03b7 105.5
p1713
ssS'208'
p1714
(dp1715
g4
V208
p1716
sg6
VPrisma Fm 91.8
p1717
ssS'779'
p1718
(dp1719
g4
V779
p1720
sg6
V\u03a1\u03c5\u03b8\u03bc\u03cc\u03c2 Fm 106
p1721
ssS'778'
p1722
(dp1723
g370
S'http://live.camstreams.com/misconfig.wmv'
p1724
sg4
V778
p1725
sg6
V\u03a3\u03c6\u03b7\u03bd\u03ac\u03ba\u03b9\u03b1 Fm 97.3
p1726
ssS'77'
p1727
(dp1728
g370
S'http://78.129.143.157:8000/heartfm'
p1729
sg4
V77
p1730
sg6
VHeart 93.1
p1731
ssS'76'
p1732
(dp1733
g4
V76
p1734
sg6
V\u039b\u03b1\u03ca\u03ba\u03cc\u03c2 87.6
p1735
ssS'75'
p1736
(dp1737
g4
V75
p1738
sg6
VRSO 91.7
p1739
ssS'74'
p1740
(dp1741
g4
V74
p1742
sg6
VMetropolis 95.5
p1743
ssS'73'
p1744
(dp1745
g370
S'http://178.32.72.194:8050/eroticos'
p1746
sg4
V73
p1747
sg6
V\u0395\u03c1\u03c9\u03c4\u03b9\u03ba\u03cc\u03c2 94.8
p1748
ssS'72'
p1749
(dp1750
g370
S'http://178.32.72.194:8060/rthes'
p1751
sg4
V72
p1752
sg6
V\u03a1\u03ac\u03b4\u03b9\u03bf \u0398\u03b5\u03c3\u03c3\u03b1\u03bb\u03bf\u03bd\u03af\u03ba\u03b7 94.5
p1753
ssS'71'
p1754
(dp1755
g370
S'http://eco.onestreaming.com:8083'
p1756
sg4
V71
p1757
sg6
VSunshine 107.7
p1758
ssS'70'
p1759
(dp1760
g370
S'http://eco.onestreaming.com:8081'
p1761
sg4
V70
p1762
sg6
VLibero 107.4
p1763
ssS'655'
p1764
(dp1765
g4
V655
p1766
sg6
VPowerMix Fm
p1767
ssS'79'
p1768
(dp1769
g370
S'http://golive.onestreaming.com/sport103'
p1770
sg4
V79
p1771
sg6
VSport 103 Fm
p1772
ssS'78'
p1773
(dp1774
g370
S'http://sc2.greekstream.net:4012'
p1775
sg4
V78
p1776
sg6
V\u0388\u03ba\u03c6\u03c1\u03b1\u03c3\u03b7 92.4
p1777
ssS'1040'
p1778
(dp1779
g370
S'http://s2.onweb.gr:8604/'
p1780
sg4
V1040
p1781
sg6
V\u03a7\u03b1\u03bd\u03b9\u03ac Fm 98.9
p1782
ssS'1048'
p1783
(dp1784
g370
S'http://85.17.177.77:8010'
p1785
sg4
V1048
p1786
sg6
VGo Radio
p1787
ssS'358'
p1788
(dp1789
g4
V358
p1790
sg6
V\u0394\u03c5\u03c4\u03b9\u03ba\u03cc\u03c2 103.7
p1791
ssS'669'
p1792
(dp1793
g4
V669
p1794
sg6
V\u039b\u03ac\u03bc\u03c8\u03b7 106.3
p1795
ssS'668'
p1796
(dp1797
g370
S'http://s6.onweb.gr:8018/'
p1798
sg4
V668
p1799
sg6
V\u03a1\u03ac\u03b4\u03b9\u03bf \u03a0\u03b9\u03b5\u03c1\u03af\u03b1 104.2
p1800
ssS'667'
p1801
(dp1802
g4
V667
p1803
sg6
VSafari 106.7
p1804
ssS'666'
p1805
(dp1806
g4
V666
p1807
sg6
VHit Fm 103.5
p1808
ssS'664'
p1809
(dp1810
g370
S'http://s5.onweb.gr:8488'
p1811
sg4
V664
p1812
sg6
VCavo Paradiso Radio
p1813
ssS'663'
p1814
(dp1815
g370
S'http://s2.onweb.gr:8648/'
p1816
sg4
V663
p1817
sg6
V\u03a1\u03ac\u03b4\u03b9\u03bf \u0391\u03c0\u03cc\u03bb\u03bb\u03c9\u03bd
p1818
ssS'662'
p1819
(dp1820
g4
V662
p1821
sg6
VElectrocaine Radio
p1822
ssS'661'
p1823
(dp1824
g370
S'http://s3.onweb.gr:8514'
p1825
sg4
V661
p1826
sg6
VMelody Fm 88.8
p1827
ssS'660'
p1828
(dp1829
g4
V660
p1830
sg6
VVenus 91.1
p1831
ssS'215'
p1832
(dp1833
g4
V215
p1834
sg6
V\u03a3\u03c4\u03af\u03b3\u03bc\u03b1 Radio 97.6
p1835
ssS'692'
p1836
(dp1837
g4
V692
p1838
sg6
VAlina Radio
p1839
ssS'693'
p1840
(dp1841
g4
V693
p1842
sg6
V\u039b\u03ac\u03bc\u03c8\u03b7 88.6
p1843
ssS'690'
p1844
(dp1845
g4
V690
p1846
sg6
VGap Radio
p1847
ssS'691'
p1848
(dp1849
g370
S'http://minorefm.live24.gr/minorefm'
p1850
sg4
V691
p1851
sg6
V\u039c\u03b9\u03bd\u03cc\u03c1\u03b5 Fm
p1852
ssS'696'
p1853
(dp1854
g370
S'http://108.60.201.114:8150'
p1855
sg4
V696
p1856
sg6
V\u0395\u03bb\u03bb\u03b7\u03bd\u03b9\u03ba\u03cc\u03c2 Fm
p1857
ssS'697'
p1858
(dp1859
g4
V697
p1860
sg6
VRadio Romeos Fm 94
p1861
ssS'694'
p1862
(dp1863
g4
V694
p1864
sg6
VDance Radio Progressive
p1865
ssS'695'
p1866
(dp1867
g370
S'http://s1.onweb.gr:8034/'
p1868
sg4
V695
p1869
sg6
V\u039c\u03bf\u03c5\u03c3\u03b9\u03ba\u03cc\u03c2 \u0393\u03b1\u03bb\u03b1\u03be\u03af\u03b1\u03c2 105.8
p1870
ssS'699'
p1871
(dp1872
g4
V699
p1873
sg6
VPlace Fm
p1874
ssS'543'
p1875
(dp1876
g4
V543
p1877
sg6
V\u03a1\u03ac\u03b4\u03b9\u03bf \u0391\u03ba\u03b1\u03c1\u03bd\u03b1\u03bd\u03af\u03b1 97.1
p1878
ssS'540'
p1879
(dp1880
g4
V540
p1881
sg6
VGalaxy Fm 106.1
p1882
ssS'541'
p1883
(dp1884
g370
S'http://shoutcast.24radio.gr:8014'
p1885
sg4
V541
p1886
sg6
VMaster Fm 90.2
p1887
ssS'546'
p1888
(dp1889
g4
V546
p1890
sg6
VSiesta Radio
p1891
ssS'547'
p1892
(dp1893
g370
S'http://shout.streamwithq.gr:4100/'
p1894
sg4
V547
p1895
sg6
V\u039a\u03c1\u03b7\u03c4\u03b9\u03ba\u03ae \u03a1\u03b1\u03b4\u03b9\u03bf\u03c6\u03c9\u03bd\u03af\u03b1 \u0391\u03c4\u03c4\u03b9\u03ba\u03ae\u03c2 91.4
p1896
ssS'544'
p1897
(dp1898
g370
S'http://78.46.46.215:7040/'
p1899
sg4
V544
p1900
sg6
V\u0395\u03c1\u03c9\u03b4\u03b9\u03cc\u03c2 \u039b\u03b1\u03b9\u03ba\u03cc\u03c2
p1901
ssS'545'
p1902
(dp1903
g370
S'http://147.102.85.34:8000'
p1904
sg4
V545
p1905
sg6
V98 Fm
p1906
ssS'548'
p1907
(dp1908
g4
V548
p1909
sg6
V\u03a1\u03ac\u03b4\u03b9\u03bf \u039a\u03c1\u03ae\u03c4\u03b5\u03c2
p1910
ssS'549'
p1911
(dp1912
g370
S'mms://live.istoikona.com/lgr'
p1913
sg4
V549
p1914
sg6
VLGR 103.3
p1915
ssS'994'
p1916
(dp1917
g370
S'http://109.169.26.190:8018'
p1918
sg4
V994
p1919
sg6
VGr8 Radio
p1920
ssS'990'
p1921
(dp1922
g4
V990
p1923
sg6
VPs Radio
p1924
ssS'993'
p1925
(dp1926
g370
S'http://shout.streamwithq.gr:4138/'
p1927
sg4
V993
p1928
sg6
V\u0391\u03bb\u03ae\u03b8\u03b5\u03b9\u03b1 Fm 96.3 
p1929
ssS'992'
p1930
(dp1931
g370
S'http://p8060.thewood.gr:9596/'
p1932
sg4
V992
p1933
sg6
VAthens One Fm
p1934
ssS'999'
p1935
(dp1936
g370
S'http://178.32.57.58:8557/'
p1937
sg4
V999
p1938
sg6
VDisco 80\u005c's Radio
p1939
ssS'998'
p1940
(dp1941
g370
S'http://shoutcast.24radio.gr:8022/'
p1942
sg4
V998
p1943
sg6
VDance Radio Cyprus
p1944
ssS'120'
p1945
(dp1946
g4
V120
p1947
sg6
V\u03a1\u03ac\u03b4\u03b9\u03bf \u0391\u03ba\u03c1\u03af\u03c4\u03b5\u03c2 102.3
p1948
ssS'121'
p1949
(dp1950
g370
S'http://eco.onestreaming.com:8150'
p1951
sg4
V121
p1952
sg6
VYou Fm 100.1
p1953
ssS'123'
p1954
(dp1955
g370
S'http://stream.kiss922.gr:59922/'
p1956
sg4
V123
p1957
sg6
VKiss 92.2
p1958
ssS'124'
p1959
(dp1960
g370
S'http://golive.onestreaming.com/thepopfm'
p1961
sg4
V124
p1962
sg6
VThe Pop Fm 98.6
p1963
ssS'125'
p1964
(dp1965
g370
S'http://live.onestreaming.com/radioactive'
p1966
sg4
V125
p1967
sg6
VRadio Active 91.3
p1968
ssS'126'
p1969
(dp1970
g370
S'http://live.onestreaming.com/anemosfm'
p1971
sg4
V126
p1972
sg6
V\u0386\u03bd\u03b5\u03bc\u03bf\u03c2 95.6
p1973
ssS'127'
p1974
(dp1975
g370
S'http://s4.onweb.gr:8428'
p1976
sg4
V127
p1977
sg6
V\u0391\u03c1\u03c7\u03b9\u03c0\u03ad\u03bb\u03b1\u03b3\u03bf\u03c2 87.6
p1978
ssS'128'
p1979
(dp1980
g4
V128
p1981
sg6
VLove Radio 88.2
p1982
ssS'129'
p1983
(dp1984
g370
S'mms://live.istoikona.com/super'
p1985
sg4
V129
p1986
sg6
VSuper Radio 104.7
p1987
ssS'214'
p1988
(dp1989
g4
V214
p1990
sg6
V\u03a1\u03ac\u03b4\u03b9\u03bf \u0395\u03c0\u03c4\u03ac\u03bd\u03b7\u03c3\u03b1 98.8
p1991
ssS'414'
p1992
(dp1993
g370
S'mms://194.219.230.1:3690'
p1994
sg4
V414
p1995
sg6
VMega Creta 103.1
p1996
ssS'415'
p1997
(dp1998
g4
V415
p1999
sg6
V\u0394\u03af\u03ba\u03c4\u03c5\u03bf 102.4
p2000
ssS'416'
p2001
(dp2002
g4
V416
p2003
sg6
VAqualand Radio 94.8
p2004
ssS'410'
p2005
(dp2006
g4
V410
p2007
sg6
V\u039a\u03bd\u03c9\u03c3\u03cc\u03c2 Fm 100.6
p2008
ssS'411'
p2009
(dp2010
g370
S'http://eco.onestreaming.com:8209'
p2011
sg4
V411
p2012
sg6
VCool Fm 106.8
p2013
ssS'412'
p2014
(dp2015
g370
S'http://live.onestreaming.com/lampsifmcrete'
p2016
sg4
V412
p2017
sg6
V\u039b\u03ac\u03bc\u03c8\u03b7 92.9
p2018
ssS'413'
p2019
(dp2020
g4
V413
p2021
sg6
VAlpha Radio 106.2
p2022
ssS'137'
p2023
(dp2024
g4
V137
p2025
sg6
V\u039a\u03bb\u03af\u03ba Fm 105.6
p2026
ssS'922'
p2027
(dp2028
g370
S'http://67.212.189.122:8151'
p2029
sg4
V922
p2030
sg6
V\u039c\u03ac\u03bd\u03b4\u03c1\u03b1 \u03a1\u03ac\u03b4\u03b9\u03bf
p2031
ssS'776'
p2032
(dp2033
g370
S'mms://a323.l6160932322.c61609.e.lm.akamaistream.net/D/323/61609/v0001/reflector:32322'
p2034
sg4
V776
p2035
sg6
V\u0396\u03bf\u03cd\u03b3\u03ba\u03bb\u03b1 Radio
p2036
ssS'319'
p2037
(dp2038
g4
V319
p2039
sg6
VStudio A 102.7
p2040
ssS'318'
p2041
(dp2042
g370
S'http://live.onestreaming.com/radioelassona'
p2043
sg4
V318
p2044
sg6
V\u03a1\u03ac\u03b4\u03b9\u03bf \u0395\u03bb\u03b1\u03c3\u03c3\u03cc\u03bd\u03b1 88.4
p2045
ssS'313'
p2046
(dp2047
g4
V313
p2048
sg6
V\u038c\u03bc\u03bf\u03c1\u03c6\u03b7 \u03a0\u03cc\u03bb\u03b7 89.9
p2049
ssS'312'
p2050
(dp2051
g370
S'http://s1.onweb.gr:8028/'
p2052
sg4
V312
p2053
sg6
V\u039a\u03cd\u03bc\u03b1 Fm 90.3
p2054
ssS'311'
p2055
(dp2056
g370
S'http://live.onestreaming.com/style100'
p2057
sg4
V311
p2058
sg6
VStyle 100
p2059
ssS'310'
p2060
(dp2061
g4
V310
p2062
sg6
V\u039b\u03cc\u03b3\u03bf\u03c2 Radio 101.1
p2063
ssS'317'
p2064
(dp2065
g4
V317
p2066
sg6
V\u03a1\u03ac\u03b4\u03b9\u03bf \u0389\u03c0\u03b5\u03b9\u03c1\u03bf\u03c2 94.5
p2067
ssS'316'
p2068
(dp2069
g4
V316
p2070
sg6
VCreta Planet 
p2071
ssS'315'
p2072
(dp2073
g370
S'http://live.onestreaming.com/elpar'
p2074
sg4
V315
p2075
sg6
V\u0395\u03bb\u03bb\u03b7\u03bd\u03b9\u03ba\u03cc \u03a0\u03b1\u03c1\u03b1\u03b4\u03bf\u03c3\u03b9\u03b1\u03ba\u03cc
p2076
ssS'314'
p2077
(dp2078
g4
V314
p2079
sg6
V\u0396\u03b9\u03b6\u03ac\u03bd\u03b9\u03bf 89.2
p2080
ssS'496'
p2081
(dp2082
g4
V496
p2083
sg6
V\u0395\u03bb\u03bb\u03b7\u03bd\u03bf\u03a1\u03ac\u03b4\u03b9\u03bf
p2084
ssS'138'
p2085
(dp2086
g370
S'mms://radio.istoikona.com/zenith'
p2087
sg4
V138
p2088
sg6
VZenith Radio 96.4
p2089
ssS'1030'
p2090
(dp2091
g370
S'mms://a1235.l4434955234.c44349.g.lm.akamaistream.net/D/1235/44349/v0001/reflector:55234'
p2092
sg4
V1030
p2093
sg6
VPlay 88.9
p2094
ssS'368'
p2095
(dp2096
g370
S'mms://broadcast.hol.gr/IonionFMU'
p2097
sg4
V368
p2098
sg6
V\u0399\u03cc\u03bd\u03b9\u03bf\u03bd Fm \u0397\u03bb\u03b5\u03af\u03b1\u03c2 95.5
p2099
ssS'369'
p2100
(dp2101
g370
S'http://shoutcast.24radio.gr:8044/'
p2102
sg4
V369
p2103
sg6
VRSA 91.1
p2104
ssS'366'
p2105
(dp2106
g370
S'http://46.4.65.194:8021'
p2107
sg4
V366
p2108
sg6
VVox 103.3
p2109
ssS'367'
p2110
(dp2111
g4
V367
p2112
sg6
VOrt Fm 92.3
p2113
ssS'364'
p2114
(dp2115
g370
S'http://s6.onweb.gr:8034'
p2116
sg4
V364
p2117
sg6
V\u03a1\u03ac\u03b4\u03b9\u03bf \u039c\u03bf\u03af\u03c1\u03b5\u03c2 97.1
p2118
ssS'365'
p2119
(dp2120
g370
S'http://s5.onweb.gr:8418'
p2121
sg4
V365
p2122
sg6
V\u03a3\u03bf\u03c7\u03cc\u03c2 Fm 88.7
p2123
ssS'362'
p2124
(dp2125
g370
S'http://s3.onweb.gr:8500'
p2126
sg4
V362
p2127
sg6
V\u0391\u03c1\u03bc\u03bf\u03bd\u03af\u03b1 Fm 103.2
p2128
ssS'363'
p2129
(dp2130
g370
S'http://s3.onweb.gr:8438'
p2131
sg4
V363
p2132
sg6
V\u039b\u03ad\u03c3\u03c7\u03b7 97.6
p2133
ssS'360'
p2134
(dp2135
g370
S'http://s1.onweb.gr:8098/'
p2136
sg4
V360
p2137
sg6
V\u03a0\u03ac\u03c1\u03bf\u03c2 Fm 98.5
p2138
ssS'361'
p2139
(dp2140
g370
S'http://s1.onweb.gr:8066'
p2141
sg4
V361
p2142
sg6
V\u0391\u03ba\u03c1\u03cc\u03b1\u03bc\u03b1 94.6
p2143
ssS'952'
p2144
(dp2145
g4
V952
p2146
sg6
VSunshine Radio
p2147
ssS'380'
p2148
(dp2149
g4
V380
p2150
sg6
V\u0397\u03c7\u03ce Fm 102.1
p2151
ssS'381'
p2152
(dp2153
g4
V381
p2154
sg6
VRadio Point
p2155
ssS'382'
p2156
(dp2157
g4
V382
p2158
sg6
VBassline Chill Out
p2159
ssS'383'
p2160
(dp2161
g4
V383
p2162
sg6
VBassline Progressive Trance
p2163
ssS'384'
p2164
(dp2165
g4
V384
p2166
sg6
VUnderground Radio 100.3
p2167
ssS'385'
p2168
(dp2169
g4
V385
p2170
sg6
VDream Fm 103.5
p2171
ssS'386'
p2172
(dp2173
g4
V386
p2174
sg6
VParadise Radio 104.6
p2175
ssS'387'
p2176
(dp2177
g4
V387
p2178
sg6
VLips Radio
p2179
ssS'388'
p2180
(dp2181
g370
S'http://s6.onweb.gr:8036/'
p2182
sg4
V388
p2183
sg6
V\u039a\u03ad\u03bd\u03c4\u03c1\u03bf \u039a\u03b1\u03c1\u03b4\u03b9\u03ac\u03c2 95
p2184
ssS'389'
p2185
(dp2186
g4
V389
p2187
sg6
VClub Fm 93.7
p2188
ssS'784'
p2189
(dp2190
g370
S'http://shout.streamwithq.gr:4064/'
p2191
sg4
V784
p2192
sg6
V\u0393\u03ac\u03c5\u03b4\u03bf\u03c2 Fm 88.8
p2193
ssS'785'
p2194
(dp2195
g4
V785
p2196
sg6
VEnjoy Radio 105.7
p2197
ssS'786'
p2198
(dp2199
g4
V786
p2200
sg6
VAthens Fm
p2201
ssS'780'
p2202
(dp2203
g370
S'http://s6.onweb.gr:8002/'
p2204
sg4
V780
p2205
sg6
VLegend Fm 101.6
p2206
ssS'781'
p2207
(dp2208
g4
V781
p2209
sg6
VKing Fm 107.8
p2210
ssS'782'
p2211
(dp2212
g4
V782
p2213
sg6
VRockha Radio
p2214
ssS'788'
p2215
(dp2216
g370
S'http://83.170.89.19:9868'
p2217
sg4
V788
p2218
sg6
VGod Radio
p2219
ssS'789'
p2220
(dp2221
g4
V789
p2222
sg6
VMagic Fm 100
p2223
ssS'579'
p2224
(dp2225
g370
S'http://live.onestreaming.com/ant1cy'
p2226
sg4
V579
p2227
sg6
VAnt1 Fm 102.7
p2228
ssS'578'
p2229
(dp2230
g4
V578
p2231
sg6
VStatus Radio
p2232
ssS'604'
p2233
(dp2234
g370
S'http://shoutcast.24radio.gr:8006'
p2235
sg4
V604
p2236
sg6
VKiss 101.3
p2237
ssS'573'
p2238
(dp2239
g370
S'http://s3.onweb.gr:8474'
p2240
sg4
V573
p2241
sg6
VStudio A 1000
p2242
ssS'572'
p2243
(dp2244
g4
V572
p2245
sg6
VDeep Breath
p2246
ssS'571'
p2247
(dp2248
g4
V571
p2249
sg6
VStudio 306
p2250
ssS'570'
p2251
(dp2252
g370
S'http://208.43.115.44:8262/'
p2253
sg4
V570
p2254
sg6
VMr Soul Radio
p2255
ssS'577'
p2256
(dp2257
g4
V577
p2258
sg6
VPing Pong Radio
p2259
ssS'576'
p2260
(dp2261
g4
V576
p2262
sg6
V\u039c\u03b5\u03bb\u03c9\u03b4\u03b9\u03ba\u03cc\u03c2
p2263
ssS'575'
p2264
(dp2265
g4
V575
p2266
sg6
VR06
p2267
ssS'574'
p2268
(dp2269
g4
V574
p2270
sg6
VWasteland 
p2271
ssS'60'
p2272
(dp2273
g370
S'http://shoutcast.24radio.gr:8074'
p2274
sg4
V60
p2275
sg6
VRadio 98.2
p2276
ssS'61'
p2277
(dp2278
g370
S'http://shout.streamwithq.gr:4044/'
p2279
sg4
V61
p2280
sg6
VFly 95.9
p2281
ssS'258'
p2282
(dp2283
g4
V258
p2284
sg6
V\u0391\u03bd\u03b1\u03c4\u03bf\u03bb\u03b9\u03ba\u03cc\u03c2 Fm 95.8
p2285
ssS'259'
p2286
(dp2287
g370
S'http://174.36.237.66:8220/'
p2288
sg4
V259
p2289
sg6
V\u03a1\u03c5\u03b8\u03bc\u03cc\u03c2 Fm 103.8
p2290
ssS'64'
p2291
(dp2292
g370
S'mms://radiofeeds1.mediabox.gr/kentrofm'
p2293
sg4
V64
p2294
sg6
V\u039a\u03ad\u03bd\u03c4\u03c1\u03bf Fm 98.2
p2295
ssS'66'
p2296
(dp2297
g370
S'http://streamx2.greekradios.gr:8000'
p2298
sg4
V66
p2299
sg6
VRepublic 100.3
p2300
ssS'67'
p2301
(dp2302
g370
S'http://radio.onweb.gr:8078/'
p2303
sg4
V67
p2304
sg6
VRock 105.5
p2305
ssS'252'
p2306
(dp2307
g370
S'http://62.1.195.86:2281'
p2308
sg4
V252
p2309
sg6
V\u03a7\u03b9\u03b1\u03ba\u03ae \u03a6\u03c9\u03bd\u03ae 90
p2310
ssS'69'
p2311
(dp2312
g4
V69
p2313
sg6
VAnt1 97.5
p2314
ssS'250'
p2315
(dp2316
g370
S'http://s3.onweb.gr:8032'
p2317
sg4
V250
p2318
sg6
VD-Code 96.2
p2319
ssS'251'
p2320
(dp2321
g370
S'http://s1.onweb.gr:8040'
p2322
sg4
V251
p2323
sg6
V\u03a1\u03ac\u03b4\u03b9\u03bf \u03a1\u03b9\u03b6\u03af\u03c4\u03b5\u03c2 92.4
p2324
ssS'256'
p2325
(dp2326
g370
S'http://shoutcast.24radio.gr:8064/'
p2327
sg4
V256
p2328
sg6
VCool Fm 90.7
p2329
ssS'257'
p2330
(dp2331
g370
S'http://s6.onweb.gr:8026'
p2332
sg4
V257
p2333
sg6
VOrange Radio 91.1
p2334
ssS'254'
p2335
(dp2336
g370
S'http://live.onestreaming.com/aegeanant1'
p2337
sg4
V254
p2338
sg6
VAnt1 \u0391\u03b9\u03b3\u03b1\u03af\u03bf\u03c5 105
p2339
ssS'255'
p2340
(dp2341
g4
V255
p2342
sg6
V\u03a1\u03ac\u03b4\u03b9\u03bf \u0386\u03bb\u03c6\u03b1 96
p2343
ssS'603'
p2344
(dp2345
g4
V603
p2346
sg6
V\u03a3\u03c5\u03bd \u0388\u03bd\u03b1 Radio 95.8
p2347
ssS'156'
p2348
(dp2349
g370
S'mms://a1933.l3271921932.c32719.g.lm.akamaistream.net/D/1933/32719/v0001/reflector:21932'
p2350
sg4
V156
p2351
sg6
V\u03a4\u03c1\u03af\u03c4\u03bf \u03a0\u03c1\u03cc\u03b3\u03c1\u03b1\u03bc\u03bc\u03b1 \u0392\u03c1\u03b1\u03c7\u03ad\u03b1
p2352
ssS'730'
p2353
(dp2354
g4
V730
p2355
sg6
V96.5 Fm
p2356
ssS'732'
p2357
(dp2358
g4
V732
p2359
sg6
VOriginal Radio 94.4
p2360
ssS'735'
p2361
(dp2362
g4
V735
p2363
sg6
VClubs Radio
p2364
ssS'737'
p2365
(dp2366
g370
S'http://72.55.146.84:8020/'
p2367
sg4
V737
p2368
sg6
VSiera Fm 105.3
p2369
ssS'736'
p2370
(dp2371
g218
S'http://78.129.143.157:8000/arisfm'
p2372
sg4
V736
p2373
sg6
V\u0384\u0391\u03c1\u03b7\u03c2 Fm 92.8
p2374
ssS'739'
p2375
(dp2376
g370
S'http://s3.onweb.gr:8532/'
p2377
sg4
V739
p2378
sg6
V\u0393\u03bb\u03ad\u03bd\u03c4\u03b9 Fm 101.1
p2379
ssS'738'
p2380
(dp2381
g4
V738
p2382
sg6
V\u0397\u03c7\u03cc\u03c1\u03b1\u03bc\u03b1 93.3
p2383
ssS'504'
p2384
(dp2385
g18
S'mms://live.onestreaming.com/magiafm'
p2386
sg4
V504
p2387
sg6
V\u039c\u03b1\u03b3\u03b5\u03af\u03b1 Fm 104.7
p2388
ssS'505'
p2389
(dp2390
g370
S'http://91.121.143.17:8000/'
p2391
sg4
V505
p2392
sg6
V1Mix Radio
p2393
ssS'502'
p2394
(dp2395
g4
V502
p2396
sg6
VBest Radio 94.7
p2397
ssS'1037'
p2398
(dp2399
g370
S'http://62.212.82.142:8012/'
p2400
sg4
V1037
p2401
sg6
VSferikos 99.3
p2402
ssS'500'
p2403
(dp2404
g370
S'http://shoutcast.24radio.gr:8086/'
p2405
sg4
V500
p2406
sg6
V\u039d\u03b9\u03ba\u03bf\u03bb\u03ac\u03bf\u03c5 Radio
p2407
ssS'501'
p2408
(dp2409
g370
S'http://live.onestreaming.com/mesogios'
p2410
sg4
V501
p2411
sg6
V\u039c\u03b5\u03c3\u03cc\u03b3\u03b5\u03b9\u03bf\u03c2 Fm 105.4
p2412
ssS'631'
p2413
(dp2414
g370
S'http://216.66.84.2:9108'
p2415
sg4
V631
p2416
sg6
VHeat Radio 88.3
p2417
ssS'633'
p2418
(dp2419
g4
V633
p2420
sg6
V69 Music 
p2421
ssS'634'
p2422
(dp2423
g370
S'http://eco.onestreaming.com:8077'
p2424
sg4
V634
p2425
sg6
VMaroni Radio
p2426
ssS'635'
p2427
(dp2428
g4
V635
p2429
sg6
VDalkas 88.2
p2430
ssS'636'
p2431
(dp2432
g4
V636
p2433
sg6
V1\u03bf \u03a0\u03c1\u03cc\u03b3\u03c1\u03b1\u03bc\u03bc\u03b1 \u03a7\u03af\u03bf\u03c5
p2434
ssS'637'
p2435
(dp2436
g4
V637
p2437
sg6
VStudio 54
p2438
ssS'465'
p2439
(dp2440
g4
V465
p2441
sg6
VFlash 94.5
p2442
ssS'639'
p2443
(dp2444
g370
S'http://81.171.50.130:9124'
p2445
sg4
V639
p2446
sg6
VHellas Web Radio
p2447
ssS'467'
p2448
(dp2449
g370
S'http://178.33.248.236:8006'
p2450
sg4
V467
p2451
sg6
VFun Radio
p2452
ssS'461'
p2453
(dp2454
g4
V461
p2455
sg6
VOff Radio
p2456
ssS'460'
p2457
(dp2458
g370
S'http://sentrafm.live24.gr/sentrafm'
p2459
sg4
V460
p2460
sg6
VSentra Fm 103.3
p2461
ssS'463'
p2462
(dp2463
g370
S'http://shoutcast.24radio.gr:8046/'
p2464
sg4
V463
p2465
sg6
VViva Fm 95.3
p2466
ssS'462'
p2467
(dp2468
g4
V462
p2469
sg6
V\u039c\u03b5\u03bb\u03c9\u03b4\u03b9\u03ba\u03cc\u03c2 105.7
p2470
ssS'901'
p2471
(dp2472
g370
S'http://s3.onweb.gr:8808'
p2473
sg4
V901
p2474
sg6
V\u03a1\u03b1\u03b4\u03b9\u03bf\u03ba\u03c1\u03ae\u03c4\u03b5\u03c2
p2475
ssS'168'
p2476
(dp2477
g370
S'http://s1.onweb.gr:8854'
p2478
sg4
V168
p2479
sg6
VPower 100.2
p2480
ssS'169'
p2481
(dp2482
g370
S'http://s1.onweb.gr:8068'
p2483
sg4
V169
p2484
sg6
VSuper 90.4
p2485
ssS'164'
p2486
(dp2487
g4
V164
p2488
sg6
VClub Radio
p2489
ssS'165'
p2490
(dp2491
g4
V165
p2492
sg6
VRadio Dee Jay 94.2
p2493
ssS'166'
p2494
(dp2495
g370
S'http://live.onestreaming.com/mousikokanali'
p2496
sg4
V166
p2497
sg6
V\u039c\u03bf\u03c5\u03c3\u03b9\u03ba\u03cc \u039a\u03b1\u03bd\u03ac\u03bb\u03b9 105.1
p2498
ssS'167'
p2499
(dp2500
g4
V167
p2501
sg6
VMRB Radio 101
p2502
ssS'160'
p2503
(dp2504
g4
V160
p2505
sg6
VUplifted
p2506
ssS'161'
p2507
(dp2508
g370
S'mms://golive.onestreaming.com/ydrogeios'
p2509
sg4
V161
p2510
sg6
V\u03a5\u03b4\u03c1\u03cc\u03b3\u03b5\u03b9\u03bf\u03c2 106.9
p2511
ssS'162'
p2512
(dp2513
g370
S'http://s3.onweb.gr:8808/'
p2514
sg4
V162
p2515
sg6
VVenus Fm 105.1
p2516
ssS'163'
p2517
(dp2518
g370
S'http://ice.motionfm.com:80/motionone_free'
p2519
sg4
V163
p2520
sg6
VHouse Motion Fm
p2521
ssS'963'
p2522
(dp2523
g4
V963
p2524
sg6
VBrake Fm 101.6
p2525
ssS'969'
p2526
(dp2527
g370
S'http://shout.streamwithq.gr:4042/'
p2528
sg4
V969
p2529
sg6
VRockarolla Radio
p2530
ssS'1103'
p2531
(dp2532
g4
V1103
p2533
sg6
VBeautyWar
p2534
ssS'408'
p2535
(dp2536
g370
S'http://s8.onweb.gr:8702'
p2537
sg4
V408
p2538
sg6
V\u03a1\u03b1\u03b4\u03b9\u03bf\u03ba\u03cd\u03bc\u03b1\u03c4\u03b1 102.6
p2539
ssS'600'
p2540
(dp2541
g370
S'http://stream.xromafm.gr:59102/'
p2542
sg4
V600
p2543
sg6
V\u03a7\u03c1\u03ce\u03bc\u03b1 Fm 102.1
p2544
ssS'890'
p2545
(dp2546
g370
S'http://golive.onestreaming.com/akousgazi'
p2547
sg4
V890
p2548
sg6
VAkous Gazi
p2549
ssS'891'
p2550
(dp2551
g4
V891
p2552
sg6
VAkous Terra
p2553
ssS'892'
p2554
(dp2555
g370
S'http://golive.onestreaming.com/akousdeluxe'
p2556
sg4
V892
p2557
sg6
VAkous Deluxe
p2558
ssS'893'
p2559
(dp2560
g370
S'http://golive.onestreaming.com/akousstage'
p2561
sg4
V893
p2562
sg6
VAkous Stage
p2563
ssS'894'
p2564
(dp2565
g370
S'http://eco.onestreaming.com:8189/'
p2566
sg4
V894
p2567
sg6
V\u03a1\u03c5\u03b8\u03bc\u03cc\u03c2 988
p2568
ssS'895'
p2569
(dp2570
g370
S'http://188.40.95.16:7100/'
p2571
sg4
V895
p2572
sg6
VMusic Fm
p2573
ssS'896'
p2574
(dp2575
g4
V896
p2576
sg6
V\u03a1\u03ac\u03b4\u03b9\u03bf \u039b\u03ae\u03bc\u03bd\u03bf\u03c2
p2577
ssS'436'
p2578
(dp2579
g4
V436
p2580
sg6
VRadio Air
p2581
ssS'357'
p2582
(dp2583
g370
S'http://s1.onweb.gr:8420'
p2584
sg4
V357
p2585
sg6
V\u0396\u03c5\u03b3\u03cc\u03c2 Fm 100
p2586
ssS'356'
p2587
(dp2588
g4
V356
p2589
sg6
V\u03a1\u03b1\u03b4\u03b9\u03cc\u03c6\u03c9\u03bd\u03bf \u0392\u03cc\u03bb\u03bf\u03c2 104.6
p2590
ssS'355'
p2591
(dp2592
g4
V355
p2593
sg6
VLove Radio 105.5
p2594
ssS'354'
p2595
(dp2596
g370
S'http://s1.onweb.gr:8838'
p2597
sg4
V354
p2598
sg6
VMaximum 93.6
p2599
ssS'353'
p2600
(dp2601
g370
S'http://rs2.radiostreamer.com/radioalfa'
p2602
sg4
V353
p2603
sg6
V\u0386\u03bb\u03c6\u03b1 104
p2604
ssS'352'
p2605
(dp2606
g370
S'http://live.onestreaming.com/polis'
p2607
sg4
V352
p2608
sg6
VPolis 102.6
p2609
ssS'351'
p2610
(dp2611
g370
S'http://shout.streamwithq.gr:4052/'
p2612
sg4
V351
p2613
sg6
V\u0395\u03bb\u03bb\u03b7\u03bd\u03b9\u03ba\u03cc\u03c2 88.9
p2614
ssS'350'
p2615
(dp2616
g370
S'http://plaisioradio.live24.gr/plaisioradio'
p2617
sg4
V350
p2618
sg6
VPlaisio Radio
p2619
ssS'803'
p2620
(dp2621
g370
S'http://shoutcast.24radio.gr:8058/'
p2622
sg4
V803
p2623
sg6
VSfera 989
p2624
ssS'802'
p2625
(dp2626
g4
V802
p2627
sg6
VNRJ Radio 98
p2628
ssS'801'
p2629
(dp2630
g370
S'mms://starradio.no-ip.biz:2380'
p2631
sg4
V801
p2632
sg6
VStar Fm 106.7
p2633
ssS'800'
p2634
(dp2635
g4
V800
p2636
sg6
VRadio 6 95.4
p2637
ssS'807'
p2638
(dp2639
g370
S'http://eco.onestreaming.com:8148/'
p2640
sg4
V807
p2641
sg6
VYes! 91.2
p2642
ssS'806'
p2643
(dp2644
g370
S'http://shoutcast.24radio.gr:8018/'
p2645
sg4
V806
p2646
sg6
VWest Radio
p2647
ssS'359'
p2648
(dp2649
g370
S'http://live.onestreaming.com/kanali3'
p2650
sg4
V359
p2651
sg6
V\u039a\u03b1\u03bd\u03ac\u03bb\u03b9 3 104
p2652
ssS'804'
p2653
(dp2654
g4
V804
p2655
sg6
VNikos Radio
p2656
ssS'216'
p2657
(dp2658
g370
S'http://live.onestreaming.com/rythmos943'
p2659
sg4
V216
p2660
sg6
V\u03a1\u03cd\u03b8\u03bc\u03bf\u03c2 94.3
p2661
ssS'217'
p2662
(dp2663
g4
V217
p2664
sg6
VAthletic Radio 104.2
p2665
ssS'768'
p2666
(dp2667
g4
V768
p2668
sg6
V\u0399\u03cc\u03bd\u03b9\u03bf\u03bd Fm \u03a0\u03ac\u03c4\u03c1\u03b1\u03c2 95.7
p2669
ssS'769'
p2670
(dp2671
g4
V769
p2672
sg6
VTop Fm 105
p2673
ssS'213'
p2674
(dp2675
g370
S'http://s1.onweb.gr:8836'
p2676
sg4
V213
p2677
sg6
VLife Radio 102.9
p2678
ssS'210'
p2679
(dp2680
g370
S'http://s1.onweb.gr:8422'
p2681
sg4
V210
p2682
sg6
VPop Fm 102.1
p2683
ssS'211'
p2684
(dp2685
g370
S'http://s1.onweb.gr:8800/'
p2686
sg4
V211
p2687
sg6
VStar 88.8
p2688
ssS'762'
p2689
(dp2690
g4
V762
p2691
sg6
VFasma Fm 99.7
p2692
ssS'42'
p2693
(dp2694
g4
V42
p2695
sg6
V\u0391\u03b8\u03ae\u03bd\u03b1 9.84
p2696
ssS'760'
p2697
(dp2698
g4
V760
p2699
sg6
VSportive Radio
p2700
ssS'761'
p2701
(dp2702
g370
S'http://64.111.18.90:8005/'
p2703
sg4
V761
p2704
sg6
Vskglobe.net
p2705
ssS'766'
p2706
(dp2707
g370
S'http://208.43.115.44:9846/'
p2708
sg4
V766
p2709
sg6
V\u03a1\u03ac\u03b4\u03b9\u03bf \u0395\u03cd\u03b2\u03bf\u03b9\u03b1 104.1
p2710
ssS'764'
p2711
(dp2712
g370
S'http://live.e-streaming.eu:8110/'
p2713
sg4
V764
p2714
sg6
V\u0391\u03ba\u03c4\u03af\u03bd\u03b1 Radio 95
p2715
ssS'219'
p2716
(dp2717
g370
S'http://freeradio.live24.gr/freeradio-1000'
p2718
sg4
V219
p2719
sg6
VFree Radio  98
p2720
ssS'957'
p2721
(dp2722
g4
V957
p2723
sg6
V\u039d\u03b1\u03c5\u03ac\u03b3\u03b9\u03b1
p2724
ssS'1033'
p2725
(dp2726
g370
S'http://72.233.114.175:8020/'
p2727
sg4
V1033
p2728
sg6
VPowershots!
p2729
ssS'1072'
p2730
(dp2731
g370
S'http://109.169.26.190:8048'
p2732
sg4
V1072
p2733
sg6
VGr8 Radio Greek
p2734
ssS'1073'
p2735
(dp2736
g370
S'http://shoutcast.24radio.gr:8070'
p2737
sg4
V1073
p2738
sg6
V\u0394\u03b7\u03bc\u03bf\u03c4\u03b9\u03ba\u03ae \u0391\u03bd\u03b8\u03bf\u03bb\u03bf\u03b3\u03af\u03b1 88.8
p2739
ssS'289'
p2740
(dp2741
g370
S'http://ice.motionfm.com:80/motionthree_free'
p2742
sg4
V289
p2743
sg6
VLounge Motion Fm
p2744
ssS'288'
p2745
(dp2746
g370
S'http://s1.onweb.gr:8056'
p2747
sg4
V288
p2748
sg6
VStar Fm 94.1
p2749
ssS'321'
p2750
(dp2751
g4
V321
p2752
sg6
V\u03a1\u03b1\u03b4/\u03bd\u03af\u03b1 \u039a\u03bf\u03b6\u03ac\u03bd\u03b7\u03c2 102.3
p2753
ssS'281'
p2754
(dp2755
g370
S'http://s1.onweb.gr:8096'
p2756
sg4
V281
p2757
sg6
V\u03a1\u03ac\u03b4\u03b9\u03bf \u039a\u03c5\u03c0\u03b1\u03c1\u03b9\u03c3\u03c3\u03af\u03b1 93.6
p2758
ssS'280'
p2759
(dp2760
g4
V280
p2761
sg6
V\u0397\u03bb\u03ad\u03ba\u03c4\u03c1\u03b1 98.8
p2762
ssS'283'
p2763
(dp2764
g370
S'http://broadcast.hol.gr/kanali20'
p2765
sg4
V283
p2766
sg6
V\u039a\u03b1\u03bd\u03ac\u03bb\u03b9 20 107.5
p2767
ssS'282'
p2768
(dp2769
g4
V282
p2770
sg6
V\u03a0\u03b1\u03bb\u03bc\u03cc\u03c2 90.5
p2771
ssS'285'
p2772
(dp2773
g4
V285
p2774
sg6
VLight Kiss 89
p2775
ssS'284'
p2776
(dp2777
g370
S'mms://broadcast.hol.gr/cityfm'
p2778
sg4
V284
p2779
sg6
VCity Radio 103.3
p2780
ssS'287'
p2781
(dp2782
g370
S'mms://live.onestreaming.com/politia'
p2783
sg4
V287
p2784
sg6
V\u03a0\u03bf\u03bb\u03b9\u03c4\u03b5\u03af\u03b1 90.7
p2785
ssS'286'
p2786
(dp2787
g370
S'http://eco.onestreaming.com:8272'
p2788
sg4
V286
p2789
sg6
VFly 89.7
p2790
ssS'678'
p2791
(dp2792
g370
S'http://s1.onweb.gr:8866/'
p2793
sg4
V678
p2794
sg6
VSuper 92.6
p2795
ssS'679'
p2796
(dp2797
g370
S'http://shout.streamwithq.gr:4126/'
p2798
sg4
V679
p2799
sg6
VKiss 107
p2800
ssS'674'
p2801
(dp2802
g370
S'http://mvradio.serverroom.us:9842'
p2803
sg4
V674
p2804
sg6
VMv Radio
p2805
ssS'675'
p2806
(dp2807
g370
S'http://psychoradio.servemp3.com'
p2808
sg4
V675
p2809
sg6
VPsycho Radio
p2810
ssS'676'
p2811
(dp2812
g370
S'http://live.onestreaming.com/star884'
p2813
sg4
V676
p2814
sg6
VStar 88.4
p2815
ssS'677'
p2816
(dp2817
g4
V677
p2818
sg6
VFantasy 100.1
p2819
ssS'670'
p2820
(dp2821
g370
S'http://live.onestreaming.com/makistia'
p2822
sg4
V670
p2823
sg6
V\u03a1\u03ac\u03b4\u03b9\u03bf \u039c\u03b1\u03ba\u03b9\u03c3\u03c4\u03af\u03b1 98.6
p2824
ssS'671'
p2825
(dp2826
g4
V671
p2827
sg6
VPowerMix Fm Greek
p2828
ssS'672'
p2829
(dp2830
g4
V672
p2831
sg6
V\u03a1\u03ac\u03b4\u03b9\u03bf \u0392\u03ad\u03c1\u03b1 91.8
p2832
ssS'673'
p2833
(dp2834
g4
V673
p2835
sg6
V\u03a1\u03ac\u03b4\u03b9\u03bf TRT 95.1
p2836
ssS'263'
p2837
(dp2838
g370
S'http://eco.onestreaming.com:8185'
p2839
sg4
V263
p2840
sg6
V\u0394\u03b7\u03bc\u03bf\u03c4\u03b9\u03ba\u03cc\u03c2 \u03a4\u03c1\u03af\u03c0\u03bf\u03bb\u03b7\u03c2 91.5
p2841
ssS'262'
p2842
(dp2843
g370
S'http://shoutcast.24radio.gr:8012/'
p2844
sg4
V262
p2845
sg6
VMust Fm 97
p2846
ssS'261'
p2847
(dp2848
g4
V261
p2849
sg6
VStyle Fm 89.6
p2850
ssS'260'
p2851
(dp2852
g4
V260
p2853
sg6
VStar Fm 92.9
p2854
ssS'267'
p2855
(dp2856
g370
S'http://smartfm.serverroom.us:8030'
p2857
sg4
V267
p2858
sg6
VSmart Fm 100.7
p2859
ssS'266'
p2860
(dp2861
g370
S'mms://broadcast.hol.gr/IonionFMU'
p2862
sg4
V266
p2863
sg6
VIonion Fm 95.8
p2864
ssS'265'
p2865
(dp2866
g370
S'http://208.43.115.44:8016/'
p2867
sg4
V265
p2868
sg6
VHorizon Fm 96.5
p2869
ssS'264'
p2870
(dp2871
g4
V264
p2872
sg6
V\u0391\u03c1\u03bc\u03bf\u03bd\u03af\u03b1 Fm 93.8
p2873
ssS'1031'
p2874
(dp2875
g4
V1031
p2876
sg6
VSeal Radio
p2877
ssS'269'
p2878
(dp2879
g370
S'mms://broadcast.hol.gr/mojoradio'
p2880
sg4
V269
p2881
sg6
VMojo Radio 107.7
p2882
ssS'268'
p2883
(dp2884
g370
S'http://217.172.179.76:8500/'
p2885
sg4
V268
p2886
sg6
VWave 97.4
p2887
ssS'59'
p2888
(dp2889
g370
S'http://shoutcast.24radio.gr:8036'
p2890
sg4
V59
p2891
sg6
VKiss 100.6
p2892
ssS'58'
p2893
(dp2894
g4
V58
p2895
sg6
V\u039a\u03c1\u03b7\u03c4\u03b9\u03ba\u03cc\u03c1\u03b1\u03bc\u03b1 93.8
p2896
ssS'55'
p2897
(dp2898
g4
V55
p2899
sg6
V\u03a3\u03c4\u03bf \u039a\u03cc\u03ba\u03ba\u03b9\u03bd\u03bf 105.5
p2900
ssS'54'
p2901
(dp2902
g370
S'mms://a1232.l3271935231.c32719.g.lm.akamaistream.net/D/1232/32719/v0001/reflector:35231'
p2903
sg4
V54
p2904
sg6
VKosmos 93.6
p2905
ssS'57'
p2906
(dp2907
g4
V57
p2908
sg6
V\u03a1\u03ac\u03b4\u03b9\u03bf \u03a0\u03cc\u03bd\u03c4\u03bf\u03c2 106.5
p2909
ssS'56'
p2910
(dp2911
g4
V56
p2912
sg6
V\u03a7\u03c1\u03b9\u03c3\u03c4\u03b9\u03b1\u03bd\u03b9\u03c3\u03bc\u03cc\u03c2
p2913
ssS'51'
p2914
(dp2915
g4
V51
p2916
sg6
V\u039c\u03b5\u03bb\u03c9\u03b4\u03af\u03b1 99.2
p2917
ssS'62'
p2918
(dp2919
g370
S'http://shoutcast.24radio.gr:8060/'
p2920
sg4
V62
p2921
sg6
VLife Radio 91.6
p2922
ssS'53'
p2923
(dp2924
g370
S'mms://ant1.live24.gr/ant1'
p2925
sg4
V53
p2926
sg6
VAnt1 97.2
p2927
ssS'52'
p2928
(dp2929
g4
V52
p2930
sg6
V\u039b\u03ac\u03bc\u03c8\u03b7 92.3
p2931
ssS'537'
p2932
(dp2933
g4
V537
p2934
sg6
VMusic Life 95.1
p2935
ssS'536'
p2936
(dp2937
g4
V536
p2938
sg6
VDolce Radio 89.5
p2939
ssS'63'
p2940
(dp2941
g4
V63
p2942
sg6
VHit Fm 92.9
p2943
ssS'533'
p2944
(dp2945
g4
V533
p2946
sg6
VMy World
p2947
ssS'532'
p2948
(dp2949
g4
V532
p2950
sg6
VRadio 88\u03bc\u03b9\u03c3\u03cc
p2951
ssS'531'
p2952
(dp2953
g370
S'http://live.onestreaming.com/greek4u'
p2954
sg4
V531
p2955
sg6
VGr4u
p2956
ssS'152'
p2957
(dp2958
g370
S'mms://a1318.l3271931317.c32719.g.lm.akamaistream.net/D/1318/32719/v0001/reflector:31317'
p2959
sg4
V152
p2960
sg6
V\u03a4\u03c1\u03af\u03c4\u03bf  90.9
p2961
ssS'539'
p2962
(dp2963
g4
V539
p2964
sg6
V\u03a1\u03ac\u03b4\u03b9\u03bf \u039c\u03b5\u03c3\u03c3\u03ac\u03c4\u03b9\u03b4\u03b1 98
p2965
ssS'538'
p2966
(dp2967
g370
S'http://972fm.no-ip.info:8000'
p2968
sg4
V538
p2969
sg6
V97.2 Fm Stereo
p2970
ssS'201'
p2971
(dp2972
g4
V201
p2973
sg6
V\u0391\u03b3\u03ad\u03c1\u03b9 Fm 102
p2974
ssS'988'
p2975
(dp2976
g4
V988
p2977
sg6
V\u0397\u03c7\u03bf\u03c2 Radio
p2978
ssS'200'
p2979
(dp2980
g370
S'http://eco.onestreaming.com:8129'
p2981
sg4
V200
p2982
sg6
V\u039c\u03b5\u03bb\u03c9\u03b4\u03af\u03b1 88
p2983
ssS'981'
p2984
(dp2985
g370
S'http://199.16.186.34:8236/'
p2986
sg4
V981
p2987
sg6
VElektrik Dreams
p2988
ssS'50'
p2989
(dp2990
g4
V50
p2991
sg6
VX Fm 94.3
p2992
ssS'115'
p2993
(dp2994
g4
V115
p2995
sg6
V\u03a1\u03ac\u03b4\u03b9\u03bf \u0391\u03bb\u03ae\u03b8\u03b5\u03b9\u03b1 95.7
p2996
ssS'68'
p2997
(dp2998
g370
S'http://golive.onestreaming.com/radioena'
p2999
sg4
V68
p3000
sg6
V99 Fm \u03a1\u03ac\u03b4\u03b9\u03bf 1
p3001
ssS'116'
p3002
(dp3003
g4
V116
p3004
sg6
VPirate Fm 91
p3005
ssS'111'
p3006
(dp3007
g370
S'http://golive.onestreaming.com/arion'
p3008
sg4
V111
p3009
sg6
VArion Radio
p3010
ssS'110'
p3011
(dp3012
g370
S'http://golive.onestreaming.com/athensparty'
p3013
sg4
V110
p3014
sg6
VAthens Party
p3015
ssS'113'
p3016
(dp3017
g370
S'http://188.40.131.14:8062'
p3018
sg4
V113
p3019
sg6
VJay Radio
p3020
ssS'112'
p3021
(dp3022
g4
V112
p3023
sg6
V\u0388\u03c1\u03c9\u03c4\u03b1\u03c2
p3024
ssS'205'
p3025
(dp3026
g370
S'http://live.onestreaming.com/arhagelos'
p3027
sg4
V205
p3028
sg6
V\u03a1\u03ac\u03b4\u03b9\u03bf \u0391\u03c1\u03c7\u03ac\u03b3\u03b3\u03b5\u03bb\u03bf\u03c2 94.1
p3029
ssS'119'
p3030
(dp3031
g370
S'http://s1.onweb.gr:8812'
p3032
sg4
V119
p3033
sg6
V\u03a1\u03b1\u03b4\u03b9\u03bf\u03ba\u03cd\u03bc\u03b1\u03c4\u03b1 104.4
p3034
ssS'118'
p3035
(dp3036
g4
V118
p3037
sg6
V\u039b\u03c5\u03b4\u03af\u03b1 Fm 94.2
p3038
ssS'207'
p3039
(dp3040
g4
V207
p3041
sg6
V\u03a3\u03ac\u03bc\u03bf\u03c2 Fm 97.3
p3042
ssS'953'
p3043
(dp3044
g370
S'http://live.onestreaming.com/notesserres'
p3045
sg4
V953
p3046
sg6
V\u03a1\u03ac\u03b4\u03b9\u03bf \u039d\u03cc\u03c4\u03b5\u03c2 106
p3047
ssS'429'
p3048
(dp3049
g4
V429
p3050
sg6
V\u03a1\u03c5\u03b8\u03bc\u03cc\u03c2 104
p3051
ssS'428'
p3052
(dp3053
g4
V428
p3054
sg6
V\u03a0\u03b1\u03bd\u03cc\u03c1\u03b1\u03bc\u03b1 98.4
p3055
ssS'534'
p3056
(dp3057
g370
S'http://eco.onestreaming.com:8152/stream'
p3058
sg4
V534
p3059
sg6
VAction Radio 98.2
p3060
ssS'919'
p3061
(dp3062
g370
S'http://r3.webradiostreams.com:7120/'
p3063
sg4
V919
p3064
sg6
VStudio 20 101.1
p3065
ssS'918'
p3066
(dp3067
g4
V918
p3068
sg6
VRadio Must Athens
p3069
ssS'914'
p3070
(dp3071
g370
S'http://178.32.57.58:8345/'
p3072
sg4
V914
p3073
sg6
VMagic Fm 102.9
p3074
ssS'916'
p3075
(dp3076
g4
V916
p3077
sg6
V\u03a1\u03ac\u03b4\u03b9\u03bf \u039f\u03bc\u03ac\u03b4\u03b1R
p3078
ssS'913'
p3079
(dp3080
g4
V913
p3081
sg6
VClassical Radio
p3082
ssS'300'
p3083
(dp3084
g370
S'http://eco.onestreaming.com:8173'
p3085
sg4
V300
p3086
sg6
VCity Fm 100
p3087
ssS'301'
p3088
(dp3089
g370
S'http://78.46.106.4:8010'
p3090
sg4
V301
p3091
sg6
VMusic Club 105.8
p3092
ssS'302'
p3093
(dp3094
g4
V302
p3095
sg6
VEros Radio 93
p3096
ssS'303'
p3097
(dp3098
g4
V303
p3099
sg6
VRadio Erotic
p3100
ssS'304'
p3101
(dp3102
g370
S'http://media15.internet.gr/dreamfm'
p3103
sg4
V304
p3104
sg6
VDream Fm 90.6
p3105
ssS'305'
p3106
(dp3107
g4
V305
p3108
sg6
VKiss Gold
p3109
ssS'306'
p3110
(dp3111
g4
V306
p3112
sg6
VCoast Fm 91.4
p3113
ssS'821'
p3114
(dp3115
g4
V821
p3116
sg6
VFree Angel 91.8
p3117
ssS'374'
p3118
(dp3119
g370
S'http://s5.onweb.gr:8030'
p3120
sg4
V374
p3121
sg6
VHit Fm 89.3
p3122
ssS'954'
p3123
(dp3124
g4
V954
p3125
sg6
VRock 69
p3126
ssS'753'
p3127
(dp3128
g370
S'http://shoutcast.24radio.gr:8042/'
p3129
sg4
V753
p3130
sg6
VSpace Fm 107.5
p3131
ssS'569'
p3132
(dp3133
g370
S'http://159.253.149.12:8138'
p3134
sg4
V569
p3135
sg6
V\u03a1\u03ac\u03b4\u03b9\u03bf \u039a\u03b1\u03bb\u03ac\u03b2\u03c1\u03c5\u03c4\u03b1 106.5
p3136
ssS'751'
p3137
(dp3138
g370
S'http://s2.onweb.gr:8608/'
p3139
sg4
V751
p3140
sg6
V\u0395\u03c0\u03b9\u03ba\u03bf\u03b9\u03bd\u03c9\u03bd\u03af\u03b1 Fm 89.1
p3141
ssS'750'
p3142
(dp3143
g370
S'http://208.43.115.44:8068'
p3144
sg4
V750
p3145
sg6
V\u0391\u03be\u03ac\u03c2 Radio
p3146
ssS'757'
p3147
(dp3148
g370
S'http://shoutcast.24radio.gr:8052/'
p3149
sg4
V757
p3150
sg6
V\u0391\u03b9\u03b3\u03b1\u03af\u03bf Live 95.8
p3151
ssS'756'
p3152
(dp3153
g4
V756
p3154
sg6
V\u03a1\u03ac\u03b4\u03b9\u03bf \u0395\u03c0\u03ac\u03bb
p3155
ssS'755'
p3156
(dp3157
g370
S'http://shoutcast.24radio.gr:8050/'
p3158
sg4
V755
p3159
sg6
Vgopop.gr Top 40 Channel
p3160
ssS'754'
p3161
(dp3162
g370
S'http://shoutcast.24radio.gr:8048/'
p3163
sg4
V754
p3164
sg6
Vgopop.gr Disco Channel
p3165
ssS'560'
p3166
(dp3167
g370
S'http://eco.onestreaming.com:8324'
p3168
sg4
V560
p3169
sg6
VRodon 95 Fm
p3170
ssS'561'
p3171
(dp3172
g370
S'http://eco.onestreaming.com:8238'
p3173
sg4
V561
p3174
sg6
VSfera 94.1
p3175
ssS'759'
p3176
(dp3177
g370
S'http://s3.onweb.gr:8530/'
p3178
sg4
V759
p3179
sg6
VStyl Fm 104.8
p3180
ssS'758'
p3181
(dp3182
g4
V758
p3183
sg6
V\u03a1\u03b1\u03b4\u03b9\u03bf\u03c6\u03c9\u03bd\u03af\u03b1 \u039a\u03c5\u03ba\u03bb\u03ac\u03b4\u03c9\u03bd
p3184
ssS'564'
p3185
(dp3186
g4
V564
p3187
sg6
VAria Fm 107.4
p3188
ssS'566'
p3189
(dp3190
g370
S'http://208.43.115.44:9844/'
p3191
sg4
V566
p3192
sg6
V\u0395\u03bb\u03bb\u03b7\u03bd\u03ac\u03b4\u03b9\u03ba\u03bf Fm
p3193
ssS'567'
p3194
(dp3195
g4
V567
p3196
sg6
VAthens Winder Radio
p3197
ssS'506'
p3198
(dp3199
g4
V506
p3200
sg6
V\u03a1\u03ac\u03b4\u03b9\u03bf \u039d\u03b1\u03cd\u03c0\u03b1\u03ba\u03c4\u03bf\u03c2
p3201
ssS'229'
p3202
(dp3203
g4
V229
p3204
sg6
V\u0391\u03bd\u03b4\u03c1\u03bf\u03bc\u03ad\u03b4\u03b1 Net
p3205
ssS'228'
p3206
(dp3207
g370
S'mms://radio.greekstream.net/ekrixi'
p3208
sg4
V228
p3209
sg6
V\u0388\u03ba\u03c1\u03b7\u03be\u03b7 Fm 99.7
p3210
ssS'227'
p3211
(dp3212
g370
S'http://s1.onweb.gr:8408'
p3213
sg4
V227
p3214
sg6
VStudio 3 103.5
p3215
ssS'226'
p3216
(dp3217
g370
S'http://wm3.greekstream.net/sindosfm'
p3218
sg4
V226
p3219
sg6
V\u039a\u03b1\u03bb\u03b1\u03bc\u03b1\u03c1\u03b9\u03ac Fm 101.7
p3220
ssS'225'
p3221
(dp3222
g370
S'http://shout.plusradio.gr:8120/'
p3223
sg4
V225
p3224
sg6
VPlus Radio 102.6
p3225
ssS'223'
p3226
(dp3227
g370
S'http://s3.onweb.gr:8436'
p3228
sg4
V223
p3229
sg6
V\u03a1\u03ac\u03b4\u03b9\u03bf \u0394\u0395\u0398 104.9
p3230
ssS'222'
p3231
(dp3232
g4
V222
p3233
sg6
V\u0395\u03c0\u03b9\u03ba\u03bf\u03b9\u03bd\u03c9\u03bd\u03af\u03b1 Fm 94
p3234
ssS'221'
p3235
(dp3236
g370
S'mms://a999.l3271920998.c32719.g.lm.akamaistream.net/D/999/32719/v0001/reflector:20998'
p3237
sg4
V221
p3238
sg6
V\u0397 \u03a6\u03c9\u03bd\u03ae \u03c4\u03b7\u03c2 \u0395\u03bb\u03bb\u03ac\u03b4\u03b1\u03c2
p3239
ssS'220'
p3240
(dp3241
g4
V220
p3242
sg6
V\u03a6\u03b9\u03bb\u03af\u03b1 107 Fm
p3243
ssS'1027'
p3244
(dp3245
g370
S'http://85.25.106.162:8330/'
p3246
sg4
V1027
p3247
sg6
VSoul Radio
p3248
ssS'1026'
p3249
(dp3250
g4
V1026
p3251
sg6
VRelax Fm 88.2
p3252
ssS'114'
p3253
(dp3254
g4
V114
p3255
sg6
V\u03a1\u03ac\u03b4\u03b9\u03bf \u039c\u03b1\u03c3\u03c4\u03af\u03c7\u03b1 107.7
p3256
ssS'1028'
p3257
(dp3258
g4
V1028
p3259
sg6
V\u03a0\u03b1\u03bd\u03b9\u03ba\u03cc\u03c2 Fm
p3260
ssS'726'
p3261
(dp3262
g370
S'http://s2.onweb.gr:8624'
p3263
sg4
V726
p3264
sg6
VAlfa Radio 96
p3265
ssS'724'
p3266
(dp3267
g370
S'http://shoutcast.24radio.gr:8072'
p3268
sg4
V724
p3269
sg6
V\u03a1\u03ac\u03b4\u03b9\u03bf \u0386\u03c3\u03c4\u03c5 90.6
p3270
ssS'725'
p3271
(dp3272
g370
S'http://shoutcast.24radio.gr:8004/'
p3273
sg4
V725
p3274
sg6
VAthens Jukebox Radio
p3275
ssS'723'
p3276
(dp3277
g370
S'http://s5.onweb.gr:8502'
p3278
sg4
V723
p3279
sg6
V\u0394\u03af\u03b1\u03c5\u03bb\u03bf\u03c2 \u039a\u03b1\u03c1\u03b4\u03af\u03c4\u03c3\u03b1\u03c2 102.8
p3280
ssS'720'
p3281
(dp3282
g4
V720
p3283
sg6
VVelvet.
p3284
ssS'721'
p3285
(dp3286
g370
S'http://208.43.81.168:8748'
p3287
sg4
V721
p3288
sg6
VIoannina Dee Jay 89.6
p3289
ssS'728'
p3290
(dp3291
g370
S'http://s2.onweb.gr:8646/'
p3292
sg4
V728
p3293
sg6
VVibe Fm 95.4
p3294
ssS'151'
p3295
(dp3296
g370
S'mms://a1782.l3271951781.c32719.g.lm.akamaistream.net/D/1782/32719/v0001/reflector:51781'
p3297
sg4
V151
p3298
sg6
V\u0394\u03b5\u03cd\u03c4\u03b5\u03c1\u03bf 103.7
p3299
ssS'150'
p3300
(dp3301
g370
S'mms://a1709.l3271943708.c32719.g.lm.akamaistream.net/D/1709/32719/v0001/reflector:43708'
p3302
sg4
V150
p3303
sg6
VNet 105.8
p3304
ssS'607'
p3305
(dp3306
g370
S'http://s2.onweb.gr:8600/'
p3307
sg4
V607
p3308
sg6
VDream Radio
p3309
ssS'606'
p3310
(dp3311
g4
V606
p3312
sg6
VLive Dreams
p3313
ssS'601'
p3314
(dp3315
g4
V601
p3316
sg6
VGlam Radio
p3317
ssS'154'
p3318
(dp3319
g370
S'mms://a1964.l3271953963.c32719.g.lm.akamaistream.net/D/1964/32719/v0001/reflector:53963'
p3320
sg4
V154
p3321
sg6
V95.8 Fm
p3322
ssS'157'
p3323
(dp3324
g370
S'http://a240.l827440239.c8274.g.lm.akamaistream.net/D/240/8274/v0001/reflector:40239'
p3325
sg4
V157
p3326
sg6
V\u03a3\u03ba\u03ac\u03ca 100.3
p3327
ssS'602'
p3328
(dp3329
g4
V602
p3330
sg6
V\u03a0\u03b1\u03bb\u03bc\u03cc\u03c2 105.4
p3331
ssS'159'
p3332
(dp3333
g370
S'http://topmelody1.selfip.net:8000'
p3334
sg4
V159
p3335
sg6
VTop Melody 104.9
p3336
ssS'158'
p3337
(dp3338
g370
S'mms://era.aegean.gr/era'
p3339
sg4
V158
p3340
sg6
V\u0395\u03a1\u0391 \u0392. \u0391\u03b9\u03b3\u03b1\u03af\u03bf\u03c5 103
p3341
ssS'609'
p3342
(dp3343
g4
V609
p3344
sg6
VRadio Piotita
p3345
ssS'608'
p3346
(dp3347
g370
S'http://golive.onestreaming.com/arionlaikos'
p3348
sg4
V608
p3349
sg6
VArion \u039b\u03b1\u03ca\u03ba\u03cc\u03c2
p3350
ssS'469'
p3351
(dp3352
g4
V469
p3353
sg6
V\u03a1\u03ac\u03b4\u03b9\u03bf \u039a\u03b1\u03bb\u03bb\u03af\u03c0\u03bf\u03bb\u03b7
p3354
ssS'935'
p3355
(dp3356
g370
S'http://176.9.35.49:9942'
p3357
sg4
V935
p3358
sg6
V\u03a1\u03ac\u03b4\u03b9\u03bf \u03a0\u03b1\u03c1\u03b5\u03bf\u03cd\u03bb\u03b1
p3359
ssS'399'
p3360
(dp3361
g370
S'http://s7.onweb.gr:8548/'
p3362
sg4
V399
p3363
sg6
V\u03a1\u03ac\u03b4\u03b9\u03bf \u03a0\u03b1\u03bb\u03b1\u03b9\u03cc\u03c7\u03c9\u03c1\u03b1 89.3
p3364
ssS'468'
p3365
(dp3366
g4
V468
p3367
sg6
V\u0391\u03b3\u03c1\u03af\u03bd\u03b9\u03bf Fm 93.7
p3368
ssS'959'
p3369
(dp3370
g4
V959
p3371
sg6
VKappa Radio 87.9
p3372
ssS'48'
p3373
(dp3374
g4
V48
p3375
sg6
V\u0395\u03ba\u03ba\u03bb\u03b7\u03c3\u03af\u03b1 89.5
p3376
ssS'49'
p3377
(dp3378
g4
V49
p3379
sg6
V\u03a0\u03b5\u03b9\u03c1\u03b1\u03ca\u03ba\u03ae \u0395\u03ba\u03ba\u03bb\u03b7\u03c3\u03af\u03b1 91.2
p3380
ssS'46'
p3381
(dp3382
g370
S'http://radiogold.live24.gr/radiogold'
p3383
sg4
V46
p3384
sg6
VRadio Gold
p3385
ssS'47'
p3386
(dp3387
g370
S'mms://oasis.live24.gr/oasis8888'
p3388
sg4
V47
p3389
sg6
V\u038c\u03b1\u03c3\u03b9\u03c2 88
p3390
ssS'44'
p3391
(dp3392
g370
S'http://music.vimafm995.gr/vimafm?MSWMExt=.asf'
p3393
sg4
V44
p3394
sg6
V\u0392\u03ae\u03bc\u03b1 Fm 99.5
p3395
ssS'45'
p3396
(dp3397
g370
S'mms://flash.live24.gr/flash5252'
p3398
sg4
V45
p3399
sg6
VFlash 96
p3400
ssS'955'
p3401
(dp3402
g370
S'http://85.17.30.90:8078'
p3403
sg4
V955
p3404
sg6
VRiver Fm 106.6
p3405
ssS'43'
p3406
(dp3407
g4
V43
p3408
sg6
VMad Radio 106.2
p3409
ssS'40'
p3410
(dp3411
g370
S'mms://a1251.l827423250.c8274.g.lm.akamaistream.net/D/1251/8274/v0001/reflector:23250'
p3412
sg4
V40
p3413
sg6
VFreedom
p3414
ssS'41'
p3415
(dp3416
g370
S'http://s3.onweb.gr:8878/'
p3417
sg4
V41
p3418
sg6
V\u039a\u03c1\u03ae\u03c4\u03b7 Fm 87.5
p3419
ssS'638'
p3420
(dp3421
g370
S'http://s3.onweb.gr:8540/'
p3422
sg4
V638
p3423
sg6
VRadio Epigee
p3424
ssS'464'
p3425
(dp3426
g4
V464
p3427
sg6
VMarconi Radio
p3428
ssS'508'
p3429
(dp3430
g4
V508
p3431
sg6
V\u039b\u03b1\u03ca\u03ba\u03cc Radio
p3432
ssS'489'
p3433
(dp3434
g370
S'http://shoutcast.24radio.gr:8076'
p3435
sg4
V489
p3436
sg6
V\u03a1\u03ac\u03b4\u03b9\u03bf \u039c\u03b5\u03bb\u03c9\u03b4\u03af\u03b1 102.4
p3437
ssS'488'
p3438
(dp3439
g4
V488
p3440
sg6
V\u0389\u03c7\u03bf\u03c2 Radio 91
p3441
ssS'487'
p3442
(dp3443
g4
V487
p3444
sg6
VPluslive Radio
p3445
ssS'486'
p3446
(dp3447
g370
S'http://78.46.46.214:8000/'
p3448
sg4
V486
p3449
sg6
VRadio Relax
p3450
ssS'485'
p3451
(dp3452
g4
V485
p3453
sg6
VMango Radio Urban
p3454
ssS'484'
p3455
(dp3456
g370
S'http://live.onestreaming.com/myradionet'
p3457
sg4
V484
p3458
sg6
VMy Radio 89.6
p3459
ssS'483'
p3460
(dp3461
g4
V483
p3462
sg6
V\u03a1\u03ac\u03b4\u03b9\u03bf \u0397\u03c7\u03cc
p3463
ssS'482'
p3464
(dp3465
g4
V482
p3466
sg6
VSigma Radio
p3467
ssS'481'
p3468
(dp3469
g4
V481
p3470
sg6
VAntenna Radio
p3471
ssS'480'
p3472
(dp3473
g4
V480
p3474
sg6
VRolling Paper
p3475
ssS'509'
p3476
(dp3477
g370
S'http://50.7.243.50:8127/'
p3478
sg4
V509
p3479
sg6
VEnergy 93.4
p3480
ssS'473'
p3481
(dp3482
g4
V473
p3483
sg6
VRadio Next
p3484
ssS'470'
p3485
(dp3486
g370
S'http://83.133.127.198:8999'
p3487
sg4
V470
p3488
sg6
VReal Fm 107.1
p3489
ssS'471'
p3490
(dp3491
g370
S'http://radio.radionova.gr:8263/kritorama'
p3492
sg4
V471
p3493
sg6
V\u039a\u03c1\u03b7\u03c4\u03cc\u03c1\u03b1\u03bc\u03b1 97.9
p3494
ssS'476'
p3495
(dp3496
g370
S'mms://a714.l649552713.c6495.g.lm.akamaistream.net/D/714/6495/v0001/reflector:52713'
p3497
sg4
V476
p3498
sg6
VMusic 89.2
p3499
ssS'477'
p3500
(dp3501
g4
V477
p3502
sg6
VTripa Radio
p3503
ssS'474'
p3504
(dp3505
g370
S'http://eco.onestreaming.com:8324'
p3506
sg4
V474
p3507
sg6
V\u0395\u03a1\u0391 \u03a0\u03ac\u03c4\u03c1\u03b1\u03c2 92.5
p3508
ssS'475'
p3509
(dp3510
g4
V475
p3511
sg6
VFlash \u03a0\u03ac\u03c4\u03c1\u03b1\u03c2 98.7
p3512
ssS'478'
p3513
(dp3514
g370
S'http://hotfm.live24.gr/shock'
p3515
sg4
V478
p3516
sg6
VHot Fm
p3517
ssS'479'
p3518
(dp3519
g370
S'http://178.32.57.58:8557/'
p3520
sg4
V479
p3521
sg6
VStudio 359
p3522
ss.