(dp1
S'818'
p2
(dp3
S'id'
p4
V818
p5
sS'title'
p6
VRadio Heaven
p7
ssS'819'
p8
(dp9
g4
V819
p10
sg6
VWinder Ellinikos
p11
ssS'346'
p12
(dp13
S'url'
p14
S'http://metro903.live24.gr/metro903-1000'
p15
sg4
V346
p16
sg6
VMetro Fm 90.3
p17
ssS'347'
p18
(dp19
g4
V347
p20
sg6
V\u0395\u03bb\u03bb\u03b7\u03bd\u03b9\u03ba\u03cc\u03c2 90.3
p21
ssS'340'
p22
(dp23
g14
S'http://s6.onweb.gr:8056'
p24
sg4
V340
p25
sg6
V\u03a1\u03ac\u03b4\u03b9\u03bf \u03a6\u03ac\u03c1\u03bf\u03c2 92.7
p26
ssS'341'
p27
(dp28
g14
S'http://s3.onweb.gr:8060'
p29
sg4
V341
p30
sg6
V\u03a0\u03af\u03bd\u03b4\u03bf\u03c2 Fm 107.7
p31
ssS'342'
p32
(dp33
g4
V342
p34
sg6
VStar 99
p35
ssS'343'
p36
(dp37
g4
V343
p38
sg6
VPop Fm 89.1
p39
ssS'810'
p40
(dp41
S'id'
p42
V810
p43
sS'title'
p44
V365 Radio
p45
ssS'811'
p46
(dp47
g4
V811
p48
sg6
V\u03a1\u03ac\u03b4\u03b9\u03bf \u0391\u03af\u03b3\u03b9\u03bd\u03b1
p49
ssS'812'
p50
(dp51
g14
S'http://live.e-streaming.eu:8120/'
p52
sg4
V812
p53
sg6
V\u03a1\u03ac\u03b4\u03b9\u03bf \u039c\u03c9\u03c1\u03b9\u03ac\u03c2 102.7
p54
ssS'504'
p55
(dp56
g14
S'mms://live.onestreaming.com/magiafm'
p57
sg4
V504
p58
sg6
V\u039c\u03b1\u03b3\u03b5\u03af\u03b1 Fm 104.7
p59
ssS'348'
p60
(dp61
g14
S'http://live.isolservers.com:8400'
p62
sg4
V348
p63
sg6
V\u03a3\u03b5\u03af\u03c1\u03b9\u03bf\u03c2 Fm 95.8
p64
ssS'815'
p65
(dp66
g4
V815
p67
sg6
VFresh Web Radio
p68
ssS'816'
p69
(dp70
g14
S'http://www.streamyourdream.org:8000/urbanradio'
p71
sg4
V816
p72
sg6
VUrban Radio
p73
ssS'817'
p74
(dp75
g14
S'http://66.90.104.41:8356/'
p76
sg4
V817
p77
sg6
VD Radio
p78
ssS'595'
p79
(dp80
g4
V595
p81
sg6
V\u03a9\u03bc\u03ad\u03b3\u03b1 Fm 90
p82
ssS'719'
p83
(dp84
g14
S'http://208.43.121.133:9652/'
p85
sg4
V719
p86
sg6
V\u03a0\u03cc\u03bd\u03c4\u03bf\u03c2 \u039b\u03b5\u03bb\u03ad\u03b2\u03c9\u03c3\u03b5 101.3
p87
ssS'718'
p88
(dp89
g4
V718
p90
sg6
VPlus Elegance
p91
ssS'716'
p92
(dp93
g14
S'http://stream-push2.live24.gr/synorafm-3462'
p94
sg4
V716
p95
sg6
V\u03a3\u03cd\u03bd\u03bf\u03c1\u03b1 Fm 92.2
p96
ssS'714'
p97
(dp98
g14
S'http://eco.onestreaming.com:8072'
p99
sg4
V714
p100
sg6
VLove Radio 97.2
p101
ssS'713'
p102
(dp103
S'url'
p104
S'http://live.radioalphaomega.com:4006'
p105
sg4
V713
p106
sg6
VRadio Alpha Omega
p107
ssS'711'
p108
(dp109
g14
S'http://75.75.226.26:8204'
p110
sg4
V711
p111
sg6
VAlpha Fm 104.7
p112
ssS'710'
p113
(dp114
g104
S'http://goodradio.gr:9106'
p115
sg4
V710
p116
sg6
VSport Fm \u03a1\u03ad\u03b8\u03c5\u03bc\u03bd\u03bf 103.3
p117
ssS'618'
p118
(dp119
g14
S'http://shoutcast.24radio.gr:8038/'
p120
sg4
V618
p121
sg6
VViva Gr 102.8
p122
ssS'1065'
p123
(dp124
g14
S'http://eco.onestreaming.com:8222/'
p125
sg4
V1065
p126
sg6
VPlay Radio
p127
ssS'619'
p128
(dp129
g4
V619
p130
sg6
VTechno Time Radio
p131
ssS'427'
p132
(dp133
g4
V427
p134
sg6
VThessaloniki Dee Jay 89.4
p135
ssS'298'
p136
(dp137
g4
V298
p138
sg6
V\u0395\u03bb\u03bb\u03b7\u03bd\u03b9\u03ba\u03cc\u03c2 107.2
p139
ssS'299'
p140
(dp141
g14
S'mms://1045fm.live24.gr/1045fm/'
p142
sg4
V299
p143
sg6
V\u03a1\u03c5\u03b8\u03bc\u03cc\u03c2 104.5
p144
ssS'296'
p145
(dp146
g4
V296
p147
sg6
VDance Radio Chill Out
p148
ssS'297'
p149
(dp150
g4
V297
p151
sg6
V\u039b\u03ac\u03bc\u03c8\u03b7 Fm 105.7
p152
ssS'295'
p153
(dp154
g4
V295
p155
sg6
VDance Radio Global
p156
ssS'292'
p157
(dp158
g4
V292
p159
sg6
VI. Galaxy Sport Fm 90.8
p160
ssS'293'
p161
(dp162
S'url'
p163
S'http://stream2.proradio.gr:8004/erotokritos'
p164
sg4
V293
p165
sg6
V\u0395\u03c1\u03c9\u03c4\u03cc\u03ba\u03c1\u03b9\u03c4\u03bf\u03c2 87.9
p166
ssS'290'
p167
(dp168
g14
S'http://ice.motionfm.com:80/motiontwo_free'
p169
sg4
V290
p170
sg6
VSmooth Motion Fm
p171
ssS'291'
p172
(dp173
g14
S'http://85.17.75.142/echoes'
p174
sg4
V291
p175
sg6
VEchoes
p176
ssS'591'
p177
(dp178
g4
V591
p179
sg6
VPlus Amor
p180
ssS'590'
p181
(dp182
g14
S'http://eco.onestreaming.com:8257'
p183
sg4
V590
p184
sg6
VRadio Star 95,5
p185
ssS'1085'
p186
(dp187
g14
S'http://shoutcast.24radio.gr:8022'
p188
sg4
V1085
p189
sg6
VHot Rockin Radio
p190
ssS'592'
p191
(dp192
g4
V592
p193
sg6
VPlus Dance
p194
ssS'199'
p195
(dp196
g14
S'http://live.onestreaming.com/lihnari'
p197
sg4
V199
p198
sg6
V\u039b\u03c5\u03c7\u03bd\u03ac\u03c1\u03b9 91.4
p199
ssS'594'
p200
(dp201
g4
V594
p202
sg6
VOxygen Fm 95.3
p203
ssS'597'
p204
(dp205
g14
S'http://live.onestreaming.com/blacklemon'
p206
sg4
V597
p207
sg6
VBlack Lemon Radio 
p208
ssS'596'
p209
(dp210
g4
V596
p211
sg6
VRadio Project
p212
ssS'195'
p213
(dp214
g14
S'http://s6.onweb.gr:8012'
p215
sg4
V195
p216
sg6
VTop FM 106.4
p217
ssS'194'
p218
(dp219
g4
V194
p220
sg6
V\u03a1\u03ac\u03b4\u03b9\u03bf \u03a0\u03ac\u03c4\u03c1\u03b1 106.5
p221
ssS'197'
p222
(dp223
S'url'
p224
S'http://s3.onweb.gr:8888'
p225
sg4
V197
p226
sg6
VLoud 88.8
p227
ssS'196'
p228
(dp229
g4
V196
p230
sg6
V\u03a1\u03ac\u03b4\u03b9\u03bf \u03a3\u03c4\u03bf\u03c1\u03ba 89.8
p231
ssS'191'
p232
(dp233
g224
S'http://s4.onweb.gr:8468'
p234
sg4
V191
p235
sg6
V\u03a1\u03ac\u03b4\u03b9\u03bf \u039b\u03ad\u03c7\u03bf\u03b2\u03bf 97.1
p236
ssS'190'
p237
(dp238
g4
V190
p239
sg6
V\u03a1\u03ac\u03b4\u03b9\u03bf \u03a6\u03bb\u03ce\u03c1\u03b9\u03bd\u03b1 101.5
p240
ssS'193'
p241
(dp242
g224
S'http://live.onestreaming.com/toxotis'
p243
sg4
V193
p244
sg6
V\u03a4\u03bf\u03be\u03cc\u03c4\u03b7\u03c2 Fm 96.3
p245
ssS'192'
p246
(dp247
g224
S'http://72.55.146.84:8002/'
p248
sg4
V192
p249
sg6
V\u0395\u03c1\u03c9\u03c4\u03b9\u03ba\u03cc\u03c2 99.5
p250
ssS'270'
p251
(dp252
g224
S'http://s3.onweb.gr:8046'
p253
sg4
V270
p254
sg6
VEnjoy Radio 107
p255
ssS'271'
p256
(dp257
g163
S'http://lampsi.serverroom.us:7668'
p258
sg4
V271
p259
sg6
V\u039b\u03ac\u03bc\u03c8\u03b7 103.3
p260
ssS'272'
p261
(dp262
g224
S'http://78.129.159.205:8048'
p263
sg4
V272
p264
sg6
V\u0399\u03b5\u03c1\u03ac \u039c\u03b7\u03c4\u03c1\u03cc\u03c0\u03bf\u03bb\u03b7 88.4
p265
ssS'273'
p266
(dp267
g224
S'mms://radiogamma.live24.gr/radiogamma'
p268
sg4
V273
p269
sg6
V\u03a1\u03ac\u03b4\u03b9\u03bf \u0393\u03ac\u03bc\u03bc\u03b1 94
p270
ssS'274'
p271
(dp272
g224
S'http://s1.onweb.gr:8898'
p273
sg4
V274
p274
sg6
V\u039d\u03b5\u03bc\u03ad\u03b1 Radio 107.6
p275
ssS'275'
p276
(dp277
g224
S'http://s6.onweb.gr:8008'
p278
sg4
V275
p279
sg6
VJust 96.4
p280
ssS'276'
p281
(dp282
g224
S'http://s3.onweb.gr:8510'
p283
sg4
V276
p284
sg6
V\u039b\u03bf\u03c5\u03c4\u03c1\u03ac\u03ba\u03b9 Fm 96.9
p285
ssS'277'
p286
(dp287
g224
S'http://s3.onweb.gr:8472/'
p288
sg4
V277
p289
sg6
VL Radio 87.5
p290
ssS'278'
p291
(dp292
g224
S'http://s1.onweb.gr:8828'
p293
sg4
V278
p294
sg6
V\u03a1\u03ac\u03b4\u03b9\u03bf \u0395\u03bd\u03ad\u03c1\u03b3\u03b5\u03b9\u03b1 106.4
p295
ssS'279'
p296
(dp297
g224
S'http://stream.kiss922.gr:59922/'
p298
sg4
V279
p299
sg6
VKiss 93.8
p300
ssS'738'
p301
(dp302
g4
V738
p303
sg6
V\u0397\u03c7\u03cc\u03c1\u03b1\u03bc\u03b1 93.3
p304
ssS'524'
p305
(dp306
g4
V524
p307
sg6
VRussian Wave 105.6
p308
ssS'525'
p309
(dp310
g4
V525
p311
sg6
VPost Rocking
p312
ssS'526'
p313
(dp314
g4
V526
p315
sg6
V\u03a3\u03ba\u03ac\u03ca \u0391\u03c1\u03b3\u03bf\u03bb\u03af\u03b4\u03b1\u03c2 102.3
p316
ssS'527'
p317
(dp318
g4
V527
p319
sg6
VNoise Fm 100.5
p320
ssS'520'
p321
(dp322
g163
S'http://ice.onestreaming.com/arionkids'
p323
sg4
V520
p324
sg6
VArion Kids
p325
ssS'521'
p326
(dp327
g224
S'http://eco.onestreaming.com:8266'
p328
sg4
V521
p329
sg6
V\u0397\u03c7\u03ce Radio 102.7
p330
ssS'523'
p331
(dp332
g224
S'http://live.onestreaming.com/orthodoxia'
p333
sg4
V523
p334
sg6
V\u039f\u03c1\u03b8\u03bf\u03b4\u03bf\u03be\u03af\u03b1 \u03ba\u03b1\u03b9 \u03a0\u03b1\u03c1\u03ac\u03b4\u03bf\u03c3\u03b7
p335
ssS'1014'
p336
(dp337
g224
S'http://188.138.19.96:8030/'
p338
sg4
V1014
p339
sg6
VDeejay Fm 107.3
p340
ssS'528'
p341
(dp342
g4
V528
p343
sg6
VGreekzlive Radio
p344
ssS'529'
p345
(dp346
g224
S'http://shoutcast.24radio.gr:8010/'
p347
sg4
V529
p348
sg6
VNetcruise Radio
p349
ssS'449'
p350
(dp351
g4
V449
p352
sg6
VCocktail Radio
p353
ssS'448'
p354
(dp355
g224
S'http://eco.onestreaming.com:8005/stream'
p356
sg4
V448
p357
sg6
VLoco Radio
p358
ssS'443'
p359
(dp360
g224
S'http://www.tuningradio.gr:8000/'
p361
sg4
V443
p362
sg6
VTuning Radio
p363
ssS'442'
p364
(dp365
g4
V442
p366
sg6
V\u03a1\u03ac\u03b4\u03b9\u03bf \u03a6\u03ac\u03c3\u03b7
p367
ssS'441'
p368
(dp369
g4
V441
p370
sg6
VHot Station
p371
ssS'440'
p372
(dp373
g4
V440
p374
sg6
VActive Radio
p375
ssS'447'
p376
(dp377
g4
V447
p378
sg6
VMango Radio
p379
ssS'446'
p380
(dp381
S'url'
p382
S'http://live.waveradio.gr:8000/listen'
p383
sg4
V446
p384
sg6
VWave Radio
p385
ssS'445'
p386
(dp387
g4
V445
p388
sg6
VNotes Radio
p389
ssS'444'
p390
(dp391
g4
V444
p392
sg6
VBlue Radio
p393
ssS'108'
p394
(dp395
g4
V108
p396
sg6
VEpirusMusic
p397
ssS'109'
p398
(dp399
g4
V109
p400
sg6
VBlu Radio
p401
ssS'102'
p402
(dp403
g4
V102
p404
sg6
VTrip Radio
p405
ssS'103'
p406
(dp407
g382
S'http://live.onestreaming.com/deltaradio'
p408
sg4
V103
p409
sg6
VIEK Delta Radio
p410
ssS'100'
p411
(dp412
g4
V100
p413
sg6
VEvia Channel 94.2
p414
ssS'101'
p415
(dp416
g4
V101
p417
sg6
VStudio E 103
p418
ssS'107'
p419
(dp420
g382
S'http://s4.onweb.gr:8062/'
p421
sg4
V107
p422
sg6
V\u039e\u03b5\u03bd\u03cd\u03c7\u03c4\u03b7\u03c2
p423
ssS'104'
p424
(dp425
g4
V104
p426
sg6
V1431 AM
p427
ssS'105'
p428
(dp429
g382
S'http://live.onestreaming.com/bestmytilini'
p430
sg4
V105
p431
sg6
VBest Fm 98.1
p432
ssS'39'
p433
(dp434
g382
S'http://parea104.live24.gr/parea104'
p435
sg4
V39
p436
sg6
V\u03a0\u03b1\u03c1\u03ad\u03b1 104
p437
ssS'38'
p438
(dp439
g382
S'mms://johngreek.live24.gr/polis2795'
p440
sg4
V38
p441
sg6
VNRJ Radio 88.6
p442
ssS'907'
p443
(dp444
g4
V907
p445
sg6
VRadio Digital
p446
ssS'904'
p447
(dp448
g163
S'http://shoutcast.24radio.gr:8026/'
p449
sg4
V904
p450
sg6
VSuper Radio
p451
ssS'33'
p452
(dp453
g382
S'mms://nitro.live24.gr/nitro4555'
p454
sg4
V33
p455
sg6
VNitro 102.5
p456
ssS'32'
p457
(dp458
g382
S'mms://kissfm.live24.gr/kiss2111'
p459
sg4
V32
p460
sg6
VKiss 92.9
p461
ssS'31'
p462
(dp463
g382
S'mms://best.live24.gr/best1222'
p464
sg4
V31
p465
sg6
VBest 92.6
p466
ssS'30'
p467
(dp468
g382
S'http://loveradio.live24.gr/loveradio-1000'
p469
sg4
V30
p470
sg6
VLove Radio 97.5
p471
ssS'37'
p472
(dp473
g382
S'http://dromos898.live24.gr/dromos898'
p474
sg4
V37
p475
sg6
V\u0394\u03c1\u03cc\u03bc\u03bf\u03c2 Fm 89.8
p476
ssS'36'
p477
(dp478
g4
V36
p479
sg6
VRadio 9 98.9
p480
ssS'35'
p481
(dp482
g4
V35
p483
sg6
VHi Jack
p484
ssS'34'
p485
(dp486
g382
S'mms://sfera.live24.gr/sfera4132'
p487
sg4
V34
p488
sg6
VSfera 102.2
p489
ssS'641'
p490
(dp491
g4
V641
p492
sg6
VCosmos Fm 103.8
p493
ssS'640'
p494
(dp495
g382
S'http://s4.onweb.gr:8442/'
p496
sg4
V640
p497
sg6
VRadio Amore
p498
ssS'643'
p499
(dp500
g382
S'http://174.36.237.66:8112/'
p501
sg4
V643
p502
sg6
VEnergy Fm 101
p503
ssS'645'
p504
(dp505
g4
V645
p506
sg6
VPrime Radio 100.3
p507
ssS'644'
p508
(dp509
g382
S'http://s3.onweb.gr:8474/'
p510
sg4
V644
p511
sg6
VFresh Radio
p512
ssS'88'
p513
(dp514
g4
V88
p515
sg6
V\u03a3 \u03b1\u03b3\u03b1\u03c0\u03ce 96.1
p516
ssS'646'
p517
(dp518
g382
S'http://s5.onweb.gr:8504/'
p519
sg4
V646
p520
sg6
V\u03a6\u03ac\u03c1\u03bf\u03c2 Fm 104
p521
ssS'649'
p522
(dp523
g382
S'http://eco.onestreaming.com:8294'
p524
sg4
V649
p525
sg6
VPower Fm 92.6
p526
ssS'648'
p527
(dp528
g4
V648
p529
sg6
VView Fm 103.9
p530
ssS'435'
p531
(dp532
g4
V435
p533
sg6
VCoolfm.eu
p534
ssS'432'
p535
(dp536
g163
S'http://174.36.237.66:8012'
p537
sg4
V432
p538
sg6
VSplash Radio
p539
ssS'433'
p540
(dp541
g4
V433
p542
sg6
V\u0394\u03b9\u03b1\u03b8\u03b5\u03c4\u03b9\u03ba\u03ae
p543
ssS'1002'
p544
(dp545
g4
V1002
p546
sg6
V\u03a1\u03c5\u03b8\u03bc\u03cc\u03c2 Fm12 93.5
p547
ssS'339'
p548
(dp549
g382
S'http://live.skyradio.gr:9920'
p550
sg4
V339
p551
sg6
VSky Radio 99.2
p552
ssS'338'
p553
(dp554
g382
S'http://94.23.159.115:8088/'
p555
sg4
V338
p556
sg6
VSafari 104.7
p557
ssS'335'
p558
(dp559
g382
S'http://eco.onestreaming.com:8070'
p560
sg4
V335
p561
sg6
V\u0392\u03ae\u03bc\u03b1 Fm 90.1
p562
ssS'334'
p563
(dp564
g4
V334
p565
sg6
V\u039c\u03cd\u03b8\u03bf\u03c2 93.4
p566
ssS'337'
p567
(dp568
g4
V337
p569
sg6
V\u03a1\u03ac\u03b4\u03b9\u03bf \u0398\u03b5\u03c3\u03c0\u03c1\u03c9\u03c4\u03af\u03b1 97.1
p570
ssS'336'
p571
(dp572
g4
V336
p573
sg6
V\u03a1\u03ac\u03b4\u03b9\u03bf \u03a0\u03c1\u03ad\u03b2\u03b5\u03b6\u03b1 93
p574
ssS'331'
p575
(dp576
g382
S'http://s2.onweb.gr:8632'
p577
sg4
V331
p578
sg6
V\u0391\u03ba\u03c4\u03af\u03bd\u03b1 Fm 107.6
p579
ssS'330'
p580
(dp581
g382
S'mms://radio.istoikona.com/cosmos'
p582
sg4
V330
p583
sg6
VCosmos Radio 95.2
p584
ssS'332'
p585
(dp586
g4
V332
p587
sg6
VRadio Blackman 103.1
p588
ssS'89'
p589
(dp590
g382
S'http://shout.streamwithq.gr:4144/'
p591
sg4
V89
p592
sg6
VStar 97.1
p593
ssS'558'
p594
(dp595
g4
V558
p596
sg6
VXLR8 Net
p597
ssS'344'
p598
(dp599
g382
S'http://78.129.143.157:8000/starfm'
p600
sg4
V344
p601
sg6
VStar Fm 97.1
p602
ssS'345'
p603
(dp604
g382
S'http://live.onestreaming.com/karpenisi'
p605
sg4
V345
p606
sg6
V\u03a1\u03ac\u03b4\u03b9\u03bf \u039a\u03b1\u03c1\u03c0\u03b5\u03bd\u03ae\u03c3\u03b9 97.5
p607
ssS'748'
p608
(dp609
g382
S'http://nyc04.egihosting.com/458378'
p610
sg4
V748
p611
sg6
VCity International 106.1
p612
ssS'98'
p613
(dp614
g4
V98
p615
sg6
VGnet Radio
p616
ssS'91'
p617
(dp618
g382
S'http://sc2.greekstream.net:4008'
p619
sg4
V91
p620
sg6
V\u03a3\u03c4\u03b1\u03b8\u03bc\u03cc\u03c2
p621
ssS'90'
p622
(dp623
g382
S'http://stream.greekradios.gr:9060'
p624
sg4
V90
p625
sg6
VZoo Radio 90.8
p626
ssS'93'
p627
(dp628
g4
V93
p629
sg6
VGrassagoogoo
p630
ssS'92'
p631
(dp632
g4
V92
p633
sg6
V\u039a\u03bf\u03c3\u03bc\u03bf\u03c1\u03ac\u03b4\u03b9\u03bf 95.1
p634
ssS'95'
p635
(dp636
g4
V95
p637
sg6
VRadio Jukebox
p638
ssS'94'
p639
(dp640
g4
V94
p641
sg6
VRock Machine
p642
ssS'97'
p643
(dp644
g4
V97
p645
sg6
VAlpha 100.5
p646
ssS'96'
p647
(dp648
g382
S'http://webradio.musicheaven.gr:9850'
p649
sg4
V96
p650
sg6
VMusic Heaven
p651
ssS'349'
p652
(dp653
g382
S'http://s1.onweb.gr:8860'
p654
sg4
V349
p655
sg6
V\u03a3\u03c4\u03c5\u03bb\u03af\u03b4\u03b1 Fm 94.1
p656
ssS'153'
p657
(dp658
g4
V153
p659
sg6
VRed 96.3
p660
ssS'740'
p661
(dp662
g382
S'http://85.17.30.90:8044/'
p663
sg4
V740
p664
sg6
VStar Fm 95.7
p665
ssS'742'
p666
(dp667
g4
V742
p668
sg6
V\u03a1\u03ac\u03b4\u03b9\u03bf \u0391\u03bc\u03c6\u03b9\u03bb\u03bf\u03c7\u03af\u03b1 104.5
p669
ssS'743'
p670
(dp671
g382
S'http://eco.onestreaming.com:8286'
p672
sg4
V743
p673
sg6
V\u039b\u03ac\u03ba\u03ba\u03b1 \u03a3\u03bf\u03cd\u03bb\u03b9 Radio
p674
ssS'559'
p675
(dp676
g382
S'http://208.43.115.44:9888/'
p677
sg4
V559
p678
sg6
V\u0395\u03bb\u03bb\u03b7\u03bd\u03b9\u03ba\u03cc \u03a6\u03b1\u03b9\u03bd\u03cc\u03bc\u03b5\u03bd\u03bf
p679
ssS'745'
p680
(dp681
g4
V745
p682
sg6
VMoreradio
p683
ssS'555'
p684
(dp685
g382
S'http://72.55.146.84:8004/'
p686
sg4
V555
p687
sg6
VDiva Fm 91.6
p688
ssS'554'
p689
(dp690
g382
S'http://s7.onweb.gr:8552/'
p691
sg4
V554
p692
sg6
VHot 101.2
p693
ssS'556'
p694
(dp695
g4
V556
p696
sg6
VLemon Radio
p697
ssS'551'
p698
(dp699
g382
S'http://live.onestreaming.com/radiosamos'
p700
sg4
V551
p701
sg6
V\u03a1\u03ac\u03b4\u03b9\u03bf \u03a3\u03ac\u03bc\u03bf\u03c2 102
p702
ssS'550'
p703
(dp704
g4
V550
p705
sg6
VHuts Radio
p706
ssS'553'
p707
(dp708
g4
V553
p709
sg6
VStudio Fm 1 105.4
p710
ssS'552'
p711
(dp712
g382
S'http://golive.onestreaming.com/astraradio'
p713
sg4
V552
p714
sg6
VAstra Radio 93.2
p715
ssS'238'
p716
(dp717
g382
S'http://85.17.30.90:9986'
p718
sg4
V238
p719
sg6
V\u0397\u03c7\u03cc\u03c1\u03b1\u03bc\u03b1 100.8
p720
ssS'239'
p721
(dp722
g382
S'http://s1.onweb.gr:8052'
p723
sg4
V239
p724
sg6
V\u03a0\u03c1\u03ce\u03c4\u03bf Fm 99
p725
ssS'234'
p726
(dp727
g4
V234
p728
sg6
V\u03a0\u03cc\u03bb\u03b9\u03c2 99.4
p729
ssS'235'
p730
(dp731
g382
S'http://s1.onweb.gr:8824'
p732
sg4
V235
p733
sg6
V\u03a1\u03ac\u03b4\u03b9\u03bf 2 97.1
p734
ssS'236'
p735
(dp736
g382
S'http://live.onestreaming.com/radiovelika'
p737
sg4
V236
p738
sg6
VRadio Velika 92.2
p739
ssS'237'
p740
(dp741
g4
V237
p742
sg6
VBest Radio 93.9
p743
ssS'230'
p744
(dp745
g4
V230
p746
sg6
V\u03a1\u03ac\u03b4\u03b9\u03bf \u03a6\u03ac\u03c1\u03bf\u03c2 91.8
p747
ssS'231'
p748
(dp749
g4
V231
p750
sg6
VHeart Fm 105.1
p751
ssS'232'
p752
(dp753
g4
V232
p754
sg6
VAstra 97.3
p755
ssS'233'
p756
(dp757
g4
V233
p758
sg6
V\u03a1\u03ac\u03b4\u03b9\u03bf \u039a\u03b9\u03b2\u03c9\u03c4\u03cc\u03c2 87.8
p759
ssS'1055'
p760
(dp761
g382
S'http://eco.onestreaming.com:8014/live'
p762
sg4
V1055
p763
sg6
VBleep Radio
p764
ssS'1059'
p765
(dp766
g382
S'http://188.40.131.14:6004/'
p767
sg4
V1059
p768
sg6
VCosi Radio
p769
ssS'1193'
p770
(dp771
S'url'
p772
S'http://shoutcast.24radio.gr:8006/'
p773
sS'id'
p774
V1193
p775
sS'title'
p776
V\u03a1\u03ac\u03b4\u03b9\u03bf \u039a\u03b1\u03bd\u03af\u03b2\u03b1\u03bb\u03bf\u03c2
p777
ssS'155'
p778
(dp779
g382
S'mms://a1758.l3271933757.c32719.g.lm.akamaistream.net/D/1758/32719/v0001/reflector:33757'
p780
sg4
V155
p781
sg6
V102 Fm
p782
ssS'146'
p783
(dp784
g382
S'mms://radio.istoikona.com/starfmcy'
p785
sg4
V146
p786
sg6
VStar Fm 93.7
p787
ssS'147'
p788
(dp789
g382
S'mms://radio.istoikona.com/rockfm'
p790
sg4
V147
p791
sg6
VRock Fm 98.5
p792
ssS'144'
p793
(dp794
g4
V144
p795
sg6
VMusicNetCy \u0388\u03bd\u03c4\u03b5\u03c7\u03bd\u03bf
p796
ssS'145'
p797
(dp798
g4
V145
p799
sg6
VKiss 89.0
p800
ssS'142'
p801
(dp802
g382
S'mms://radio.istoikona.com/sport1'
p803
sg4
V142
p804
sg6
VSports 1 93.7
p805
ssS'143'
p806
(dp807
g4
V143
p808
sg6
VChoice Fm 104.3
p809
ssS'140'
p810
(dp811
g382
S'mms://radio.istoikona.com/kanali61'
p812
sg4
V140
p813
sg6
V\u039a\u03b1\u03bd\u03ac\u03bb\u03b9 6 106
p814
ssS'141'
p815
(dp816
g382
S'mms://live.istoikona.com/astra'
p817
sg4
V141
p818
sg6
VAstra 92.8
p819
ssS'612'
p820
(dp821
g382
S'http://s3.onweb.gr:8536/'
p822
sg4
V612
p823
sg6
V\u0391\u03c1\u03b3\u03bf\u03c3\u03b1\u03c1\u03c9\u03bd\u03b9\u03ba\u03cc\u03c2 106.4
p824
ssS'613'
p825
(dp826
g4
V613
p827
sg6
VLa Radio
p828
ssS'610'
p829
(dp830
g382
S'http://www.streamyourdream.org/djlarisa'
p831
sg4
V610
p832
sg6
VLarissa Dee Jay 101.8
p833
ssS'611'
p834
(dp835
g4
V611
p836
sg6
VParanoise Radio
p837
ssS'616'
p838
(dp839
g382
S'http://109.169.26.78:9294'
p840
sg4
V616
p841
sg6
VMood Radio
p842
ssS'617'
p843
(dp844
g4
V617
p845
sg6
VSeek Fm
p846
ssS'614'
p847
(dp848
g382
S'http://radio.mythosfm.gr:8010'
p849
sg4
V614
p850
sg6
V\u039c\u03cd\u03b8\u03bf\u03c2 Fm 90.6
p851
ssS'149'
p852
(dp853
g382
S'mms://a1113.l3271935112.c32719.g.lm.akamaistream.net/D/1113/32719/v0001/reflector:35112'
p854
sg4
V149
p855
sg6
V\u0395\u03a1\u0391 \u03a3\u03c0\u03bf\u03c1 101.8
p856
ssS'510'
p857
(dp858
g382
S'http://shoutcast.24radio.gr:8062/'
p859
sg4
V510
p860
sg6
V\u03a1\u03ac\u03b4\u03b9\u03bf \u039a\u03b1\u03c3\u03c4\u03bf\u03c1\u03b9\u03ac 93 Fm
p861
ssS'513'
p862
(dp863
g382
S'http://188.40.131.14:8004'
p864
sg4
V513
p865
sg6
VSpace Fm 107
p866
ssS'946'
p867
(dp868
g4
V946
p869
sg6
VMadbox Radio
p870
ssS'515'
p871
(dp872
g382
S'http://eco.onestreaming.com:8168'
p873
sg4
V515
p874
sg6
VRadio In \u039b\u03b1\u03ca\u03ba\u03ac
p875
ssS'944'
p876
(dp877
g4
V944
p878
sg6
VEiva Radio
p879
ssS'945'
p880
(dp881
g4
V945
p882
sg6
VFly Fm
p883
ssS'943'
p884
(dp885
g4
V943
p886
sg6
VEnallax Radio
p887
ssS'940'
p888
(dp889
g4
V940
p890
sg6
VRadio Mostra
p891
ssS'941'
p892
(dp893
g382
S'http://live.onestreaming.com/aeolos'
p894
sg4
V941
p895
sg6
V\u03a1\u03ac\u03b4\u03b9\u03bf \u0391\u03af\u03bf\u03bb\u03bf\u03c2 92.8
p896
ssS'689'
p897
(dp898
g4
V689
p899
sg6
VStatus Radio.net
p900
ssS'1001'
p901
(dp902
g382
S'http://shout.streamwithq.gr:4104/'
p903
sg4
V1001
p904
sg6
VAntenna Fm12 94.4
p905
ssS'685'
p906
(dp907
g382
S'http://live.onestreaming.com/koziani'
p908
sg4
V685
p909
sg6
V\u03a1\u03ac\u03b4\u03b9\u03bf \u039a\u03bf\u03b6\u03b9\u03ac\u03bd\u03b7
p910
ssS'684'
p911
(dp912
g4
V684
p913
sg6
VDerti 104.9
p914
ssS'687'
p915
(dp916
g382
S'http://live.onestreaming.com/radioionia'
p917
sg4
V687
p918
sg6
V\u03a1\u03ac\u03b4\u03b9\u03bf \u0399\u03c9\u03bd\u03af\u03b1 95.2
p919
ssS'686'
p920
(dp921
g382
S'http://s1.onweb.gr:8852/'
p922
sg4
V686
p923
sg6
V\u039a\u03c1\u03b7\u03c4\u03b9\u03ba\u03cc\u03c2 Fm 88.7
p924
ssS'681'
p925
(dp926
g382
S'http://s2.onweb.gr:8602/'
p927
sg4
V681
p928
sg6
V\u039a\u03bb\u03af\u03ba Fm 106.2
p929
ssS'680'
p930
(dp931
g382
S'http://live.onestreaming.com/super88'
p932
sg4
V680
p933
sg6
VSuper Radio 88
p934
ssS'683'
p935
(dp936
g4
V683
p937
sg6
V\u03a3\u03b1\u03bd\u03c4\u03bf\u03c1\u03af\u03bd\u03b7 106.4
p938
ssS'682'
p939
(dp940
g4
V682
p941
sg6
VTi Amo Fm 102.7
p942
ssS'133'
p943
(dp944
g4
V133
p945
sg6
VLove Radio 100.7
p946
ssS'132'
p947
(dp948
g382
S'http://live.onestreaming.com/mixfm'
p949
sg4
V132
p950
sg6
VMix Fm 102.3
p951
ssS'131'
p952
(dp953
g4
V131
p954
sg6
VEnergy 107.6
p955
ssS'130'
p956
(dp957
g382
S'mms://live.istoikona.com/sferacy'
p958
sg4
V130
p959
sg6
VSfera 96.8
p960
ssS'498'
p961
(dp962
g382
S'http://www.streamyourdream.org/djvolos'
p963
sg4
V498
p964
sg6
VVolos Dee Jay 90.7
p965
ssS'136'
p966
(dp967
g4
V136
p968
sg6
VRadio Dee Jay 93.6
p969
ssS'135'
p970
(dp971
g4
V135
p972
sg6
VSuper Sport Fm 104
p973
ssS'134'
p974
(dp975
g382
S'http://golive.onestreaming.com/radioproto'
p976
sg4
V134
p977
sg6
V\u03a1\u03ac\u03b4\u03b9\u03bf \u03a0\u03c1\u03ce\u03c4\u03bf 99.3
p978
ssS'494'
p979
(dp980
g382
S'http://208.43.115.44:8070'
p981
sg4
V494
p982
sg6
V\u0397\u03c7\u03cc\u03c1\u03b1\u03bc\u03b1
p983
ssS'495'
p984
(dp985
g4
V495
p986
sg6
VBalloni Radio
p987
ssS'139'
p988
(dp989
g382
S'mms://live.istoikona.com/topfmcy'
p990
sg4
V139
p991
sg6
VTop Fm 99.9
p992
ssS'497'
p993
(dp994
g382
S'http://drs953.live24.gr/drs953'
p995
sg4
V497
p996
sg6
VDRS 95.3 Disco Radio
p997
ssS'490'
p998
(dp999
g4
V490
p1000
sg6
V\u039a\u03b1\u03c3\u03c4\u03ad\u03bb\u03bb\u03b9\u03b1 Radio
p1001
ssS'491'
p1002
(dp1003
g4
V491
p1004
sg6
VTEI Radio Digital
p1005
ssS'492'
p1006
(dp1007
g4
V492
p1008
sg6
V\u0394\u03c5\u03c4\u03b9\u03ba\u03ac Fm 96.1
p1009
ssS'493'
p1010
(dp1011
g382
S'http://s3.onweb.gr:8524/'
p1012
sg4
V493
p1013
sg6
VInternational Fm 107.5
p1014
ssS'24'
p1015
(dp1016
g382
S'mms://galaxy.live24.gr/galaxy9292'
p1017
sg4
V24
p1018
sg6
VGalaxy 92
p1019
ssS'25'
p1020
(dp1021
g382
S'http://realfm.live24.gr/realfm'
p1022
sg4
V25
p1023
sg6
VReal Fm 97.8
p1024
ssS'26'
p1025
(dp1026
g382
S'http://village883.live24.gr/village883'
p1027
sg4
V26
p1028
sg6
VV Fm 88.3
p1029
ssS'27'
p1030
(dp1031
g382
S'mms://derti.live24.gr/derty1000'
p1032
sg4
V27
p1033
sg6
VDerti 98.6
p1034
ssS'20'
p1035
(dp1036
g382
S'http://91.132.6.21:8001'
p1037
sg4
V20
p1038
sg6
VAthens Dee Jay 95.2
p1039
ssS'21'
p1040
(dp1041
g4
V21
p1042
sg6
VRock Fm 96.9
p1043
ssS'22'
p1044
(dp1045
g382
S'mms://orange.live24.gr/orange9320'
p1046
sg4
V22
p1047
sg6
VHappy 93.2
p1048
ssS'23'
p1049
(dp1050
g382
S'mms://enleuko.live24.gr/enleuko877'
p1051
sg4
V23
p1052
sg6
V\u0395\u03bd \u039b\u03b5\u03c5\u03ba\u03ce 87.7
p1053
ssS'28'
p1054
(dp1055
g382
S'http://diesi.live24.gr/diesi1013'
p1056
sg4
V28
p1057
sg6
V\u0394\u03af\u03b5\u03c3\u03b7 101.3
p1058
ssS'29'
p1059
(dp1060
g382
S'mms://sportfm.live24.gr/sportfm7712'
p1061
sg4
V29
p1062
sg6
VNova Sport Fm 94.6
p1063
ssS'407'
p1064
(dp1065
g4
V407
p1066
sg6
V\u03a1\u03ac\u03b4\u03b9\u03bf \u03a7\u03b5\u03c1\u03c3\u03cc\u03bd\u03b7\u03c3\u03c3\u03bf\u03c2 97.2
p1067
ssS'406'
p1068
(dp1069
g4
V406
p1070
sg6
VMetro 89.2
p1071
ssS'405'
p1072
(dp1073
g382
S'http://s3.onweb.gr:8438/'
p1074
sg4
V405
p1075
sg6
VMax 92.5
p1076
ssS'404'
p1077
(dp1078
g4
V404
p1079
sg6
VLava Fm 107.7
p1080
ssS'403'
p1081
(dp1082
g4
V403
p1083
sg6
V\u039d\u03ad\u03bf \u03a1\u03b1\u03b4\u03b9\u03cc\u03c6\u03c9\u03bd\u03bf 102.3
p1084
ssS'402'
p1085
(dp1086
g382
S'http://eco.onestreaming.com:8237/live'
p1087
sg4
V402
p1088
sg6
VRadio 98.4
p1089
ssS'401'
p1090
(dp1091
g382
S'http://s4.onweb.gr:8484'
p1092
sg4
V401
p1093
sg6
V\u039d\u03cc\u03c4\u03bf\u03c2 101.8
p1094
ssS'400'
p1095
(dp1096
g4
V400
p1097
sg6
V\u03a1\u03ac\u03b4\u03b9\u03bf \u039c\u03b1\u03c1\u03c4\u03c5\u03c1\u03af\u03b1 95.5
p1098
ssS'933'
p1099
(dp1100
g382
S'http://shoutcast.24radio.gr:8042/'
p1101
sg4
V933
p1102
sg6
VSfera 91
p1103
ssS'932'
p1104
(dp1105
g382
S'http://www.ghostradio.gr/world-128'
p1106
sg4
V932
p1107
sg6
VGhost Radio
p1108
ssS'409'
p1109
(dp1110
g4
V409
p1111
sg6
V\u0389\u03c7\u03bf\u03c2 Fm 94.2
p1112
ssS'934'
p1113
(dp1114
g163
S'http://174.36.237.66:8000/'
p1115
sg4
V934
p1116
sg6
VMusic Box Fm
p1117
ssS'379'
p1118
(dp1119
g4
V379
p1120
sg6
VSmooth Traxx
p1121
ssS'378'
p1122
(dp1123
g4
V378
p1124
sg6
V\u03a7\u03c1\u03b9\u03c3\u03c4\u03b9\u03b1\u03bd\u03b9\u03ba\u03ae \u0391\u03bb\u03ae\u03b8\u03b5\u03b9\u03b1 88.4
p1125
ssS'371'
p1126
(dp1127
g382
S'http://s1.onweb.gr:8008/'
p1128
sg4
V371
p1129
sg6
VAquarius 105.5
p1130
ssS'370'
p1131
(dp1132
g163
S'mmsh://a1006.l324939005.c3249.e.lm.akamaistream.net/D/1006/3249/v0001/reflector:39005'
p1133
sg4
V370
p1134
sg6
V\u0395\u03bd\u03b1\u03bb\u03bb\u03ac\u03be Fm 99.9
p1135
ssS'373'
p1136
(dp1137
g382
S'mms://m2.onweb.gr/amorefm'
p1138
sg4
V373
p1139
sg6
VAmore Fm 107.9
p1140
ssS'372'
p1141
(dp1142
g382
S'http://s4.onweb.gr:8080'
p1143
sg4
V372
p1144
sg6
V\u03a1\u03ac\u03b4\u03b9\u03bf \u03a5\u03c0\u03ac\u03c1\u03c7\u03c9 103.7
p1145
ssS'375'
p1146
(dp1147
g382
S'mms://radiofeeds1.mediabox.gr/attradio'
p1148
sg4
V375
p1149
sg6
VAttradio
p1150
ssS'820'
p1151
(dp1152
g382
S'http://shoutcast.24radio.gr:8066/'
p1153
sg4
V820
p1154
sg6
VBee Radio
p1155
ssS'377'
p1156
(dp1157
g382
S'http://live.onestreaming.com/spyridon'
p1158
sg4
V377
p1159
sg6
V\u0386\u03b3\u03b9\u03bf\u03c2 \u03a3\u03c0\u03c5\u03c1\u03af\u03b4\u03c9\u03bd 91.1
p1160
ssS'376'
p1161
(dp1162
g4
V376
p1163
sg6
VIEK Delta Radio Alt.
p1164
ssS'709'
p1165
(dp1166
g4
V709
p1167
sg6
VEnergy Corfu 95.7
p1168
ssS'704'
p1169
(dp1170
g382
S'http://eco.onestreaming.com:8226'
p1171
sg4
V704
p1172
sg6
VTop Fm 96.9
p1173
ssS'705'
p1174
(dp1175
g4
V705
p1176
sg6
VStatus Radio 94.2
p1177
ssS'706'
p1178
(dp1179
g382
S'http://live.onestreaming.com/novamusic'
p1180
sg4
V706
p1181
sg6
VNova Radio 93.1
p1182
ssS'707'
p1183
(dp1184
g382
S'http://46.4.82.77:9998/'
p1185
sg4
V707
p1186
sg6
V\u03a7\u03c9\u03c1\u03af\u03c2 \u038c\u03c1\u03b9\u03b1
p1187
ssS'700'
p1188
(dp1189
g4
V700
p1190
sg6
VHello Radio
p1191
ssS'701'
p1192
(dp1193
g4
V701
p1194
sg6
VRadio Hxos Maik
p1195
ssS'702'
p1196
(dp1197
g382
S'http://relay4.mindradio.gr:80/live'
p1198
sg4
V702
p1199
sg6
VMind Radio
p1200
ssS'703'
p1201
(dp1202
g382
S'http://159.253.149.12:8094'
p1203
sg4
V703
p1204
sg6
VTropic Radio
p1205
ssS'393'
p1206
(dp1207
g382
S'http://s9.onweb.gr:8044/'
p1208
sg4
V393
p1209
sg6
VMad 95
p1210
ssS'392'
p1211
(dp1212
g382
S'http://s9.onweb.gr:8802'
p1213
sg4
V392
p1214
sg6
V\u03a1\u03ac\u03b4\u03b9\u03bf \u039b\u03b1\u03c3\u03ae\u03b8\u03b9 92.3
p1215
ssS'391'
p1216
(dp1217
g382
S'http://live.onestreaming.com/planetradio'
p1218
sg4
V391
p1219
sg6
VPlanet Radio 90.6
p1220
ssS'390'
p1221
(dp1222
g382
S'http://s4.onweb.gr:8466/'
p1223
sg4
V390
p1224
sg6
VRadio Melody 88
p1225
ssS'397'
p1226
(dp1227
g4
V397
p1228
sg6
V\u03a1\u03ac\u03b4\u03b9\u03bf \u039a\u03c1\u03ae\u03c4\u03b7 101.5
p1229
ssS'396'
p1230
(dp1231
g382
S'http://live.onestreaming.com/hxofm'
p1232
sg4
V396
p1233
sg6
V\u0397\u03c7\u03ce Fm 99.8
p1234
ssS'395'
p1235
(dp1236
g4
V395
p1237
sg6
V\u0394\u03af\u03b1\u03c5\u03bb\u03bf\u03c2 96.9
p1238
ssS'394'
p1239
(dp1240
g4
V394
p1241
sg6
VAtlantis Fm 105.2
p1242
ssS'82'
p1243
(dp1244
g382
S'http://imagine.1stepstream.com:8000/live'
p1245
sg4
V82
p1246
sg6
VImagine 89.7
p1247
ssS'83'
p1248
(dp1249
g4
V83
p1250
sg6
VVelvet 96.8
p1251
ssS'80'
p1252
(dp1253
g4
V80
p1254
sg6
VFm 100
p1255
ssS'398'
p1256
(dp1257
g4
V398
p1258
sg6
V\u039b\u03b1\u03c4\u03ce Fm 103.3
p1259
ssS'86'
p1260
(dp1261
g382
S'http://stream.greekradios.gr:4000'
p1262
sg4
V86
p1263
sg6
VRainbow 89
p1264
ssS'87'
p1265
(dp1266
g382
S'http://83.133.127.198:9096'
p1267
sg4
V87
p1268
sg6
VRock Radio 104.7
p1269
ssS'84'
p1270
(dp1271
g4
V84
p1272
sg6
V\u03a0\u03b1\u03bb\u03bc\u03cc\u03c2 96.5
p1273
ssS'85'
p1274
(dp1275
g4
V85
p1276
sg6
V\u038c\u03bb\u03b1 Fm 91.4
p1277
ssS'797'
p1278
(dp1279
g4
V797
p1280
sg6
VGiga Fm 105.4
p1281
ssS'794'
p1282
(dp1283
g4
V794
p1284
sg6
VRadio Mora
p1285
ssS'793'
p1286
(dp1287
g4
V793
p1288
sg6
V\u03a1\u03ac\u03b4\u03b9\u03bf \u0388\u03bd\u03c4\u03b5\u03c7\u03bd\u03bf\u03c2
p1289
ssS'791'
p1290
(dp1291
g382
S'http://shoutcast.24radio.gr:8056/'
p1292
sg4
V791
p1293
sg6
V\u03a1\u03ac\u03b4\u03b9\u03bf \u039c\u03ad\u03bb\u03b9 106
p1294
ssS'790'
p1295
(dp1296
g382
S'http://75.75.226.26:7099'
p1297
sg4
V790
p1298
sg6
VBlue Station
p1299
ssS'799'
p1300
(dp1301
g382
S'http://s8.onweb.gr:8706'
p1302
sg4
V799
p1303
sg6
VFresh 92.9
p1304
ssS'798'
p1305
(dp1306
g4
V798
p1307
sg6
VSchool Radio Ekali
p1308
ssS'170'
p1309
(dp1310
g4
V170
p1311
sg6
VDance Radio Deep House
p1312
ssS'586'
p1313
(dp1314
g382
S'http://ams02.egihosting.com/6020'
p1315
sg4
V586
p1316
sg6
VMelody 96.8
p1317
ssS'587'
p1318
(dp1319
g382
S'http://s6.onweb.gr:8046'
p1320
sg4
V587
p1321
sg6
VRadio Cafe 96.7
p1322
ssS'584'
p1323
(dp1324
g382
S'http://85.25.171.129:6000'
p1325
sg4
V584
p1326
sg6
V\u03a1\u03ac\u03b4\u03b9\u03bf \u0391\u03af\u03b3\u03b9\u03bf 99.2
p1327
ssS'585'
p1328
(dp1329
g4
V585
p1330
sg6
V\u03a1\u03ac\u03b4\u03b9\u03bf \u0395\u03bd\u03b7\u03bc\u03ad\u03c1\u03c9\u03c3\u03b7 92.2
p1331
ssS'582'
p1332
(dp1333
g382
S'http://78.46.46.214:7048'
p1334
sg4
V582
p1335
sg6
VMusic Art Club
p1336
ssS'583'
p1337
(dp1338
g4
V583
p1339
sg6
VAir 104.4
p1340
ssS'580'
p1341
(dp1342
g382
S'http://live.onestreaming.com/mixgrevena'
p1343
sg4
V580
p1344
sg6
VMix Fm 102.2
p1345
ssS'581'
p1346
(dp1347
g4
V581
p1348
sg6
VAntenna Star 105.9
p1349
ssS'588'
p1350
(dp1351
g382
S'http://s4.onweb.gr:8414'
p1352
sg4
V588
p1353
sg6
VMedia 92
p1354
ssS'589'
p1355
(dp1356
g382
S'http://s1.onweb.gr:8410/'
p1357
sg4
V589
p1358
sg6
VVenus Radio 99.3
p1359
ssS'245'
p1360
(dp1361
g4
V245
p1362
sg6
V\u039e\u03ac\u03bd\u03b8\u03b7 Dee Jay 90.6
p1363
ssS'244'
p1364
(dp1365
g382
S'http://s3.onweb.gr:8520'
p1366
sg4
V244
p1367
sg6
V\u03a1/\u03a3 \u0391\u03b3\u03b9\u03ac\u03c2 94.2
p1368
ssS'247'
p1369
(dp1370
g382
S'http://62.212.82.142:8033'
p1371
sg4
V247
p1372
sg6
VLive Fm 89.6
p1373
ssS'246'
p1374
(dp1375
g4
V246
p1376
sg6
V\u03a3\u03bf\u03ba Fm 104.8
p1377
ssS'241'
p1378
(dp1379
g4
V241
p1380
sg6
V\u0391\u03c1\u03b9\u03c3\u03c4\u03b5\u03c1\u03ac \u03a3\u03c4\u03b1 Fm 90.1
p1381
ssS'148'
p1382
(dp1383
g4
V148
p1384
sg6
V\u03a1\u03ac\u03b4\u03b9\u03bf \u03a0\u03ac\u03c6\u03bf\u03c2 93.7
p1385
ssS'243'
p1386
(dp1387
g382
S'http://eco.onestreaming.com:8103'
p1388
sg4
V243
p1389
sg6
V\u03a1/\u03a3 \u039a\u03b9\u03c3\u03c3\u03ac\u03b2\u03bf\u03c5 97.8
p1390
ssS'242'
p1391
(dp1392
g382
S'http://m1.onweb.gr/palace'
p1393
sg4
V242
p1394
sg6
VPalace 91.4
p1395
ssS'615'
p1396
(dp1397
g4
V615
p1398
sg6
VUp Fm 92.5
p1399
ssS'249'
p1400
(dp1401
g382
S'http://hotsoft.ws:8086/magicfm'
p1402
sg4
V249
p1403
sg6
VMagic Fm 98.2
p1404
ssS'248'
p1405
(dp1406
g4
V248
p1407
sg6
VKosmos Fm 100
p1408
ssS'519'
p1409
(dp1410
g382
S'http://188.40.131.14:8068/'
p1411
sg4
V519
p1412
sg6
VRadio Lepanto 101.4
p1413
ssS'518'
p1414
(dp1415
g4
V518
p1416
sg6
VStar Fm 90.9
p1417
ssS'511'
p1418
(dp1419
g4
V511
p1420
sg6
V\u03a7\u03af\u03bf\u03c2 Fm 97.8
p1421
ssS'1006'
p1422
(dp1423
g4
V1006
p1424
sg6
VMidnight Radio
p1425
ssS'1005'
p1426
(dp1427
g382
S'http://s2.onweb.gr:8654/'
p1428
sg4
V1005
p1429
sg6
VRadio1 Dance
p1430
ssS'512'
p1431
(dp1432
g4
V512
p1433
sg6
VDream On
p1434
ssS'1003'
p1435
(dp1436
g382
S'http://208.43.115.44:8138/'
p1437
sg4
V1003
p1438
sg6
VCannibal Radio
p1439
ssS'514'
p1440
(dp1441
g382
S'http://live.onestreaming.com/avanti'
p1442
sg4
V514
p1443
sg6
VAvanti Fm 98.3
p1444
ssS'517'
p1445
(dp1446
g4
V517
p1447
sg6
VRock Way
p1448
ssS'1000'
p1449
(dp1450
g382
S'http://shout.streamwithq.gr:4066/'
p1451
sg4
V1000
p1452
sg6
V\u0391\u03ba\u03c4\u03af\u03bd\u03b1 Radio 104.7
p1453
ssS'623'
p1454
(dp1455
g4
V623
p1456
sg6
VVeto Fm 91
p1457
ssS'622'
p1458
(dp1459
g382
S'http://radionostalgiagr.dyndns.org:2314/'
p1460
sg4
V622
p1461
sg6
V\u03a1\u03ac\u03b4\u03b9\u03bf \u039d\u03bf\u03c3\u03c4\u03b1\u03bb\u03b3\u03af\u03b1
p1462
ssS'621'
p1463
(dp1464
g382
S'mms://captainjack.live24.gr/captainjack9660'
p1465
sg4
V621
p1466
sg6
V\u0394\u03af\u03c6\u03c9\u03bd\u03bf 96.6
p1467
ssS'620'
p1468
(dp1469
g4
V620
p1470
sg6
V\u03a1/\u03a3 \u039c\u03b5\u03c3\u03bf\u03bb\u03bf\u03b3\u03b3\u03af\u03bf\u03c5 92
p1471
ssS'627'
p1472
(dp1473
g4
V627
p1474
sg6
VArtemis Fm 94.4
p1475
ssS'626'
p1476
(dp1477
g382
S'http://golive.onestreaming.com/musices'
p1478
sg4
V626
p1479
sg6
VMusicES Radio
p1480
ssS'624'
p1481
(dp1482
g4
V624
p1483
sg6
V\u039a\u03b1\u03bd\u03ac\u03bb\u03b9 1 90.4
p1484
ssS'593'
p1485
(dp1486
g224
S'http://78.46.46.214:7054'
p1487
sg4
V593
p1488
sg6
V\u03a1\u03ac\u03b4\u03b9\u03bf \u03a4\u03c1\u03b9\u03c6\u03c5\u03bb\u03af\u03b1\u03c2 101.3
p1489
ssS'179'
p1490
(dp1491
g382
S'http://s5.onweb.gr:8506/'
p1492
sg4
V179
p1493
sg6
VTraffic Fm 91.8
p1494
ssS'178'
p1495
(dp1496
g4
V178
p1497
sg6
VJust Radio 93
p1498
ssS'177'
p1499
(dp1500
g382
S'mms://kiss-fm-kard.live24.gr/kiss-fm-kard'
p1501
sg4
V177
p1502
sg6
VKiss 100.4
p1503
ssS'176'
p1504
(dp1505
g163
S'http://radio1.discomaniaradio.com:7030/'
p1506
sg4
V176
p1507
sg6
VDiscomania
p1508
ssS'175'
p1509
(dp1510
g382
S'http://live.onestreaming.com/paradiseradio'
p1511
sg4
V175
p1512
sg6
VParadise 90.3
p1513
ssS'174'
p1514
(dp1515
g4
V174
p1516
sg6
VNoize Radio 93.5
p1517
ssS'173'
p1518
(dp1519
g382
S'http://s6.onweb.gr:8032'
p1520
sg4
V173
p1521
sg6
VKiss 96.1
p1522
ssS'172'
p1523
(dp1524
g382
S'http://eco.onestreaming.com:8068'
p1525
sg4
V172
p1526
sg6
VTop Fm
p1527
ssS'171'
p1528
(dp1529
g382
S'mms://live.onestreaming.com/radio996/'
p1530
sg4
V171
p1531
sg6
VRadio 99.6
p1532
ssS'198'
p1533
(dp1534
g4
V198
p1535
sg6
VHot Mix Fm 88
p1536
ssS'977'
p1537
(dp1538
g382
S'http://50.7.243.50:8062/'
p1539
sg4
V977
p1540
sg6
VLight Radio
p1541
ssS'183'
p1542
(dp1543
g4
V183
p1544
sg6
VNRG 89.5
p1545
ssS'180'
p1546
(dp1547
g4
V180
p1548
sg6
VNRG 95
p1549
ssS'182'
p1550
(dp1551
g4
V182
p1552
sg6
V\u03a1\u03ac\u03b4\u03b9\u03bf \u0388\u03bd\u03c4\u03b1\u03c3\u03b7 93.5
p1553
ssS'599'
p1554
(dp1555
g14
S'http://sportfmpatras.live24.gr/sportfmpatras'
p1556
sg4
V599
p1557
sg6
VSport Fm \u03a0\u03ac\u03c4\u03c1\u03b1\u03c2 96.3 
p1558
ssS'654'
p1559
(dp1560
g4
V654
p1561
sg6
V\u0394\u03af\u03b1\u03c5\u03bb\u03bf\u03c2 91.1
p1562
ssS'181'
p1563
(dp1564
g4
V181
p1565
sg6
VCapital 90.7
p1566
ssS'186'
p1567
(dp1568
g382
S'http://live.onestreaming.com/elladaradio'
p1569
sg4
V186
p1570
sg6
V\u0395\u03bb\u03bb\u03ac\u03b4\u03b1 Fm 96.7
p1571
ssS'653'
p1572
(dp1573
g4
V653
p1574
sg6
VBest Radio 101.1
p1575
ssS'184'
p1576
(dp1577
g4
V184
p1578
sg6
VMax 100.2
p1579
ssS'185'
p1580
(dp1581
g382
S'http://avantifm.live24.gr/avantifm'
p1582
sg4
V185
p1583
sg6
VAvanti 107.6
p1584
ssS'652'
p1585
(dp1586
g4
V652
p1587
sg6
V\u03a7\u03b1\u03bd\u03b9\u03ac Fm 33
p1588
ssS'188'
p1589
(dp1590
g4
V188
p1591
sg6
V\u03a1\u03ac\u03b4\u03b9\u03bf \u039c\u03b5\u03b8\u03cc\u03c1\u03b9\u03bf\u03c2 96
p1592
ssS'189'
p1593
(dp1594
g382
S'http://eco.onestreaming.com:8107/'
p1595
sg4
V189
p1596
sg6
V\u039a\u03b1\u03c3\u03c4\u03bf\u03c1\u03b9\u03ac Fm 91.5
p1597
ssS'658'
p1598
(dp1599
g382
S'http://radio.metalzone.gr/listen.php?type=asx'
p1600
sg4
V658
p1601
sg6
VMetal Zone
p1602
ssS'187'
p1603
(dp1604
g4
V187
p1605
sg6
V\u0395\u03bb\u03bb\u03ac\u03b4\u03b1 Fm 98.7
p1606
ssS'650'
p1607
(dp1608
g382
S'http://shoutcast.24radio.gr:8068'
p1609
sg4
V650
p1610
sg6
V\u0388\u03bd\u03c4\u03b5\u03c7\u03bd\u03bf\u03c2 Fm
p1611
ssS'651'
p1612
(dp1613
g163
S'http://s3.onweb.gr:8816/'
p1614
sg4
V651
p1615
sg6
V\u03a1\u03ac\u03b4\u03b9\u03bf \u0395\u03c0\u03b9\u03bb\u03bf\u03b3\u03ad\u03c2 102.8
p1616
ssS'1125'
p1617
(dp1618
g772
S'http://shoutcast.24radio.gr:8072'
p1619
sg774
V1125
p1620
sg776
VAntennes 93.6
p1621
ssS'17'
p1622
(dp1623
g382
S'http://shoutcast.24radio.gr:8000'
p1624
sg4
V17
p1625
sg6
VHybrid Radio 94.9
p1626
ssS'19'
p1627
(dp1628
g382
S'mms://nordr.live24.gr/rythmos949ath'
p1629
sg4
V19
p1630
sg6
V\u03a1\u03c5\u03b8\u03bc\u03cc\u03c2 94.9
p1631
ssS'18'
p1632
(dp1633
g382
S'http://shoutcast.24radio.gr:8002'
p1634
sg4
V18
p1635
sg6
VRockStar
p1636
ssS'947'
p1637
(dp1638
g4
V947
p1639
sg6
VWild Radio
p1640
ssS'659'
p1641
(dp1642
g4
V659
p1643
sg6
V\u03a1\u03ac\u03b4\u03b9\u03bf \u03a7\u03b1\u03bb\u03ba\u03af\u03b4\u03b1 99.6
p1644
ssS'568'
p1645
(dp1646
g4
V568
p1647
sg6
V\u0391\u03b8\u03bb\u03b7\u03c4\u03b9\u03ba\u03ac \u039d\u03ad\u03b1 98.7
p1648
ssS'116'
p1649
(dp1650
S'id'
p1651
V116
p1652
sS'title'
p1653
VPirate Fm 91
p1654
ssS'657'
p1655
(dp1656
g4
V657
p1657
sg6
VCity 93
p1658
ssS'809'
p1659
(dp1660
g382
S'http://66.90.104.41:8090'
p1661
sg4
V809
p1662
sg6
VAsteras Radio
p1663
ssS'322'
p1664
(dp1665
g382
S'http://shout.streamwithq.gr:4110/'
p1666
sg4
V322
p1667
sg6
VRadio Retro 105.4
p1668
ssS'323'
p1669
(dp1670
g382
S'http://live.onestreaming.com/radionetlamia'
p1671
sg4
V323
p1672
sg6
VRadio Net 101.9
p1673
ssS'320'
p1674
(dp1675
g382
S'http://hotsoft.ws:8086/mk?.wma'
p1676
sg4
V320
p1677
sg6
V\u039c\u03bf\u03c5\u03c3\u03b9\u03ba\u03cc \u039a\u03b1\u03bd\u03ac\u03bb\u03b9 101.3
p1678
ssS'808'
p1679
(dp1680
g382
S'mms://live.onestreaming.com/starfmdm'
p1681
sg4
V808
p1682
sg6
VStar Fm 93.3
p1683
ssS'326'
p1684
(dp1685
g4
V326
p1686
sg6
VSports \u0395\u03c0\u03b9\u03bb\u03bf\u03b3\u03ad\u03c2 105.5
p1687
ssS'324'
p1688
(dp1689
g382
S'mms://live.istoikona.com/topfm'
p1690
sg4
V324
p1691
sg6
VTop Fm 102.4
p1692
ssS'325'
p1693
(dp1694
g4
V325
p1695
sg6
VSport Fm \u039e\u03ac\u03bd\u03b8\u03b7 98.4
p1696
ssS'328'
p1697
(dp1698
g4
V328
p1699
sg6
VRadio 24
p1700
ssS'329'
p1701
(dp1702
g382
S'http://www.streamyourdream.org:8000/acroama'
p1703
sg4
V329
p1704
sg6
V\u0391\u03ba\u03c1\u03cc\u03b1\u03bc\u03b1 99.8
p1705
ssS'688'
p1706
(dp1707
g382
S'http://78.46.46.215:7056'
p1708
sg4
V688
p1709
sg6
VBaby Radio
p1710
ssS'775'
p1711
(dp1712
g382
S'http://streaming.hotmix-radio.net/hotmixradio-80-128.mp3'
p1713
sg4
V775
p1714
sg6
VYeah! Radio
p1715
ssS'774'
p1716
(dp1717
g4
V774
p1718
sg6
VMusicmania
p1719
ssS'203'
p1720
(dp1721
g382
S'http://stream.greekradios.gr:8050'
p1722
sg4
V203
p1723
sg6
V\u03a0\u03b1\u03bb\u03bc\u03cc\u03c2 99.5
p1724
ssS'202'
p1725
(dp1726
g382
S'http://s1.onweb.gr:8076/'
p1727
sg4
V202
p1728
sg6
VRadio1 88
p1729
ssS'771'
p1730
(dp1731
g382
S'http://streams.gr:8060/gafm'
p1732
sg4
V771
p1733
sg6
V\u0393\u03b1\u03bb\u03b1\u03be\u03af\u03b1\u03c2 Fm 92.1
p1734
ssS'204'
p1735
(dp1736
g4
V204
p1737
sg6
VHot Radio 99
p1738
ssS'773'
p1739
(dp1740
g4
V773
p1741
sg6
VAlpha 94.7
p1742
ssS'206'
p1743
(dp1744
g4
V206
p1745
sg6
VRodos Fm 90.7
p1746
ssS'209'
p1747
(dp1748
g163
S'http://s4.onweb.gr:8492'
p1749
sg4
V209
p1750
sg6
V\u03a1\u03ac\u03b4\u03b9\u03bf \u039b\u03b5\u03c5\u03ba\u03af\u03bc\u03bc\u03b7 105.5
p1751
ssS'208'
p1752
(dp1753
g4
V208
p1754
sg6
VPrisma Fm 91.8
p1755
ssS'779'
p1756
(dp1757
g4
V779
p1758
sg6
V\u03a1\u03c5\u03b8\u03bc\u03cc\u03c2 Fm 106
p1759
ssS'778'
p1760
(dp1761
g382
S'http://live.camstreams.com/misconfig.wmv'
p1762
sg4
V778
p1763
sg6
V\u03a3\u03c6\u03b7\u03bd\u03ac\u03ba\u03b9\u03b1 Fm 97.3
p1764
ssS'77'
p1765
(dp1766
g382
S'http://78.129.143.157:8000/heartfm'
p1767
sg4
V77
p1768
sg6
VHeart 93.1
p1769
ssS'76'
p1770
(dp1771
g4
V76
p1772
sg6
V\u039b\u03b1\u03ca\u03ba\u03cc\u03c2 87.6
p1773
ssS'75'
p1774
(dp1775
g4
V75
p1776
sg6
VRSO 91.7
p1777
ssS'74'
p1778
(dp1779
g4
V74
p1780
sg6
VMetropolis 95.5
p1781
ssS'73'
p1782
(dp1783
g382
S'http://178.32.72.194:8050/eroticos'
p1784
sg4
V73
p1785
sg6
V\u0395\u03c1\u03c9\u03c4\u03b9\u03ba\u03cc\u03c2 94.8
p1786
ssS'72'
p1787
(dp1788
g382
S'http://178.32.72.194:8060/rthes'
p1789
sg4
V72
p1790
sg6
V\u03a1\u03ac\u03b4\u03b9\u03bf \u0398\u03b5\u03c3\u03c3\u03b1\u03bb\u03bf\u03bd\u03af\u03ba\u03b7 94.5
p1791
ssS'71'
p1792
(dp1793
g382
S'http://eco.onestreaming.com:8083'
p1794
sg4
V71
p1795
sg6
VSunshine 107.7
p1796
ssS'70'
p1797
(dp1798
g382
S'http://eco.onestreaming.com:8081'
p1799
sg4
V70
p1800
sg6
VLibero 107.4
p1801
ssS'655'
p1802
(dp1803
g4
V655
p1804
sg6
VPowerMix Fm
p1805
ssS'79'
p1806
(dp1807
g382
S'http://golive.onestreaming.com/sport103'
p1808
sg4
V79
p1809
sg6
VSport 103 Fm
p1810
ssS'78'
p1811
(dp1812
g382
S'http://sc2.greekstream.net:4012'
p1813
sg4
V78
p1814
sg6
V\u0388\u03ba\u03c6\u03c1\u03b1\u03c3\u03b7 92.4
p1815
ssS'1040'
p1816
(dp1817
g382
S'http://s2.onweb.gr:8604/'
p1818
sg4
V1040
p1819
sg6
V\u03a7\u03b1\u03bd\u03b9\u03ac Fm 98.9
p1820
ssS'1048'
p1821
(dp1822
g382
S'http://85.17.177.77:8010'
p1823
sg4
V1048
p1824
sg6
VGo Radio
p1825
ssS'358'
p1826
(dp1827
g4
V358
p1828
sg6
V\u0394\u03c5\u03c4\u03b9\u03ba\u03cc\u03c2 103.7
p1829
ssS'1141'
p1830
(dp1831
g772
S'http://shoutcast.24radio.gr:8018'
p1832
sg774
V1141
p1833
sg776
V\u0393\u03b1\u03bb\u03b1\u03be\u03af\u03b1\u03c2 91.1
p1834
ssS'669'
p1835
(dp1836
g4
V669
p1837
sg6
V\u039b\u03ac\u03bc\u03c8\u03b7 106.3
p1838
ssS'668'
p1839
(dp1840
g382
S'http://s6.onweb.gr:8018/'
p1841
sg4
V668
p1842
sg6
V\u03a1\u03ac\u03b4\u03b9\u03bf \u03a0\u03b9\u03b5\u03c1\u03af\u03b1 104.2
p1843
ssS'667'
p1844
(dp1845
g4
V667
p1846
sg6
VSafari 106.7
p1847
ssS'666'
p1848
(dp1849
g163
S'http://eco.onestreaming.com:8450'
p1850
sg4
V666
p1851
sg6
VHit Fm 103.5
p1852
ssS'664'
p1853
(dp1854
g382
S'http://s5.onweb.gr:8488'
p1855
sg4
V664
p1856
sg6
VCavo Paradiso Radio
p1857
ssS'663'
p1858
(dp1859
g382
S'http://s2.onweb.gr:8648/'
p1860
sg4
V663
p1861
sg6
V\u03a1\u03ac\u03b4\u03b9\u03bf \u0391\u03c0\u03cc\u03bb\u03bb\u03c9\u03bd
p1862
ssS'662'
p1863
(dp1864
g4
V662
p1865
sg6
VElectrocaine Radio
p1866
ssS'661'
p1867
(dp1868
g382
S'http://s3.onweb.gr:8514'
p1869
sg4
V661
p1870
sg6
VMelody Fm 88.8
p1871
ssS'660'
p1872
(dp1873
g4
V660
p1874
sg6
VVenus 91.1
p1875
ssS'215'
p1876
(dp1877
g4
V215
p1878
sg6
V\u03a3\u03c4\u03af\u03b3\u03bc\u03b1 Radio 97.6
p1879
ssS'692'
p1880
(dp1881
g4
V692
p1882
sg6
VAlina Radio
p1883
ssS'693'
p1884
(dp1885
g4
V693
p1886
sg6
V\u039b\u03ac\u03bc\u03c8\u03b7 88.6
p1887
ssS'690'
p1888
(dp1889
g4
V690
p1890
sg6
VGap Radio
p1891
ssS'691'
p1892
(dp1893
g382
S'http://minorefm.live24.gr/minorefm'
p1894
sg4
V691
p1895
sg6
V\u039c\u03b9\u03bd\u03cc\u03c1\u03b5 Fm
p1896
ssS'696'
p1897
(dp1898
g382
S'http://108.60.201.114:8150'
p1899
sg4
V696
p1900
sg6
V\u0395\u03bb\u03bb\u03b7\u03bd\u03b9\u03ba\u03cc\u03c2 Fm
p1901
ssS'697'
p1902
(dp1903
g4
V697
p1904
sg6
VRadio Romeos Fm 94
p1905
ssS'694'
p1906
(dp1907
g4
V694
p1908
sg6
VDance Radio Progressive
p1909
ssS'695'
p1910
(dp1911
g382
S'http://s1.onweb.gr:8034/'
p1912
sg4
V695
p1913
sg6
V\u039c\u03bf\u03c5\u03c3\u03b9\u03ba\u03cc\u03c2 \u0393\u03b1\u03bb\u03b1\u03be\u03af\u03b1\u03c2 105.8
p1914
ssS'699'
p1915
(dp1916
g4
V699
p1917
sg6
VPlace Fm
p1918
ssS'543'
p1919
(dp1920
g4
V543
p1921
sg6
V\u03a1\u03ac\u03b4\u03b9\u03bf \u0391\u03ba\u03b1\u03c1\u03bd\u03b1\u03bd\u03af\u03b1 97.1
p1922
ssS'540'
p1923
(dp1924
g4
V540
p1925
sg6
VGalaxy Fm 106.1
p1926
ssS'541'
p1927
(dp1928
g382
S'http://shoutcast.24radio.gr:8014'
p1929
sg4
V541
p1930
sg6
VMaster Fm 90.2
p1931
ssS'546'
p1932
(dp1933
g4
V546
p1934
sg6
VSiesta Radio
p1935
ssS'547'
p1936
(dp1937
g382
S'http://shout.streamwithq.gr:4100/'
p1938
sg4
V547
p1939
sg6
V\u039a\u03c1\u03b7\u03c4\u03b9\u03ba\u03ae \u03a1\u03b1\u03b4\u03b9\u03bf\u03c6\u03c9\u03bd\u03af\u03b1 \u0391\u03c4\u03c4\u03b9\u03ba\u03ae\u03c2 91.4
p1940
ssS'544'
p1941
(dp1942
g382
S'http://78.46.46.215:7040/'
p1943
sg4
V544
p1944
sg6
V\u0395\u03c1\u03c9\u03b4\u03b9\u03cc\u03c2 \u039b\u03b1\u03b9\u03ba\u03cc\u03c2
p1945
ssS'545'
p1946
(dp1947
g382
S'http://147.102.85.34:8000'
p1948
sg4
V545
p1949
sg6
V98 Fm
p1950
ssS'548'
p1951
(dp1952
g4
V548
p1953
sg6
V\u03a1\u03ac\u03b4\u03b9\u03bf \u039a\u03c1\u03ae\u03c4\u03b5\u03c2
p1954
ssS'549'
p1955
(dp1956
g382
S'mms://live.istoikona.com/lgr'
p1957
sg4
V549
p1958
sg6
VLGR 103.3
p1959
ssS'994'
p1960
(dp1961
g382
S'http://109.169.26.190:8018'
p1962
sg4
V994
p1963
sg6
VGr8 Radio
p1964
ssS'990'
p1965
(dp1966
g4
V990
p1967
sg6
VPs Radio
p1968
ssS'993'
p1969
(dp1970
g382
S'http://shout.streamwithq.gr:4138/'
p1971
sg4
V993
p1972
sg6
V\u0391\u03bb\u03ae\u03b8\u03b5\u03b9\u03b1 Fm 96.3 
p1973
ssS'992'
p1974
(dp1975
g382
S'http://p8060.thewood.gr:9596/'
p1976
sg4
V992
p1977
sg6
VAthens One Fm
p1978
ssS'999'
p1979
(dp1980
g382
S'http://178.32.57.58:8557/'
p1981
sg4
V999
p1982
sg6
VDisco 80\u005c's Radio
p1983
ssS'998'
p1984
(dp1985
g382
S'http://shoutcast.24radio.gr:8022/'
p1986
sg4
V998
p1987
sg6
VDance Radio Cyprus
p1988
ssS'120'
p1989
(dp1990
g4
V120
p1991
sg6
V\u03a1\u03ac\u03b4\u03b9\u03bf \u0391\u03ba\u03c1\u03af\u03c4\u03b5\u03c2 102.3
p1992
ssS'121'
p1993
(dp1994
g382
S'http://eco.onestreaming.com:8150'
p1995
sg4
V121
p1996
sg6
VYou Fm 100.1
p1997
ssS'123'
p1998
(dp1999
g382
S'http://stream.kiss922.gr:59922/'
p2000
sg4
V123
p2001
sg6
VKiss 92.2
p2002
ssS'124'
p2003
(dp2004
g382
S'http://golive.onestreaming.com/thepopfm'
p2005
sg4
V124
p2006
sg6
VThe Pop Fm 98.6
p2007
ssS'125'
p2008
(dp2009
g382
S'http://live.onestreaming.com/radioactive'
p2010
sg4
V125
p2011
sg6
VRadio Active 91.3
p2012
ssS'126'
p2013
(dp2014
g382
S'http://live.onestreaming.com/anemosfm'
p2015
sg4
V126
p2016
sg6
V\u0386\u03bd\u03b5\u03bc\u03bf\u03c2 95.6
p2017
ssS'127'
p2018
(dp2019
g382
S'http://s4.onweb.gr:8428'
p2020
sg4
V127
p2021
sg6
V\u0391\u03c1\u03c7\u03b9\u03c0\u03ad\u03bb\u03b1\u03b3\u03bf\u03c2 87.6
p2022
ssS'128'
p2023
(dp2024
g4
V128
p2025
sg6
VLove Radio 88.2
p2026
ssS'129'
p2027
(dp2028
g382
S'mms://live.istoikona.com/super'
p2029
sg4
V129
p2030
sg6
VSuper Radio 104.7
p2031
ssS'214'
p2032
(dp2033
g4
V214
p2034
sg6
V\u03a1\u03ac\u03b4\u03b9\u03bf \u0395\u03c0\u03c4\u03ac\u03bd\u03b7\u03c3\u03b1 98.8
p2035
ssS'414'
p2036
(dp2037
g382
S'mms://194.219.230.1:3690'
p2038
sg4
V414
p2039
sg6
VMega Creta 103.1
p2040
ssS'415'
p2041
(dp2042
g4
V415
p2043
sg6
V\u0394\u03af\u03ba\u03c4\u03c5\u03bf 102.4
p2044
ssS'416'
p2045
(dp2046
g4
V416
p2047
sg6
VAqualand Radio 94.8
p2048
ssS'410'
p2049
(dp2050
g4
V410
p2051
sg6
V\u039a\u03bd\u03c9\u03c3\u03cc\u03c2 Fm 100.6
p2052
ssS'411'
p2053
(dp2054
g382
S'http://eco.onestreaming.com:8209'
p2055
sg4
V411
p2056
sg6
VCool Fm 106.8
p2057
ssS'412'
p2058
(dp2059
g382
S'http://live.onestreaming.com/lampsifmcrete'
p2060
sg4
V412
p2061
sg6
V\u039b\u03ac\u03bc\u03c8\u03b7 92.9
p2062
ssS'413'
p2063
(dp2064
g4
V413
p2065
sg6
VAlpha Radio 106.2
p2066
ssS'137'
p2067
(dp2068
g4
V137
p2069
sg6
V\u039a\u03bb\u03af\u03ba Fm 105.6
p2070
ssS'922'
p2071
(dp2072
g382
S'http://67.212.189.122:8151'
p2073
sg4
V922
p2074
sg6
V\u039c\u03ac\u03bd\u03b4\u03c1\u03b1 \u03a1\u03ac\u03b4\u03b9\u03bf
p2075
ssS'319'
p2076
(dp2077
g4
V319
p2078
sg6
VStudio A 102.7
p2079
ssS'318'
p2080
(dp2081
g382
S'http://live.onestreaming.com/radioelassona'
p2082
sg4
V318
p2083
sg6
V\u03a1\u03ac\u03b4\u03b9\u03bf \u0395\u03bb\u03b1\u03c3\u03c3\u03cc\u03bd\u03b1 88.4
p2084
ssS'313'
p2085
(dp2086
g4
V313
p2087
sg6
V\u038c\u03bc\u03bf\u03c1\u03c6\u03b7 \u03a0\u03cc\u03bb\u03b7 89.9
p2088
ssS'312'
p2089
(dp2090
g382
S'http://s1.onweb.gr:8028/'
p2091
sg4
V312
p2092
sg6
V\u039a\u03cd\u03bc\u03b1 Fm 90.3
p2093
ssS'311'
p2094
(dp2095
g382
S'http://live.onestreaming.com/style100'
p2096
sg4
V311
p2097
sg6
VStyle 100
p2098
ssS'310'
p2099
(dp2100
g4
V310
p2101
sg6
V\u039b\u03cc\u03b3\u03bf\u03c2 Radio 101.1
p2102
ssS'317'
p2103
(dp2104
g4
V317
p2105
sg6
V\u03a1\u03ac\u03b4\u03b9\u03bf \u0389\u03c0\u03b5\u03b9\u03c1\u03bf\u03c2 94.5
p2106
ssS'316'
p2107
(dp2108
g4
V316
p2109
sg6
VCreta Planet 
p2110
ssS'315'
p2111
(dp2112
g382
S'http://live.onestreaming.com/elpar'
p2113
sg4
V315
p2114
sg6
V\u0395\u03bb\u03bb\u03b7\u03bd\u03b9\u03ba\u03cc \u03a0\u03b1\u03c1\u03b1\u03b4\u03bf\u03c3\u03b9\u03b1\u03ba\u03cc
p2115
ssS'314'
p2116
(dp2117
g4
V314
p2118
sg6
V\u0396\u03b9\u03b6\u03ac\u03bd\u03b9\u03bf 89.2
p2119
ssS'496'
p2120
(dp2121
g4
V496
p2122
sg6
V\u0395\u03bb\u03bb\u03b7\u03bd\u03bf\u03a1\u03ac\u03b4\u03b9\u03bf
p2123
ssS'138'
p2124
(dp2125
g382
S'mms://radio.istoikona.com/zenith'
p2126
sg4
V138
p2127
sg6
VZenith Radio 96.4
p2128
ssS'368'
p2129
(dp2130
g382
S'mms://broadcast.hol.gr/IonionFMU'
p2131
sg4
V368
p2132
sg6
V\u0399\u03cc\u03bd\u03b9\u03bf\u03bd Fm \u0397\u03bb\u03b5\u03af\u03b1\u03c2 95.5
p2133
ssS'369'
p2134
(dp2135
g382
S'http://shoutcast.24radio.gr:8044/'
p2136
sg4
V369
p2137
sg6
VRSA 91.1
p2138
ssS'366'
p2139
(dp2140
g382
S'http://46.4.65.194:8021'
p2141
sg4
V366
p2142
sg6
VVox 103.3
p2143
ssS'367'
p2144
(dp2145
g4
V367
p2146
sg6
VOrt Fm 92.3
p2147
ssS'364'
p2148
(dp2149
g382
S'http://s6.onweb.gr:8034'
p2150
sg4
V364
p2151
sg6
V\u03a1\u03ac\u03b4\u03b9\u03bf \u039c\u03bf\u03af\u03c1\u03b5\u03c2 97.1
p2152
ssS'365'
p2153
(dp2154
g382
S'http://s5.onweb.gr:8418'
p2155
sg4
V365
p2156
sg6
V\u03a3\u03bf\u03c7\u03cc\u03c2 Fm 88.7
p2157
ssS'362'
p2158
(dp2159
g382
S'http://s3.onweb.gr:8500'
p2160
sg4
V362
p2161
sg6
V\u0391\u03c1\u03bc\u03bf\u03bd\u03af\u03b1 Fm 103.2
p2162
ssS'363'
p2163
(dp2164
g382
S'http://s3.onweb.gr:8438'
p2165
sg4
V363
p2166
sg6
V\u039b\u03ad\u03c3\u03c7\u03b7 97.6
p2167
ssS'360'
p2168
(dp2169
g382
S'http://s1.onweb.gr:8098/'
p2170
sg4
V360
p2171
sg6
V\u03a0\u03ac\u03c1\u03bf\u03c2 Fm 98.5
p2172
ssS'361'
p2173
(dp2174
g382
S'http://s1.onweb.gr:8066'
p2175
sg4
V361
p2176
sg6
V\u0391\u03ba\u03c1\u03cc\u03b1\u03bc\u03b1 94.6
p2177
ssS'952'
p2178
(dp2179
g4
V952
p2180
sg6
VSunshine Radio
p2181
ssS'380'
p2182
(dp2183
g4
V380
p2184
sg6
V\u0397\u03c7\u03ce Fm 102.1
p2185
ssS'381'
p2186
(dp2187
g4
V381
p2188
sg6
VRadio Point
p2189
ssS'382'
p2190
(dp2191
g4
V382
p2192
sg6
VBassline Chill Out
p2193
ssS'383'
p2194
(dp2195
g4
V383
p2196
sg6
VBassline Progressive Trance
p2197
ssS'384'
p2198
(dp2199
g4
V384
p2200
sg6
VUnderground Radio 100.3
p2201
ssS'385'
p2202
(dp2203
g4
V385
p2204
sg6
VDream Fm 103.5
p2205
ssS'386'
p2206
(dp2207
g4
V386
p2208
sg6
VParadise Radio 104.6
p2209
ssS'387'
p2210
(dp2211
g4
V387
p2212
sg6
VLips Radio
p2213
ssS'388'
p2214
(dp2215
g382
S'http://s6.onweb.gr:8036/'
p2216
sg4
V388
p2217
sg6
V\u039a\u03ad\u03bd\u03c4\u03c1\u03bf \u039a\u03b1\u03c1\u03b4\u03b9\u03ac\u03c2 95
p2218
ssS'389'
p2219
(dp2220
g163
S'http://live.onestreaming.com/club937'
p2221
sg4
V389
p2222
sg6
VClub Fm 93.7
p2223
ssS'784'
p2224
(dp2225
g382
S'http://shout.streamwithq.gr:4064/'
p2226
sg4
V784
p2227
sg6
V\u0393\u03ac\u03c5\u03b4\u03bf\u03c2 Fm 88.8
p2228
ssS'785'
p2229
(dp2230
g163
S'http://s7.onweb.gr:8542/'
p2231
sg4
V785
p2232
sg6
VEnjoy Radio 105.7
p2233
ssS'786'
p2234
(dp2235
g4
V786
p2236
sg6
VAthens Fm
p2237
ssS'780'
p2238
(dp2239
g382
S'http://s6.onweb.gr:8002/'
p2240
sg4
V780
p2241
sg6
VLegend Fm 101.6
p2242
ssS'781'
p2243
(dp2244
g4
V781
p2245
sg6
VKing Fm 107.8
p2246
ssS'782'
p2247
(dp2248
g4
V782
p2249
sg6
VRockha Radio
p2250
ssS'788'
p2251
(dp2252
g382
S'http://83.170.89.19:9868'
p2253
sg4
V788
p2254
sg6
VGod Radio
p2255
ssS'789'
p2256
(dp2257
g4
V789
p2258
sg6
VMagic Fm 100
p2259
ssS'579'
p2260
(dp2261
g382
S'http://live.onestreaming.com/ant1cy'
p2262
sg4
V579
p2263
sg6
VAnt1 Fm 102.7
p2264
ssS'578'
p2265
(dp2266
g4
V578
p2267
sg6
VStatus Radio
p2268
ssS'604'
p2269
(dp2270
g382
S'http://shoutcast.24radio.gr:8006'
p2271
sg4
V604
p2272
sg6
VKiss 101.3
p2273
ssS'573'
p2274
(dp2275
g382
S'http://s3.onweb.gr:8474'
p2276
sg4
V573
p2277
sg6
VStudio A 1000
p2278
ssS'572'
p2279
(dp2280
g4
V572
p2281
sg6
VDeep Breath
p2282
ssS'571'
p2283
(dp2284
g163
S'http://p8060.thewood.gr:8140'
p2285
sg4
V571
p2286
sg6
VStudio 306
p2287
ssS'570'
p2288
(dp2289
g382
S'http://208.43.115.44:8262/'
p2290
sg4
V570
p2291
sg6
VMr Soul Radio
p2292
ssS'577'
p2293
(dp2294
g4
V577
p2295
sg6
VPing Pong Radio
p2296
ssS'576'
p2297
(dp2298
g4
V576
p2299
sg6
V\u039c\u03b5\u03bb\u03c9\u03b4\u03b9\u03ba\u03cc\u03c2
p2300
ssS'575'
p2301
(dp2302
g4
V575
p2303
sg6
VR06
p2304
ssS'574'
p2305
(dp2306
g4
V574
p2307
sg6
VWasteland 
p2308
ssS'60'
p2309
(dp2310
g382
S'http://shoutcast.24radio.gr:8074'
p2311
sg4
V60
p2312
sg6
VRadio 98.2
p2313
ssS'61'
p2314
(dp2315
g382
S'http://shout.streamwithq.gr:4044/'
p2316
sg4
V61
p2317
sg6
VFly 95.9
p2318
ssS'258'
p2319
(dp2320
g4
V258
p2321
sg6
V\u0391\u03bd\u03b1\u03c4\u03bf\u03bb\u03b9\u03ba\u03cc\u03c2 Fm 95.8
p2322
ssS'259'
p2323
(dp2324
g382
S'http://174.36.237.66:8220/'
p2325
sg4
V259
p2326
sg6
V\u03a1\u03c5\u03b8\u03bc\u03cc\u03c2 Fm 103.8
p2327
ssS'64'
p2328
(dp2329
g382
S'mms://radiofeeds1.mediabox.gr/kentrofm'
p2330
sg4
V64
p2331
sg6
V\u039a\u03ad\u03bd\u03c4\u03c1\u03bf Fm 98.2
p2332
ssS'66'
p2333
(dp2334
g382
S'http://streamx2.greekradios.gr:8000'
p2335
sg4
V66
p2336
sg6
VRepublic 100.3
p2337
ssS'67'
p2338
(dp2339
S'url'
p2340
S'http://radio.onweb.gr:8078/'
p2341
sg1651
V67
p2342
sg1653
VRock 105.5
p2343
ssS'252'
p2344
(dp2345
g382
S'http://62.1.195.86:2281'
p2346
sg4
V252
p2347
sg6
V\u03a7\u03b9\u03b1\u03ba\u03ae \u03a6\u03c9\u03bd\u03ae 90
p2348
ssS'69'
p2349
(dp2350
g4
V69
p2351
sg6
VAnt1 97.5
p2352
ssS'250'
p2353
(dp2354
g382
S'http://s3.onweb.gr:8032'
p2355
sg4
V250
p2356
sg6
VD-Code 96.2
p2357
ssS'251'
p2358
(dp2359
g382
S'http://s1.onweb.gr:8040'
p2360
sg4
V251
p2361
sg6
V\u03a1\u03ac\u03b4\u03b9\u03bf \u03a1\u03b9\u03b6\u03af\u03c4\u03b5\u03c2 92.4
p2362
ssS'256'
p2363
(dp2364
g382
S'http://shoutcast.24radio.gr:8064/'
p2365
sg4
V256
p2366
sg6
VCool Fm 90.7
p2367
ssS'257'
p2368
(dp2369
g382
S'http://s6.onweb.gr:8026'
p2370
sg4
V257
p2371
sg6
VOrange Radio 91.1
p2372
ssS'254'
p2373
(dp2374
g382
S'http://live.onestreaming.com/aegeanant1'
p2375
sg4
V254
p2376
sg6
VAnt1 \u0391\u03b9\u03b3\u03b1\u03af\u03bf\u03c5 105
p2377
ssS'255'
p2378
(dp2379
g4
V255
p2380
sg6
V\u03a1\u03ac\u03b4\u03b9\u03bf \u0386\u03bb\u03c6\u03b1 96
p2381
ssS'603'
p2382
(dp2383
g4
V603
p2384
sg6
V\u03a3\u03c5\u03bd \u0388\u03bd\u03b1 Radio 95.8
p2385
ssS'156'
p2386
(dp2387
g382
S'mms://a1933.l3271921932.c32719.g.lm.akamaistream.net/D/1933/32719/v0001/reflector:21932'
p2388
sg4
V156
p2389
sg6
V\u03a4\u03c1\u03af\u03c4\u03bf \u03a0\u03c1\u03cc\u03b3\u03c1\u03b1\u03bc\u03bc\u03b1 \u0392\u03c1\u03b1\u03c7\u03ad\u03b1
p2390
ssS'730'
p2391
(dp2392
g4
V730
p2393
sg6
V96.5 Fm
p2394
ssS'732'
p2395
(dp2396
g163
S'http://eco.onestreaming.com:8105'
p2397
sg4
V732
p2398
sg6
VOriginal Radio 94.4
p2399
ssS'735'
p2400
(dp2401
g4
V735
p2402
sg6
VClubs Radio
p2403
ssS'734'
p2404
(dp2405
S'url'
p2406
S'http://shoutcast.24radio.gr:8072'
p2407
sS'id'
p2408
V734
p2409
sS'title'
p2410
V34o River Party (Live)
p2411
ssS'737'
p2412
(dp2413
g382
S'http://72.55.146.84:8020/'
p2414
sg4
V737
p2415
sg6
VSiera Fm 105.3
p2416
ssS'736'
p2417
(dp2418
g224
S'http://78.129.143.157:8000/arisfm'
p2419
sg4
V736
p2420
sg6
V\u0384\u0391\u03c1\u03b7\u03c2 Fm 92.8
p2421
ssS'739'
p2422
(dp2423
g382
S'http://s3.onweb.gr:8532/'
p2424
sg4
V739
p2425
sg6
V\u0393\u03bb\u03ad\u03bd\u03c4\u03b9 Fm 101.1
p2426
ssS'507'
p2427
(dp2428
g4
V507
p2429
sg6
V\u03a7\u03ce\u03c1\u03bf\u03c2 94.2
p2430
ssS'1030'
p2431
(dp2432
g382
S'mms://a1235.l4434955234.c44349.g.lm.akamaistream.net/D/1235/44349/v0001/reflector:55234'
p2433
sg4
V1030
p2434
sg6
VPlay 88.9
p2435
ssS'505'
p2436
(dp2437
g382
S'http://91.121.143.17:8000/'
p2438
sg4
V505
p2439
sg6
V1Mix Radio
p2440
ssS'502'
p2441
(dp2442
g4
V502
p2443
sg6
VBest Radio 94.7
p2444
ssS'1037'
p2445
(dp2446
g382
S'http://62.212.82.142:8012/'
p2447
sg4
V1037
p2448
sg6
VSferikos 99.3
p2449
ssS'500'
p2450
(dp2451
g382
S'http://shoutcast.24radio.gr:8086/'
p2452
sg4
V500
p2453
sg6
V\u039d\u03b9\u03ba\u03bf\u03bb\u03ac\u03bf\u03c5 Radio
p2454
ssS'501'
p2455
(dp2456
g382
S'http://live.onestreaming.com/mesogios'
p2457
sg4
V501
p2458
sg6
V\u039c\u03b5\u03c3\u03cc\u03b3\u03b5\u03b9\u03bf\u03c2 Fm 105.4
p2459
ssS'1212'
p2460
(dp2461
g772
S'http://live.piratefm.net:8000'
p2462
sg774
V1212
p2463
sg776
VPirate Radio 91
p2464
ssS'631'
p2465
(dp2466
g382
S'http://216.66.84.2:9108'
p2467
sg4
V631
p2468
sg6
VHeat Radio 88.3
p2469
ssS'633'
p2470
(dp2471
g4
V633
p2472
sg6
V69 Music 
p2473
ssS'634'
p2474
(dp2475
g382
S'http://eco.onestreaming.com:8077'
p2476
sg4
V634
p2477
sg6
VMaroni Radio
p2478
ssS'635'
p2479
(dp2480
g4
V635
p2481
sg6
VDalkas 88.2
p2482
ssS'636'
p2483
(dp2484
g4
V636
p2485
sg6
V1\u03bf \u03a0\u03c1\u03cc\u03b3\u03c1\u03b1\u03bc\u03bc\u03b1 \u03a7\u03af\u03bf\u03c5
p2486
ssS'637'
p2487
(dp2488
g4
V637
p2489
sg6
VStudio 54
p2490
ssS'465'
p2491
(dp2492
g4
V465
p2493
sg6
VFlash 94.5
p2494
ssS'639'
p2495
(dp2496
g382
S'http://81.171.50.130:9124'
p2497
sg4
V639
p2498
sg6
VHellas Web Radio
p2499
ssS'467'
p2500
(dp2501
g382
S'http://178.33.248.236:8006'
p2502
sg4
V467
p2503
sg6
VFun Radio
p2504
ssS'461'
p2505
(dp2506
g4
V461
p2507
sg6
VOff Radio
p2508
ssS'460'
p2509
(dp2510
g382
S'http://sentrafm.live24.gr/sentrafm'
p2511
sg4
V460
p2512
sg6
VSentra Fm 103.3
p2513
ssS'463'
p2514
(dp2515
g382
S'http://shoutcast.24radio.gr:8046/'
p2516
sg4
V463
p2517
sg6
VViva Fm 95.3
p2518
ssS'462'
p2519
(dp2520
g4
V462
p2521
sg6
V\u039c\u03b5\u03bb\u03c9\u03b4\u03b9\u03ba\u03cc\u03c2 105.7
p2522
ssS'901'
p2523
(dp2524
g382
S'http://s3.onweb.gr:8808'
p2525
sg4
V901
p2526
sg6
V\u03a1\u03b1\u03b4\u03b9\u03bf\u03ba\u03c1\u03ae\u03c4\u03b5\u03c2
p2527
ssS'168'
p2528
(dp2529
g382
S'http://s1.onweb.gr:8854'
p2530
sg4
V168
p2531
sg6
VPower 100.2
p2532
ssS'169'
p2533
(dp2534
g382
S'http://s1.onweb.gr:8068'
p2535
sg4
V169
p2536
sg6
VSuper 90.4
p2537
ssS'164'
p2538
(dp2539
g4
V164
p2540
sg6
VClub Radio
p2541
ssS'165'
p2542
(dp2543
g4
V165
p2544
sg6
VRadio Dee Jay 94.2
p2545
ssS'166'
p2546
(dp2547
g382
S'http://live.onestreaming.com/mousikokanali'
p2548
sg4
V166
p2549
sg6
V\u039c\u03bf\u03c5\u03c3\u03b9\u03ba\u03cc \u039a\u03b1\u03bd\u03ac\u03bb\u03b9 105.1
p2550
ssS'167'
p2551
(dp2552
g4
V167
p2553
sg6
VMRB Radio 101
p2554
ssS'160'
p2555
(dp2556
g4
V160
p2557
sg6
VUplifted
p2558
ssS'161'
p2559
(dp2560
g382
S'mms://golive.onestreaming.com/ydrogeios'
p2561
sg4
V161
p2562
sg6
V\u03a5\u03b4\u03c1\u03cc\u03b3\u03b5\u03b9\u03bf\u03c2 106.9
p2563
ssS'162'
p2564
(dp2565
g382
S'http://s3.onweb.gr:8808/'
p2566
sg4
V162
p2567
sg6
VVenus Fm 105.1
p2568
ssS'163'
p2569
(dp2570
g382
S'http://ice.motionfm.com:80/motionone_free'
p2571
sg4
V163
p2572
sg6
VHouse Motion Fm
p2573
ssS'963'
p2574
(dp2575
g4
V963
p2576
sg6
VBrake Fm 101.6
p2577
ssS'969'
p2578
(dp2579
g382
S'http://shout.streamwithq.gr:4042/'
p2580
sg4
V969
p2581
sg6
VRockarolla Radio
p2582
ssS'1103'
p2583
(dp2584
g4
V1103
p2585
sg6
VBeautyWar
p2586
ssS'408'
p2587
(dp2588
g382
S'http://s8.onweb.gr:8702'
p2589
sg4
V408
p2590
sg6
V\u03a1\u03b1\u03b4\u03b9\u03bf\u03ba\u03cd\u03bc\u03b1\u03c4\u03b1 102.6
p2591
ssS'600'
p2592
(dp2593
g382
S'http://stream.xromafm.gr:59102/'
p2594
sg4
V600
p2595
sg6
V\u03a7\u03c1\u03ce\u03bc\u03b1 Fm 102.1
p2596
ssS'890'
p2597
(dp2598
g382
S'http://golive.onestreaming.com/akousgazi'
p2599
sg4
V890
p2600
sg6
VAkous Gazi
p2601
ssS'891'
p2602
(dp2603
g4
V891
p2604
sg6
VAkous Terra
p2605
ssS'892'
p2606
(dp2607
g382
S'http://golive.onestreaming.com/akousdeluxe'
p2608
sg4
V892
p2609
sg6
VAkous Deluxe
p2610
ssS'893'
p2611
(dp2612
g382
S'http://golive.onestreaming.com/akousstage'
p2613
sg4
V893
p2614
sg6
VAkous Stage
p2615
ssS'894'
p2616
(dp2617
g382
S'http://eco.onestreaming.com:8189/'
p2618
sg4
V894
p2619
sg6
V\u03a1\u03c5\u03b8\u03bc\u03cc\u03c2 988
p2620
ssS'895'
p2621
(dp2622
g382
S'http://188.40.95.16:7100/'
p2623
sg4
V895
p2624
sg6
VMusic Fm
p2625
ssS'896'
p2626
(dp2627
g4
V896
p2628
sg6
V\u03a1\u03ac\u03b4\u03b9\u03bf \u039b\u03ae\u03bc\u03bd\u03bf\u03c2
p2629
ssS'1138'
p2630
(dp2631
S'url'
p2632
S'http://85.25.134.18:8920'
p2633
sS'id'
p2634
V1138
p2635
sS'title'
p2636
VRadio 322
p2637
ssS'357'
p2638
(dp2639
g382
S'http://s1.onweb.gr:8420'
p2640
sg4
V357
p2641
sg6
V\u0396\u03c5\u03b3\u03cc\u03c2 Fm 100
p2642
ssS'356'
p2643
(dp2644
g4
V356
p2645
sg6
V\u03a1\u03b1\u03b4\u03b9\u03cc\u03c6\u03c9\u03bd\u03bf \u0392\u03cc\u03bb\u03bf\u03c2 104.6
p2646
ssS'355'
p2647
(dp2648
g4
V355
p2649
sg6
VLove Radio 105.5
p2650
ssS'354'
p2651
(dp2652
g382
S'http://s1.onweb.gr:8838'
p2653
sg4
V354
p2654
sg6
VMaximum 93.6
p2655
ssS'353'
p2656
(dp2657
g382
S'http://rs2.radiostreamer.com/radioalfa'
p2658
sg4
V353
p2659
sg6
V\u0386\u03bb\u03c6\u03b1 104
p2660
ssS'352'
p2661
(dp2662
g382
S'http://live.onestreaming.com/polis'
p2663
sg4
V352
p2664
sg6
VPolis 102.6
p2665
ssS'351'
p2666
(dp2667
g382
S'http://shout.streamwithq.gr:4052/'
p2668
sg4
V351
p2669
sg6
V\u0395\u03bb\u03bb\u03b7\u03bd\u03b9\u03ba\u03cc\u03c2 88.9
p2670
ssS'350'
p2671
(dp2672
g382
S'http://plaisioradio.live24.gr/plaisioradio'
p2673
sg4
V350
p2674
sg6
VPlaisio Radio
p2675
ssS'803'
p2676
(dp2677
g382
S'http://shoutcast.24radio.gr:8058/'
p2678
sg4
V803
p2679
sg6
VSfera 989
p2680
ssS'802'
p2681
(dp2682
g4
V802
p2683
sg6
VNRJ Radio 98
p2684
ssS'801'
p2685
(dp2686
g382
S'mms://starradio.no-ip.biz:2380'
p2687
sg4
V801
p2688
sg6
VStar Fm 106.7
p2689
ssS'800'
p2690
(dp2691
g4
V800
p2692
sg6
VRadio 6 95.4
p2693
ssS'807'
p2694
(dp2695
g382
S'http://eco.onestreaming.com:8148/'
p2696
sg4
V807
p2697
sg6
VYes! 91.2
p2698
ssS'806'
p2699
(dp2700
g382
S'http://shoutcast.24radio.gr:8018/'
p2701
sg4
V806
p2702
sg6
VWest Radio
p2703
ssS'359'
p2704
(dp2705
g382
S'http://live.onestreaming.com/kanali3'
p2706
sg4
V359
p2707
sg6
V\u039a\u03b1\u03bd\u03ac\u03bb\u03b9 3 104
p2708
ssS'804'
p2709
(dp2710
g4
V804
p2711
sg6
VNikos Radio
p2712
ssS'216'
p2713
(dp2714
g382
S'http://live.onestreaming.com/rythmos943'
p2715
sg4
V216
p2716
sg6
V\u03a1\u03cd\u03b8\u03bc\u03bf\u03c2 94.3
p2717
ssS'217'
p2718
(dp2719
g4
V217
p2720
sg6
VAthletic Radio 104.2
p2721
ssS'768'
p2722
(dp2723
g4
V768
p2724
sg6
V\u0399\u03cc\u03bd\u03b9\u03bf\u03bd Fm \u03a0\u03ac\u03c4\u03c1\u03b1\u03c2 95.7
p2725
ssS'769'
p2726
(dp2727
g4
V769
p2728
sg6
VTop Fm 105
p2729
ssS'213'
p2730
(dp2731
g382
S'http://s1.onweb.gr:8836'
p2732
sg4
V213
p2733
sg6
VLife Radio 102.9
p2734
ssS'210'
p2735
(dp2736
g382
S'http://s1.onweb.gr:8422'
p2737
sg4
V210
p2738
sg6
VPop Fm 102.1
p2739
ssS'211'
p2740
(dp2741
g382
S'http://s1.onweb.gr:8800/'
p2742
sg4
V211
p2743
sg6
VStar 88.8
p2744
ssS'762'
p2745
(dp2746
g4
V762
p2747
sg6
VFasma Fm 99.7
p2748
ssS'42'
p2749
(dp2750
g4
V42
p2751
sg6
V\u0391\u03b8\u03ae\u03bd\u03b1 9.84
p2752
ssS'760'
p2753
(dp2754
g4
V760
p2755
sg6
VSportive Radio
p2756
ssS'761'
p2757
(dp2758
g382
S'http://64.111.18.90:8005/'
p2759
sg4
V761
p2760
sg6
Vskglobe.net
p2761
ssS'766'
p2762
(dp2763
g382
S'http://208.43.115.44:9846/'
p2764
sg4
V766
p2765
sg6
V\u03a1\u03ac\u03b4\u03b9\u03bf \u0395\u03cd\u03b2\u03bf\u03b9\u03b1 104.1
p2766
ssS'764'
p2767
(dp2768
g382
S'http://live.e-streaming.eu:8110/'
p2769
sg4
V764
p2770
sg6
V\u0391\u03ba\u03c4\u03af\u03bd\u03b1 Radio 95
p2771
ssS'219'
p2772
(dp2773
g382
S'http://freeradio.live24.gr/freeradio-1000'
p2774
sg4
V219
p2775
sg6
VFree Radio  98
p2776
ssS'957'
p2777
(dp2778
g4
V957
p2779
sg6
V\u039d\u03b1\u03c5\u03ac\u03b3\u03b9\u03b1
p2780
ssS'1033'
p2781
(dp2782
g382
S'http://72.233.114.175:8020/'
p2783
sg4
V1033
p2784
sg6
VPowershots!
p2785
ssS'1072'
p2786
(dp2787
g382
S'http://109.169.26.190:8048'
p2788
sg4
V1072
p2789
sg6
VGr8 Radio Greek
p2790
ssS'1073'
p2791
(dp2792
g382
S'http://shoutcast.24radio.gr:8070'
p2793
sg4
V1073
p2794
sg6
V\u0394\u03b7\u03bc\u03bf\u03c4\u03b9\u03ba\u03ae \u0391\u03bd\u03b8\u03bf\u03bb\u03bf\u03b3\u03af\u03b1 88.8
p2795
ssS'289'
p2796
(dp2797
g382
S'http://ice.motionfm.com:80/motionthree_free'
p2798
sg4
V289
p2799
sg6
VLounge Motion Fm
p2800
ssS'288'
p2801
(dp2802
g382
S'http://s1.onweb.gr:8056'
p2803
sg4
V288
p2804
sg6
VStar Fm 94.1
p2805
ssS'321'
p2806
(dp2807
g4
V321
p2808
sg6
V\u03a1\u03b1\u03b4/\u03bd\u03af\u03b1 \u039a\u03bf\u03b6\u03ac\u03bd\u03b7\u03c2 102.3
p2809
ssS'281'
p2810
(dp2811
g382
S'http://s1.onweb.gr:8096'
p2812
sg4
V281
p2813
sg6
V\u03a1\u03ac\u03b4\u03b9\u03bf \u039a\u03c5\u03c0\u03b1\u03c1\u03b9\u03c3\u03c3\u03af\u03b1 93.6
p2814
ssS'280'
p2815
(dp2816
g4
V280
p2817
sg6
V\u0397\u03bb\u03ad\u03ba\u03c4\u03c1\u03b1 98.8
p2818
ssS'283'
p2819
(dp2820
g382
S'http://broadcast.hol.gr/kanali20'
p2821
sg4
V283
p2822
sg6
V\u039a\u03b1\u03bd\u03ac\u03bb\u03b9 20 107.5
p2823
ssS'282'
p2824
(dp2825
g163
S'http://shoutcast.24radio.gr:8068'
p2826
sg4
V282
p2827
sg6
V\u03a0\u03b1\u03bb\u03bc\u03cc\u03c2 90.5
p2828
ssS'285'
p2829
(dp2830
g163
S'http://www.realserver.info:8006/'
p2831
sg4
V285
p2832
sg6
VLight Kiss 89
p2833
ssS'284'
p2834
(dp2835
g382
S'mms://broadcast.hol.gr/cityfm'
p2836
sg4
V284
p2837
sg6
VCity Radio 103.3
p2838
ssS'287'
p2839
(dp2840
g382
S'mms://live.onestreaming.com/politia'
p2841
sg4
V287
p2842
sg6
V\u03a0\u03bf\u03bb\u03b9\u03c4\u03b5\u03af\u03b1 90.7
p2843
ssS'286'
p2844
(dp2845
g382
S'http://eco.onestreaming.com:8272'
p2846
sg4
V286
p2847
sg6
VFly 89.7
p2848
ssS'678'
p2849
(dp2850
g382
S'http://s1.onweb.gr:8866/'
p2851
sg4
V678
p2852
sg6
VSuper 92.6
p2853
ssS'679'
p2854
(dp2855
g382
S'http://shout.streamwithq.gr:4126/'
p2856
sg4
V679
p2857
sg6
VKiss 107
p2858
ssS'674'
p2859
(dp2860
g382
S'http://mvradio.serverroom.us:9842'
p2861
sg4
V674
p2862
sg6
VMv Radio
p2863
ssS'675'
p2864
(dp2865
g382
S'http://psychoradio.servemp3.com'
p2866
sg4
V675
p2867
sg6
VPsycho Radio
p2868
ssS'676'
p2869
(dp2870
g382
S'http://live.onestreaming.com/star884'
p2871
sg4
V676
p2872
sg6
VStar 88.4
p2873
ssS'677'
p2874
(dp2875
g4
V677
p2876
sg6
VFantasy 100.1
p2877
ssS'670'
p2878
(dp2879
g382
S'http://live.onestreaming.com/makistia'
p2880
sg4
V670
p2881
sg6
V\u03a1\u03ac\u03b4\u03b9\u03bf \u039c\u03b1\u03ba\u03b9\u03c3\u03c4\u03af\u03b1 98.6
p2882
ssS'671'
p2883
(dp2884
g4
V671
p2885
sg6
VPowerMix Fm Greek
p2886
ssS'672'
p2887
(dp2888
g4
V672
p2889
sg6
V\u03a1\u03ac\u03b4\u03b9\u03bf \u0392\u03ad\u03c1\u03b1 91.8
p2890
ssS'673'
p2891
(dp2892
g4
V673
p2893
sg6
V\u03a1\u03ac\u03b4\u03b9\u03bf TRT 95.1
p2894
ssS'263'
p2895
(dp2896
g382
S'http://eco.onestreaming.com:8185'
p2897
sg4
V263
p2898
sg6
V\u0394\u03b7\u03bc\u03bf\u03c4\u03b9\u03ba\u03cc\u03c2 \u03a4\u03c1\u03af\u03c0\u03bf\u03bb\u03b7\u03c2 91.5
p2899
ssS'262'
p2900
(dp2901
g382
S'http://shoutcast.24radio.gr:8012/'
p2902
sg4
V262
p2903
sg6
VMust Fm 97
p2904
ssS'261'
p2905
(dp2906
g4
V261
p2907
sg6
VStyle Fm 89.6
p2908
ssS'260'
p2909
(dp2910
g4
V260
p2911
sg6
VStar Fm 92.9
p2912
ssS'267'
p2913
(dp2914
g382
S'http://smartfm.serverroom.us:8030'
p2915
sg4
V267
p2916
sg6
VSmart Fm 100.7
p2917
ssS'266'
p2918
(dp2919
g382
S'mms://broadcast.hol.gr/IonionFMU'
p2920
sg4
V266
p2921
sg6
VIonion Fm 95.8
p2922
ssS'265'
p2923
(dp2924
g382
S'http://208.43.115.44:8016/'
p2925
sg4
V265
p2926
sg6
VHorizon Fm 96.5
p2927
ssS'264'
p2928
(dp2929
g4
V264
p2930
sg6
V\u0391\u03c1\u03bc\u03bf\u03bd\u03af\u03b1 Fm 93.8
p2931
ssS'1031'
p2932
(dp2933
g4
V1031
p2934
sg6
VSeal Radio
p2935
ssS'269'
p2936
(dp2937
g382
S'mms://broadcast.hol.gr/mojoradio'
p2938
sg4
V269
p2939
sg6
VMojo Radio 107.7
p2940
ssS'268'
p2941
(dp2942
g382
S'http://217.172.179.76:8500/'
p2943
sg4
V268
p2944
sg6
VWave 97.4
p2945
ssS'436'
p2946
(dp2947
g4
V436
p2948
sg6
VRadio Air
p2949
ssS'59'
p2950
(dp2951
g382
S'http://shoutcast.24radio.gr:8036'
p2952
sg4
V59
p2953
sg6
VKiss 100.6
p2954
ssS'58'
p2955
(dp2956
g4
V58
p2957
sg6
V\u039a\u03c1\u03b7\u03c4\u03b9\u03ba\u03cc\u03c1\u03b1\u03bc\u03b1 93.8
p2958
ssS'55'
p2959
(dp2960
g4
V55
p2961
sg6
V\u03a3\u03c4\u03bf \u039a\u03cc\u03ba\u03ba\u03b9\u03bd\u03bf 105.5
p2962
ssS'54'
p2963
(dp2964
g382
S'mms://a1232.l3271935231.c32719.g.lm.akamaistream.net/D/1232/32719/v0001/reflector:35231'
p2965
sg4
V54
p2966
sg6
VKosmos 93.6
p2967
ssS'57'
p2968
(dp2969
g4
V57
p2970
sg6
V\u03a1\u03ac\u03b4\u03b9\u03bf \u03a0\u03cc\u03bd\u03c4\u03bf\u03c2 106.5
p2971
ssS'56'
p2972
(dp2973
g4
V56
p2974
sg6
V\u03a7\u03c1\u03b9\u03c3\u03c4\u03b9\u03b1\u03bd\u03b9\u03c3\u03bc\u03cc\u03c2
p2975
ssS'51'
p2976
(dp2977
g4
V51
p2978
sg6
V\u039c\u03b5\u03bb\u03c9\u03b4\u03af\u03b1 99.2
p2979
ssS'62'
p2980
(dp2981
g382
S'http://shoutcast.24radio.gr:8060/'
p2982
sg4
V62
p2983
sg6
VLife Radio 91.6
p2984
ssS'53'
p2985
(dp2986
g382
S'mms://ant1.live24.gr/ant1'
p2987
sg4
V53
p2988
sg6
VAnt1 97.2
p2989
ssS'52'
p2990
(dp2991
g4
V52
p2992
sg6
V\u039b\u03ac\u03bc\u03c8\u03b7 92.3
p2993
ssS'537'
p2994
(dp2995
g4
V537
p2996
sg6
VMusic Life 95.1
p2997
ssS'536'
p2998
(dp2999
g4
V536
p3000
sg6
VDolce Radio 89.5
p3001
ssS'63'
p3002
(dp3003
g4
V63
p3004
sg6
VHit Fm 92.9
p3005
ssS'533'
p3006
(dp3007
g4
V533
p3008
sg6
VMy World
p3009
ssS'532'
p3010
(dp3011
g4
V532
p3012
sg6
VRadio 88\u03bc\u03b9\u03c3\u03cc
p3013
ssS'531'
p3014
(dp3015
g382
S'http://live.onestreaming.com/greek4u'
p3016
sg4
V531
p3017
sg6
VGr4u
p3018
ssS'152'
p3019
(dp3020
g382
S'mms://a1318.l3271931317.c32719.g.lm.akamaistream.net/D/1318/32719/v0001/reflector:31317'
p3021
sg4
V152
p3022
sg6
V\u03a4\u03c1\u03af\u03c4\u03bf  90.9
p3023
ssS'539'
p3024
(dp3025
g4
V539
p3026
sg6
V\u03a1\u03ac\u03b4\u03b9\u03bf \u039c\u03b5\u03c3\u03c3\u03ac\u03c4\u03b9\u03b4\u03b1 98
p3027
ssS'538'
p3028
(dp3029
g382
S'http://972fm.no-ip.info:8000'
p3030
sg4
V538
p3031
sg6
V97.2 Fm Stereo
p3032
ssS'201'
p3033
(dp3034
g4
V201
p3035
sg6
V\u0391\u03b3\u03ad\u03c1\u03b9 Fm 102
p3036
ssS'988'
p3037
(dp3038
g4
V988
p3039
sg6
V\u0397\u03c7\u03bf\u03c2 Radio
p3040
ssS'200'
p3041
(dp3042
g382
S'http://eco.onestreaming.com:8129'
p3043
sg4
V200
p3044
sg6
V\u039c\u03b5\u03bb\u03c9\u03b4\u03af\u03b1 88
p3045
ssS'981'
p3046
(dp3047
g382
S'http://199.16.186.34:8236/'
p3048
sg4
V981
p3049
sg6
VElektrik Dreams
p3050
ssS'50'
p3051
(dp3052
g4
V50
p3053
sg6
VX Fm 94.3
p3054
ssS'115'
p3055
(dp3056
g4
V115
p3057
sg6
V\u03a1\u03ac\u03b4\u03b9\u03bf \u0391\u03bb\u03ae\u03b8\u03b5\u03b9\u03b1 95.7
p3058
ssS'68'
p3059
(dp3060
g382
S'http://golive.onestreaming.com/radioena'
p3061
sg4
V68
p3062
sg6
V99 Fm \u03a1\u03ac\u03b4\u03b9\u03bf 1
p3063
ssS'776'
p3064
(dp3065
g382
S'mms://a323.l6160932322.c61609.e.lm.akamaistream.net/D/323/61609/v0001/reflector:32322'
p3066
sg4
V776
p3067
sg6
V\u0396\u03bf\u03cd\u03b3\u03ba\u03bb\u03b1 Radio
p3068
ssS'111'
p3069
(dp3070
g382
S'http://golive.onestreaming.com/arion'
p3071
sg4
V111
p3072
sg6
VArion Radio
p3073
ssS'110'
p3074
(dp3075
g382
S'http://golive.onestreaming.com/athensparty'
p3076
sg4
V110
p3077
sg6
VAthens Party
p3078
ssS'113'
p3079
(dp3080
g382
S'http://188.40.131.14:8062'
p3081
sg4
V113
p3082
sg6
VJay Radio
p3083
ssS'112'
p3084
(dp3085
g4
V112
p3086
sg6
V\u0388\u03c1\u03c9\u03c4\u03b1\u03c2
p3087
ssS'205'
p3088
(dp3089
g382
S'http://live.onestreaming.com/arhagelos'
p3090
sg4
V205
p3091
sg6
V\u03a1\u03ac\u03b4\u03b9\u03bf \u0391\u03c1\u03c7\u03ac\u03b3\u03b3\u03b5\u03bb\u03bf\u03c2 94.1
p3092
ssS'119'
p3093
(dp3094
g382
S'http://s1.onweb.gr:8812'
p3095
sg4
V119
p3096
sg6
V\u03a1\u03b1\u03b4\u03b9\u03bf\u03ba\u03cd\u03bc\u03b1\u03c4\u03b1 104.4
p3097
ssS'118'
p3098
(dp3099
g4
V118
p3100
sg6
V\u039b\u03c5\u03b4\u03af\u03b1 Fm 94.2
p3101
ssS'207'
p3102
(dp3103
g4
V207
p3104
sg6
V\u03a3\u03ac\u03bc\u03bf\u03c2 Fm 97.3
p3105
ssS'953'
p3106
(dp3107
g382
S'http://live.onestreaming.com/notesserres'
p3108
sg4
V953
p3109
sg6
V\u03a1\u03ac\u03b4\u03b9\u03bf \u039d\u03cc\u03c4\u03b5\u03c2 106
p3110
ssS'429'
p3111
(dp3112
g4
V429
p3113
sg6
V\u03a1\u03c5\u03b8\u03bc\u03cc\u03c2 104
p3114
ssS'428'
p3115
(dp3116
g4
V428
p3117
sg6
V\u03a0\u03b1\u03bd\u03cc\u03c1\u03b1\u03bc\u03b1 98.4
p3118
ssS'534'
p3119
(dp3120
g382
S'http://eco.onestreaming.com:8152/stream'
p3121
sg4
V534
p3122
sg6
VAction Radio 98.2
p3123
ssS'919'
p3124
(dp3125
g382
S'http://r3.webradiostreams.com:7120/'
p3126
sg4
V919
p3127
sg6
VStudio 20 101.1
p3128
ssS'918'
p3129
(dp3130
g4
V918
p3131
sg6
VRadio Must Athens
p3132
ssS'914'
p3133
(dp3134
g382
S'http://178.32.57.58:8345/'
p3135
sg4
V914
p3136
sg6
VMagic Fm 102.9
p3137
ssS'916'
p3138
(dp3139
g4
V916
p3140
sg6
V\u03a1\u03ac\u03b4\u03b9\u03bf \u039f\u03bc\u03ac\u03b4\u03b1R
p3141
ssS'913'
p3142
(dp3143
g104
S'http://46.4.82.243:8080'
p3144
sg4
V913
p3145
sg6
VClassical Radio
p3146
ssS'300'
p3147
(dp3148
g382
S'http://eco.onestreaming.com:8173'
p3149
sg4
V300
p3150
sg6
VCity Fm 100
p3151
ssS'301'
p3152
(dp3153
g382
S'http://78.46.106.4:8010'
p3154
sg4
V301
p3155
sg6
VMusic Club 105.8
p3156
ssS'302'
p3157
(dp3158
g4
V302
p3159
sg6
VEros Radio 93
p3160
ssS'303'
p3161
(dp3162
g4
V303
p3163
sg6
VRadio Erotic
p3164
ssS'304'
p3165
(dp3166
g382
S'http://media15.internet.gr/dreamfm'
p3167
sg4
V304
p3168
sg6
VDream Fm 90.6
p3169
ssS'305'
p3170
(dp3171
g4
V305
p3172
sg6
VKiss Gold
p3173
ssS'306'
p3174
(dp3175
g4
V306
p3176
sg6
VCoast Fm 91.4
p3177
ssS'821'
p3178
(dp3179
g163
S'http://174.36.237.66:8014/'
p3180
sg4
V821
p3181
sg6
VFree Angel 91.8
p3182
ssS'374'
p3183
(dp3184
g382
S'http://s5.onweb.gr:8030'
p3185
sg4
V374
p3186
sg6
VHit Fm 89.3
p3187
ssS'954'
p3188
(dp3189
g4
V954
p3190
sg6
VRock 69
p3191
ssS'753'
p3192
(dp3193
g382
S'http://shoutcast.24radio.gr:8042/'
p3194
sg4
V753
p3195
sg6
VSpace Fm 107.5
p3196
ssS'569'
p3197
(dp3198
g382
S'http://159.253.149.12:8138'
p3199
sg4
V569
p3200
sg6
V\u03a1\u03ac\u03b4\u03b9\u03bf \u039a\u03b1\u03bb\u03ac\u03b2\u03c1\u03c5\u03c4\u03b1 106.5
p3201
ssS'751'
p3202
(dp3203
g382
S'http://s2.onweb.gr:8608/'
p3204
sg4
V751
p3205
sg6
V\u0395\u03c0\u03b9\u03ba\u03bf\u03b9\u03bd\u03c9\u03bd\u03af\u03b1 Fm 89.1
p3206
ssS'750'
p3207
(dp3208
g382
S'http://208.43.115.44:8068'
p3209
sg4
V750
p3210
sg6
V\u0391\u03be\u03ac\u03c2 Radio
p3211
ssS'757'
p3212
(dp3213
g382
S'http://shoutcast.24radio.gr:8052/'
p3214
sg4
V757
p3215
sg6
V\u0391\u03b9\u03b3\u03b1\u03af\u03bf Live 95.8
p3216
ssS'756'
p3217
(dp3218
g4
V756
p3219
sg6
V\u03a1\u03ac\u03b4\u03b9\u03bf \u0395\u03c0\u03ac\u03bb
p3220
ssS'755'
p3221
(dp3222
g382
S'http://shoutcast.24radio.gr:8050/'
p3223
sg4
V755
p3224
sg6
Vgopop.gr Top 40 Channel
p3225
ssS'754'
p3226
(dp3227
g382
S'http://shoutcast.24radio.gr:8048/'
p3228
sg4
V754
p3229
sg6
Vgopop.gr Disco Channel
p3230
ssS'560'
p3231
(dp3232
g382
S'http://eco.onestreaming.com:8324'
p3233
sg4
V560
p3234
sg6
VRodon 95 Fm
p3235
ssS'561'
p3236
(dp3237
g382
S'http://eco.onestreaming.com:8238'
p3238
sg4
V561
p3239
sg6
VSfera 94.1
p3240
ssS'759'
p3241
(dp3242
g382
S'http://s3.onweb.gr:8530/'
p3243
sg4
V759
p3244
sg6
VStyl Fm 104.8
p3245
ssS'758'
p3246
(dp3247
g4
V758
p3248
sg6
V\u03a1\u03b1\u03b4\u03b9\u03bf\u03c6\u03c9\u03bd\u03af\u03b1 \u039a\u03c5\u03ba\u03bb\u03ac\u03b4\u03c9\u03bd
p3249
ssS'564'
p3250
(dp3251
g4
V564
p3252
sg6
VAria Fm 107.4
p3253
ssS'566'
p3254
(dp3255
g382
S'http://208.43.115.44:9844/'
p3256
sg4
V566
p3257
sg6
V\u0395\u03bb\u03bb\u03b7\u03bd\u03ac\u03b4\u03b9\u03ba\u03bf Fm
p3258
ssS'567'
p3259
(dp3260
g4
V567
p3261
sg6
VAthens Winder Radio
p3262
ssS'506'
p3263
(dp3264
g4
V506
p3265
sg6
V\u03a1\u03ac\u03b4\u03b9\u03bf \u039d\u03b1\u03cd\u03c0\u03b1\u03ba\u03c4\u03bf\u03c2
p3266
ssS'229'
p3267
(dp3268
g163
S'http://50.7.158.42:8050/'
p3269
sg4
V229
p3270
sg6
V\u0391\u03bd\u03b4\u03c1\u03bf\u03bc\u03ad\u03b4\u03b1 Net
p3271
ssS'228'
p3272
(dp3273
g382
S'mms://radio.greekstream.net/ekrixi'
p3274
sg4
V228
p3275
sg6
V\u0388\u03ba\u03c1\u03b7\u03be\u03b7 Fm 99.7
p3276
ssS'227'
p3277
(dp3278
g382
S'http://s1.onweb.gr:8408'
p3279
sg4
V227
p3280
sg6
VStudio 3 103.5
p3281
ssS'226'
p3282
(dp3283
g382
S'http://wm3.greekstream.net/sindosfm'
p3284
sg4
V226
p3285
sg6
V\u039a\u03b1\u03bb\u03b1\u03bc\u03b1\u03c1\u03b9\u03ac Fm 101.7
p3286
ssS'225'
p3287
(dp3288
g382
S'http://shout.plusradio.gr:8120/'
p3289
sg4
V225
p3290
sg6
VPlus Radio 102.6
p3291
ssS'223'
p3292
(dp3293
g382
S'http://s3.onweb.gr:8436'
p3294
sg4
V223
p3295
sg6
V\u03a1\u03ac\u03b4\u03b9\u03bf \u0394\u0395\u0398 104.9
p3296
ssS'222'
p3297
(dp3298
g4
V222
p3299
sg6
V\u0395\u03c0\u03b9\u03ba\u03bf\u03b9\u03bd\u03c9\u03bd\u03af\u03b1 Fm 94
p3300
ssS'221'
p3301
(dp3302
g382
S'mms://a999.l3271920998.c32719.g.lm.akamaistream.net/D/999/32719/v0001/reflector:20998'
p3303
sg4
V221
p3304
sg6
V\u0397 \u03a6\u03c9\u03bd\u03ae \u03c4\u03b7\u03c2 \u0395\u03bb\u03bb\u03ac\u03b4\u03b1\u03c2
p3305
ssS'220'
p3306
(dp3307
g4
V220
p3308
sg6
V\u03a6\u03b9\u03bb\u03af\u03b1 107 Fm
p3309
ssS'1027'
p3310
(dp3311
g382
S'http://85.25.106.162:8330/'
p3312
sg4
V1027
p3313
sg6
VSoul Radio
p3314
ssS'1026'
p3315
(dp3316
g4
V1026
p3317
sg6
VRelax Fm 88.2
p3318
ssS'114'
p3319
(dp3320
g4
V114
p3321
sg6
V\u03a1\u03ac\u03b4\u03b9\u03bf \u039c\u03b1\u03c3\u03c4\u03af\u03c7\u03b1 107.7
p3322
ssS'1028'
p3323
(dp3324
g4
V1028
p3325
sg6
V\u03a0\u03b1\u03bd\u03b9\u03ba\u03cc\u03c2 Fm
p3326
ssS'503'
p3327
(dp3328
g2634
V503
p3329
sg2636
V\u03a1\u03ac\u03b4\u03b9\u03bf \u03a6\u03b1\u03bd\u03c4\u03b1\u03c3\u03af\u03b1
p3330
ssS'726'
p3331
(dp3332
g382
S'http://s2.onweb.gr:8624'
p3333
sg4
V726
p3334
sg6
VAlfa Radio 96
p3335
ssS'724'
p3336
(dp3337
g382
S'http://shoutcast.24radio.gr:8072'
p3338
sg4
V724
p3339
sg6
V\u03a1\u03ac\u03b4\u03b9\u03bf \u0386\u03c3\u03c4\u03c5 90.6
p3340
ssS'725'
p3341
(dp3342
g382
S'http://shoutcast.24radio.gr:8004/'
p3343
sg4
V725
p3344
sg6
VAthens Jukebox Radio
p3345
ssS'723'
p3346
(dp3347
g382
S'http://s5.onweb.gr:8502'
p3348
sg4
V723
p3349
sg6
V\u0394\u03af\u03b1\u03c5\u03bb\u03bf\u03c2 \u039a\u03b1\u03c1\u03b4\u03af\u03c4\u03c3\u03b1\u03c2 102.8
p3350
ssS'720'
p3351
(dp3352
g4
V720
p3353
sg6
VVelvet.
p3354
ssS'721'
p3355
(dp3356
g382
S'http://208.43.81.168:8748'
p3357
sg4
V721
p3358
sg6
VIoannina Dee Jay 89.6
p3359
ssS'728'
p3360
(dp3361
g382
S'http://s2.onweb.gr:8646/'
p3362
sg4
V728
p3363
sg6
VVibe Fm 95.4
p3364
ssS'151'
p3365
(dp3366
g382
S'mms://a1782.l3271951781.c32719.g.lm.akamaistream.net/D/1782/32719/v0001/reflector:51781'
p3367
sg4
V151
p3368
sg6
V\u0394\u03b5\u03cd\u03c4\u03b5\u03c1\u03bf 103.7
p3369
ssS'150'
p3370
(dp3371
g382
S'mms://a1709.l3271943708.c32719.g.lm.akamaistream.net/D/1709/32719/v0001/reflector:43708'
p3372
sg4
V150
p3373
sg6
VNet 105.8
p3374
ssS'607'
p3375
(dp3376
g382
S'http://s2.onweb.gr:8600/'
p3377
sg4
V607
p3378
sg6
VDream Radio
p3379
ssS'606'
p3380
(dp3381
g4
V606
p3382
sg6
VLive Dreams
p3383
ssS'601'
p3384
(dp3385
g4
V601
p3386
sg6
VGlam Radio
p3387
ssS'154'
p3388
(dp3389
g382
S'mms://a1964.l3271953963.c32719.g.lm.akamaistream.net/D/1964/32719/v0001/reflector:53963'
p3390
sg4
V154
p3391
sg6
V95.8 Fm
p3392
ssS'157'
p3393
(dp3394
g382
S'http://a240.l827440239.c8274.g.lm.akamaistream.net/D/240/8274/v0001/reflector:40239'
p3395
sg4
V157
p3396
sg6
V\u03a3\u03ba\u03ac\u03ca 100.3
p3397
ssS'602'
p3398
(dp3399
g4
V602
p3400
sg6
V\u03a0\u03b1\u03bb\u03bc\u03cc\u03c2 105.4
p3401
ssS'159'
p3402
(dp3403
g382
S'http://topmelody1.selfip.net:8000'
p3404
sg4
V159
p3405
sg6
VTop Melody 104.9
p3406
ssS'158'
p3407
(dp3408
g382
S'mms://era.aegean.gr/era'
p3409
sg4
V158
p3410
sg6
V\u0395\u03a1\u0391 \u0392. \u0391\u03b9\u03b3\u03b1\u03af\u03bf\u03c5 103
p3411
ssS'609'
p3412
(dp3413
g4
V609
p3414
sg6
VRadio Piotita
p3415
ssS'608'
p3416
(dp3417
g382
S'http://golive.onestreaming.com/arionlaikos'
p3418
sg4
V608
p3419
sg6
VArion \u039b\u03b1\u03ca\u03ba\u03cc\u03c2
p3420
ssS'469'
p3421
(dp3422
g4
V469
p3423
sg6
V\u03a1\u03ac\u03b4\u03b9\u03bf \u039a\u03b1\u03bb\u03bb\u03af\u03c0\u03bf\u03bb\u03b7
p3424
ssS'935'
p3425
(dp3426
g382
S'http://176.9.35.49:9942'
p3427
sg4
V935
p3428
sg6
V\u03a1\u03ac\u03b4\u03b9\u03bf \u03a0\u03b1\u03c1\u03b5\u03bf\u03cd\u03bb\u03b1
p3429
ssS'399'
p3430
(dp3431
g382
S'http://s7.onweb.gr:8548/'
p3432
sg4
V399
p3433
sg6
V\u03a1\u03ac\u03b4\u03b9\u03bf \u03a0\u03b1\u03bb\u03b1\u03b9\u03cc\u03c7\u03c9\u03c1\u03b1 89.3
p3434
ssS'468'
p3435
(dp3436
g4
V468
p3437
sg6
V\u0391\u03b3\u03c1\u03af\u03bd\u03b9\u03bf Fm 93.7
p3438
ssS'959'
p3439
(dp3440
g4
V959
p3441
sg6
VKappa Radio 87.9
p3442
ssS'48'
p3443
(dp3444
g4
V48
p3445
sg6
V\u0395\u03ba\u03ba\u03bb\u03b7\u03c3\u03af\u03b1 89.5
p3446
ssS'49'
p3447
(dp3448
g4
V49
p3449
sg6
V\u03a0\u03b5\u03b9\u03c1\u03b1\u03ca\u03ba\u03ae \u0395\u03ba\u03ba\u03bb\u03b7\u03c3\u03af\u03b1 91.2
p3450
ssS'46'
p3451
(dp3452
g382
S'http://radiogold.live24.gr/radiogold'
p3453
sg4
V46
p3454
sg6
VRadio Gold
p3455
ssS'47'
p3456
(dp3457
g382
S'mms://oasis.live24.gr/oasis8888'
p3458
sg4
V47
p3459
sg6
V\u038c\u03b1\u03c3\u03b9\u03c2 88
p3460
ssS'44'
p3461
(dp3462
g382
S'http://music.vimafm995.gr/vimafm?MSWMExt=.asf'
p3463
sg4
V44
p3464
sg6
V\u0392\u03ae\u03bc\u03b1 Fm 99.5
p3465
ssS'45'
p3466
(dp3467
g382
S'mms://flash.live24.gr/flash5252'
p3468
sg4
V45
p3469
sg6
VFlash 96
p3470
ssS'955'
p3471
(dp3472
g382
S'http://85.17.30.90:8078'
p3473
sg4
V955
p3474
sg6
VRiver Fm 106.6
p3475
ssS'43'
p3476
(dp3477
g4
V43
p3478
sg6
VMad Radio 106.2
p3479
ssS'40'
p3480
(dp3481
g382
S'mms://a1251.l827423250.c8274.g.lm.akamaistream.net/D/1251/8274/v0001/reflector:23250'
p3482
sg4
V40
p3483
sg6
VFreedom
p3484
ssS'41'
p3485
(dp3486
g382
S'http://s3.onweb.gr:8878/'
p3487
sg4
V41
p3488
sg6
V\u039a\u03c1\u03ae\u03c4\u03b7 Fm 87.5
p3489
ssS'638'
p3490
(dp3491
g382
S'http://s3.onweb.gr:8540/'
p3492
sg4
V638
p3493
sg6
VRadio Epigee
p3494
ssS'464'
p3495
(dp3496
g4
V464
p3497
sg6
VMarconi Radio
p3498
ssS'508'
p3499
(dp3500
g4
V508
p3501
sg6
V\u039b\u03b1\u03ca\u03ba\u03cc Radio
p3502
ssS'489'
p3503
(dp3504
g382
S'http://shoutcast.24radio.gr:8076'
p3505
sg4
V489
p3506
sg6
V\u03a1\u03ac\u03b4\u03b9\u03bf \u039c\u03b5\u03bb\u03c9\u03b4\u03af\u03b1 102.4
p3507
ssS'488'
p3508
(dp3509
g4
V488
p3510
sg6
V\u0389\u03c7\u03bf\u03c2 Radio 91
p3511
ssS'487'
p3512
(dp3513
g4
V487
p3514
sg6
VPluslive Radio
p3515
ssS'486'
p3516
(dp3517
g382
S'http://78.46.46.214:8000/'
p3518
sg4
V486
p3519
sg6
VRadio Relax
p3520
ssS'485'
p3521
(dp3522
g4
V485
p3523
sg6
VMango Radio Urban
p3524
ssS'484'
p3525
(dp3526
g382
S'http://live.onestreaming.com/myradionet'
p3527
sg4
V484
p3528
sg6
VMy Radio 89.6
p3529
ssS'483'
p3530
(dp3531
g4
V483
p3532
sg6
V\u03a1\u03ac\u03b4\u03b9\u03bf \u0397\u03c7\u03cc
p3533
ssS'482'
p3534
(dp3535
g4
V482
p3536
sg6
VSigma Radio
p3537
ssS'481'
p3538
(dp3539
g4
V481
p3540
sg6
VAntenna Radio
p3541
ssS'480'
p3542
(dp3543
g4
V480
p3544
sg6
VRolling Paper
p3545
ssS'509'
p3546
(dp3547
g382
S'http://50.7.243.50:8127/'
p3548
sg4
V509
p3549
sg6
VEnergy 93.4
p3550
ssS'473'
p3551
(dp3552
g4
V473
p3553
sg6
VRadio Next
p3554
ssS'470'
p3555
(dp3556
g382
S'http://83.133.127.198:8999'
p3557
sg4
V470
p3558
sg6
VReal Fm 107.1
p3559
ssS'471'
p3560
(dp3561
g382
S'http://radio.radionova.gr:8263/kritorama'
p3562
sg4
V471
p3563
sg6
V\u039a\u03c1\u03b7\u03c4\u03cc\u03c1\u03b1\u03bc\u03b1 97.9
p3564
ssS'476'
p3565
(dp3566
g382
S'mms://a714.l649552713.c6495.g.lm.akamaistream.net/D/714/6495/v0001/reflector:52713'
p3567
sg4
V476
p3568
sg6
VMusic 89.2
p3569
ssS'477'
p3570
(dp3571
g4
V477
p3572
sg6
VTripa Radio
p3573
ssS'474'
p3574
(dp3575
g382
S'http://eco.onestreaming.com:8324'
p3576
sg4
V474
p3577
sg6
V\u0395\u03a1\u0391 \u03a0\u03ac\u03c4\u03c1\u03b1\u03c2 92.5
p3578
ssS'475'
p3579
(dp3580
g4
V475
p3581
sg6
VFlash \u03a0\u03ac\u03c4\u03c1\u03b1\u03c2 98.7
p3582
ssS'478'
p3583
(dp3584
g382
S'http://hotfm.live24.gr/shock'
p3585
sg4
V478
p3586
sg6
VHot Fm
p3587
ssS'479'
p3588
(dp3589
g382
S'http://178.32.57.58:8557/'
p3590
sg4
V479
p3591
sg6
VStudio 359
p3592
ss.