(dp1
S'199'
p2
(dp3
S'url'
p4
S'http://live.onestreaming.com/lihnari'
p5
sS'id'
p6
V199
p7
sS'title'
p8
V\u039b\u03c5\u03c7\u03bd\u03ac\u03c1\u03b9 91.4
p9
ssS'818'
p10
(dp11
g6
V818
p12
sg8
VRadio Heaven
p13
ssS'819'
p14
(dp15
g6
V819
p16
sg8
VWinder Ellinikos
p17
ssS'346'
p18
(dp19
g4
S'http://metro903.live24.gr/metro903-1000'
p20
sg6
V346
p21
sg8
VMetro Fm 90.3
p22
ssS'347'
p23
(dp24
g6
V347
p25
sg8
V\u0395\u03bb\u03bb\u03b7\u03bd\u03b9\u03ba\u03cc\u03c2 90.3
p26
ssS'340'
p27
(dp28
g4
S'http://s6.onweb.gr:8056'
p29
sg6
V340
p30
sg8
V\u03a1\u03ac\u03b4\u03b9\u03bf \u03a6\u03ac\u03c1\u03bf\u03c2 92.7
p31
ssS'341'
p32
(dp33
g4
S'http://s3.onweb.gr:8060'
p34
sg6
V341
p35
sg8
V\u03a0\u03af\u03bd\u03b4\u03bf\u03c2 Fm 107.7
p36
ssS'342'
p37
(dp38
g6
V342
p39
sg8
VStar 99
p40
ssS'343'
p41
(dp42
g6
V343
p43
sg8
VPop Fm 89.1
p44
ssS'810'
p45
(dp46
S'id'
p47
V810
p48
sS'title'
p49
V365 Radio
p50
ssS'811'
p51
(dp52
g6
V811
p53
sg8
V\u03a1\u03ac\u03b4\u03b9\u03bf \u0391\u03af\u03b3\u03b9\u03bd\u03b1
p54
ssS'812'
p55
(dp56
g4
S'http://live.e-streaming.eu:8120/'
p57
sg6
V812
p58
sg8
V\u03a1\u03ac\u03b4\u03b9\u03bf \u039c\u03c9\u03c1\u03b9\u03ac\u03c2 102.7
p59
ssS'348'
p60
(dp61
g4
S'http://live.isolservers.com:8400'
p62
sg6
V348
p63
sg8
V\u03a3\u03b5\u03af\u03c1\u03b9\u03bf\u03c2 Fm 95.8
p64
ssS'815'
p65
(dp66
g6
V815
p67
sg8
VFresh Web Radio
p68
ssS'816'
p69
(dp70
g4
S'http://www.streamyourdream.org:8000/urbanradio'
p71
sg6
V816
p72
sg8
VUrban Radio
p73
ssS'817'
p74
(dp75
g4
S'http://66.90.104.41:8356/'
p76
sg6
V817
p77
sg8
VD Radio
p78
ssS'719'
p79
(dp80
g4
S'http://208.43.121.133:9652/'
p81
sg6
V719
p82
sg8
V\u03a0\u03cc\u03bd\u03c4\u03bf\u03c2 \u039b\u03b5\u03bb\u03ad\u03b2\u03c9\u03c3\u03b5 101.3
p83
ssS'718'
p84
(dp85
g6
V718
p86
sg8
VPlus Elegance
p87
ssS'716'
p88
(dp89
g4
S'http://stream-push2.live24.gr/synorafm-3462'
p90
sg6
V716
p91
sg8
V\u03a3\u03cd\u03bd\u03bf\u03c1\u03b1 Fm 92.2
p92
ssS'714'
p93
(dp94
g4
S'http://eco.onestreaming.com:8072'
p95
sg6
V714
p96
sg8
VLove Radio 97.2
p97
ssS'713'
p98
(dp99
g6
V713
p100
sg8
VRadio Alpha Omega
p101
ssS'711'
p102
(dp103
g4
S'http://75.75.226.26:8204'
p104
sg6
V711
p105
sg8
VAlpha Fm 104.7
p106
ssS'710'
p107
(dp108
g6
V710
p109
sg8
VSport Fm \u03a1\u03ad\u03b8\u03c5\u03bc\u03bd\u03bf 103.3
p110
ssS'618'
p111
(dp112
g4
S'http://shoutcast.24radio.gr:8038/'
p113
sg6
V618
p114
sg8
VViva Gr 102.8
p115
ssS'606'
p116
(dp117
g6
V606
p118
sg8
VLive Dreams
p119
ssS'1065'
p120
(dp121
g4
S'http://eco.onestreaming.com:8222/'
p122
sg6
V1065
p123
sg8
VPlay Radio
p124
ssS'619'
p125
(dp126
g6
V619
p127
sg8
VTechno Time Radio
p128
ssS'913'
p129
(dp130
g6
V913
p131
sg8
VClassical Radio
p132
ssS'298'
p133
(dp134
g6
V298
p135
sg8
V\u0395\u03bb\u03bb\u03b7\u03bd\u03b9\u03ba\u03cc\u03c2 107.2
p136
ssS'299'
p137
(dp138
g4
S'mms://1045fm.live24.gr/1045fm/'
p139
sg6
V299
p140
sg8
V\u03a1\u03c5\u03b8\u03bc\u03cc\u03c2 104.5
p141
ssS'296'
p142
(dp143
g6
V296
p144
sg8
VDance Radio Chill Out
p145
ssS'297'
p146
(dp147
g6
V297
p148
sg8
V\u039b\u03ac\u03bc\u03c8\u03b7 Fm 105.7
p149
ssS'295'
p150
(dp151
g6
V295
p152
sg8
VDance Radio Global
p153
ssS'292'
p154
(dp155
g6
V292
p156
sg8
VI. Galaxy Sport Fm 90.8
p157
ssS'293'
p158
(dp159
g6
V293
p160
sg8
V\u0395\u03c1\u03c9\u03c4\u03cc\u03ba\u03c1\u03b9\u03c4\u03bf\u03c2 87.9
p161
ssS'290'
p162
(dp163
g4
S'http://ice.motionfm.com:80/motiontwo_free'
p164
sg6
V290
p165
sg8
VSmooth Motion Fm
p166
ssS'291'
p167
(dp168
g4
S'http://85.17.75.142/echoes'
p169
sg6
V291
p170
sg8
VEchoes
p171
ssS'591'
p172
(dp173
g6
V591
p174
sg8
VPlus Amor
p175
ssS'590'
p176
(dp177
g4
S'http://eco.onestreaming.com:8257'
p178
sg6
V590
p179
sg8
VRadio Star 95,5
p180
ssS'593'
p181
(dp182
S'url'
p183
S'http://78.46.46.214:7054'
p184
sg6
V593
p185
sg8
V\u03a1\u03ac\u03b4\u03b9\u03bf \u03a4\u03c1\u03b9\u03c6\u03c5\u03bb\u03af\u03b1\u03c2 101.3
p186
ssS'592'
p187
(dp188
g6
V592
p189
sg8
VPlus Dance
p190
ssS'595'
p191
(dp192
g6
V595
p193
sg8
V\u03a9\u03bc\u03ad\u03b3\u03b1 Fm 90
p194
ssS'594'
p195
(dp196
g6
V594
p197
sg8
VOxygen Fm 95.3
p198
ssS'597'
p199
(dp200
g4
S'http://live.onestreaming.com/blacklemon'
p201
sg6
V597
p202
sg8
VBlack Lemon Radio 
p203
ssS'596'
p204
(dp205
g6
V596
p206
sg8
VRadio Project
p207
ssS'195'
p208
(dp209
g4
S'http://s6.onweb.gr:8012'
p210
sg6
V195
p211
sg8
VTop FM 106.4
p212
ssS'194'
p213
(dp214
g6
V194
p215
sg8
V\u03a1\u03ac\u03b4\u03b9\u03bf \u03a0\u03ac\u03c4\u03c1\u03b1 106.5
p216
ssS'197'
p217
(dp218
g183
S'http://s3.onweb.gr:8888'
p219
sg6
V197
p220
sg8
VLoud 88.8
p221
ssS'196'
p222
(dp223
g6
V196
p224
sg8
V\u03a1\u03ac\u03b4\u03b9\u03bf \u03a3\u03c4\u03bf\u03c1\u03ba 89.8
p225
ssS'191'
p226
(dp227
g183
S'http://s4.onweb.gr:8468'
p228
sg6
V191
p229
sg8
V\u03a1\u03ac\u03b4\u03b9\u03bf \u039b\u03ad\u03c7\u03bf\u03b2\u03bf 97.1
p230
ssS'190'
p231
(dp232
g6
V190
p233
sg8
V\u03a1\u03ac\u03b4\u03b9\u03bf \u03a6\u03bb\u03ce\u03c1\u03b9\u03bd\u03b1 101.5
p234
ssS'193'
p235
(dp236
g183
S'http://live.onestreaming.com/toxotis'
p237
sg6
V193
p238
sg8
V\u03a4\u03bf\u03be\u03cc\u03c4\u03b7\u03c2 Fm 96.3
p239
ssS'192'
p240
(dp241
g183
S'http://72.55.146.84:8002/'
p242
sg6
V192
p243
sg8
V\u0395\u03c1\u03c9\u03c4\u03b9\u03ba\u03cc\u03c2 99.5
p244
ssS'270'
p245
(dp246
g183
S'http://s3.onweb.gr:8046'
p247
sg6
V270
p248
sg8
VEnjoy Radio 107
p249
ssS'271'
p250
(dp251
g6
V271
p252
sg8
V\u039b\u03ac\u03bc\u03c8\u03b7 103.3
p253
ssS'272'
p254
(dp255
g183
S'http://78.129.159.205:8048'
p256
sg6
V272
p257
sg8
V\u0399\u03b5\u03c1\u03ac \u039c\u03b7\u03c4\u03c1\u03cc\u03c0\u03bf\u03bb\u03b7 88.4
p258
ssS'273'
p259
(dp260
g183
S'mms://radiogamma.live24.gr/radiogamma'
p261
sg6
V273
p262
sg8
V\u03a1\u03ac\u03b4\u03b9\u03bf \u0393\u03ac\u03bc\u03bc\u03b1 94
p263
ssS'274'
p264
(dp265
g183
S'http://s1.onweb.gr:8898'
p266
sg6
V274
p267
sg8
V\u039d\u03b5\u03bc\u03ad\u03b1 Radio 107.6
p268
ssS'275'
p269
(dp270
g183
S'http://s6.onweb.gr:8008'
p271
sg6
V275
p272
sg8
VJust 96.4
p273
ssS'276'
p274
(dp275
g183
S'http://s3.onweb.gr:8510'
p276
sg6
V276
p277
sg8
V\u039b\u03bf\u03c5\u03c4\u03c1\u03ac\u03ba\u03b9 Fm 96.9
p278
ssS'277'
p279
(dp280
g183
S'http://s3.onweb.gr:8472/'
p281
sg6
V277
p282
sg8
VL Radio 87.5
p283
ssS'278'
p284
(dp285
g183
S'http://s1.onweb.gr:8828'
p286
sg6
V278
p287
sg8
V\u03a1\u03ac\u03b4\u03b9\u03bf \u0395\u03bd\u03ad\u03c1\u03b3\u03b5\u03b9\u03b1 106.4
p288
ssS'279'
p289
(dp290
g183
S'http://stream.kiss922.gr:59922/'
p291
sg6
V279
p292
sg8
VKiss 93.8
p293
ssS'524'
p294
(dp295
g6
V524
p296
sg8
VRussian Wave 105.6
p297
ssS'525'
p298
(dp299
g6
V525
p300
sg8
VPost Rocking
p301
ssS'526'
p302
(dp303
g6
V526
p304
sg8
V\u03a3\u03ba\u03ac\u03ca \u0391\u03c1\u03b3\u03bf\u03bb\u03af\u03b4\u03b1\u03c2 102.3
p305
ssS'527'
p306
(dp307
g6
V527
p308
sg8
VNoise Fm 100.5
p309
ssS'520'
p310
(dp311
g6
V520
p312
sg8
VArion Kids
p313
ssS'521'
p314
(dp315
g183
S'http://eco.onestreaming.com:8266'
p316
sg6
V521
p317
sg8
V\u0397\u03c7\u03ce Radio 102.7
p318
ssS'523'
p319
(dp320
g183
S'http://live.onestreaming.com/orthodoxia'
p321
sg6
V523
p322
sg8
V\u039f\u03c1\u03b8\u03bf\u03b4\u03bf\u03be\u03af\u03b1 \u03ba\u03b1\u03b9 \u03a0\u03b1\u03c1\u03ac\u03b4\u03bf\u03c3\u03b7
p323
ssS'1014'
p324
(dp325
g183
S'http://188.138.19.96:8030/'
p326
sg6
V1014
p327
sg8
VDeejay Fm 107.3
p328
ssS'528'
p329
(dp330
g6
V528
p331
sg8
VGreekzlive Radio
p332
ssS'529'
p333
(dp334
g183
S'http://shoutcast.24radio.gr:8010/'
p335
sg6
V529
p336
sg8
VNetcruise Radio
p337
ssS'449'
p338
(dp339
g6
V449
p340
sg8
VCocktail Radio
p341
ssS'448'
p342
(dp343
g183
S'http://eco.onestreaming.com:8005/stream'
p344
sg6
V448
p345
sg8
VLoco Radio
p346
ssS'443'
p347
(dp348
g183
S'http://www.tuningradio.gr:8000/'
p349
sg6
V443
p350
sg8
VTuning Radio
p351
ssS'442'
p352
(dp353
g6
V442
p354
sg8
V\u03a1\u03ac\u03b4\u03b9\u03bf \u03a6\u03ac\u03c3\u03b7
p355
ssS'441'
p356
(dp357
g6
V441
p358
sg8
VHot Station
p359
ssS'440'
p360
(dp361
g6
V440
p362
sg8
VActive Radio
p363
ssS'447'
p364
(dp365
g6
V447
p366
sg8
VMango Radio
p367
ssS'446'
p368
(dp369
S'url'
p370
S'http://live.waveradio.gr:8000/listen'
p371
sg6
V446
p372
sg8
VWave Radio
p373
ssS'445'
p374
(dp375
g6
V445
p376
sg8
VNotes Radio
p377
ssS'444'
p378
(dp379
g6
V444
p380
sg8
VBlue Radio
p381
ssS'108'
p382
(dp383
g6
V108
p384
sg8
VEpirusMusic
p385
ssS'109'
p386
(dp387
g6
V109
p388
sg8
VBlu Radio
p389
ssS'102'
p390
(dp391
g6
V102
p392
sg8
VTrip Radio
p393
ssS'103'
p394
(dp395
g370
S'http://live.onestreaming.com/deltaradio'
p396
sg6
V103
p397
sg8
VIEK Delta Radio
p398
ssS'100'
p399
(dp400
g6
V100
p401
sg8
VEvia Channel 94.2
p402
ssS'101'
p403
(dp404
g6
V101
p405
sg8
VStudio E 103
p406
ssS'107'
p407
(dp408
g370
S'http://s4.onweb.gr:8062/'
p409
sg6
V107
p410
sg8
V\u039e\u03b5\u03bd\u03cd\u03c7\u03c4\u03b7\u03c2
p411
ssS'104'
p412
(dp413
g6
V104
p414
sg8
V1431 AM
p415
ssS'105'
p416
(dp417
g370
S'http://live.onestreaming.com/bestmytilini'
p418
sg6
V105
p419
sg8
VBest Fm 98.1
p420
ssS'39'
p421
(dp422
g370
S'http://parea104.live24.gr/parea104'
p423
sg6
V39
p424
sg8
V\u03a0\u03b1\u03c1\u03ad\u03b1 104
p425
ssS'38'
p426
(dp427
g370
S'mms://johngreek.live24.gr/polis2795'
p428
sg6
V38
p429
sg8
VNRJ Radio 88.6
p430
ssS'907'
p431
(dp432
g6
V907
p433
sg8
VRadio Digital
p434
ssS'904'
p435
(dp436
g6
V904
p437
sg8
VSuper Radio
p438
ssS'33'
p439
(dp440
g370
S'mms://nitro.live24.gr/nitro4555'
p441
sg6
V33
p442
sg8
VNitro 102.5
p443
ssS'32'
p444
(dp445
g370
S'mms://kissfm.live24.gr/kiss2111'
p446
sg6
V32
p447
sg8
VKiss 92.9
p448
ssS'31'
p449
(dp450
g370
S'mms://best.live24.gr/best1222'
p451
sg6
V31
p452
sg8
VBest 92.6
p453
ssS'30'
p454
(dp455
g370
S'http://loveradio.live24.gr/loveradio-1000'
p456
sg6
V30
p457
sg8
VLove Radio 97.5
p458
ssS'37'
p459
(dp460
g370
S'http://dromos898.live24.gr/dromos898'
p461
sg6
V37
p462
sg8
V\u0394\u03c1\u03cc\u03bc\u03bf\u03c2 Fm 89.8
p463
ssS'36'
p464
(dp465
g6
V36
p466
sg8
VRadio 9 98.9
p467
ssS'35'
p468
(dp469
g6
V35
p470
sg8
VHi Jack
p471
ssS'34'
p472
(dp473
g370
S'mms://sfera.live24.gr/sfera4132'
p474
sg6
V34
p475
sg8
VSfera 102.2
p476
ssS'641'
p477
(dp478
g6
V641
p479
sg8
VCosmos Fm 103.8
p480
ssS'640'
p481
(dp482
g370
S'http://s4.onweb.gr:8442/'
p483
sg6
V640
p484
sg8
VRadio Amore
p485
ssS'643'
p486
(dp487
g370
S'http://174.36.237.66:8112/'
p488
sg6
V643
p489
sg8
VEnergy Fm 101
p490
ssS'645'
p491
(dp492
g6
V645
p493
sg8
VPrime Radio 100.3
p494
ssS'644'
p495
(dp496
g370
S'http://s3.onweb.gr:8474/'
p497
sg6
V644
p498
sg8
VFresh Radio
p499
ssS'646'
p500
(dp501
g370
S'http://s5.onweb.gr:8504/'
p502
sg6
V646
p503
sg8
V\u03a6\u03ac\u03c1\u03bf\u03c2 Fm 104
p504
ssS'649'
p505
(dp506
g370
S'http://eco.onestreaming.com:8294'
p507
sg6
V649
p508
sg8
VPower Fm 92.6
p509
ssS'648'
p510
(dp511
g6
V648
p512
sg8
VView Fm 103.9
p513
ssS'435'
p514
(dp515
g6
V435
p516
sg8
VCoolfm.eu
p517
ssS'432'
p518
(dp519
g6
V432
p520
sg8
VSplash Radio
p521
ssS'433'
p522
(dp523
g6
V433
p524
sg8
V\u0394\u03b9\u03b1\u03b8\u03b5\u03c4\u03b9\u03ba\u03ae
p525
ssS'1002'
p526
(dp527
g6
V1002
p528
sg8
V\u03a1\u03c5\u03b8\u03bc\u03cc\u03c2 Fm12 93.5
p529
ssS'339'
p530
(dp531
g370
S'http://live.skyradio.gr:9920'
p532
sg6
V339
p533
sg8
VSky Radio 99.2
p534
ssS'338'
p535
(dp536
g370
S'http://94.23.159.115:8088/'
p537
sg6
V338
p538
sg8
VSafari 104.7
p539
ssS'335'
p540
(dp541
g370
S'http://eco.onestreaming.com:8070'
p542
sg6
V335
p543
sg8
V\u0392\u03ae\u03bc\u03b1 Fm 90.1
p544
ssS'334'
p545
(dp546
g6
V334
p547
sg8
V\u039c\u03cd\u03b8\u03bf\u03c2 93.4
p548
ssS'337'
p549
(dp550
g6
V337
p551
sg8
V\u03a1\u03ac\u03b4\u03b9\u03bf \u0398\u03b5\u03c3\u03c0\u03c1\u03c9\u03c4\u03af\u03b1 97.1
p552
ssS'336'
p553
(dp554
g6
V336
p555
sg8
V\u03a1\u03ac\u03b4\u03b9\u03bf \u03a0\u03c1\u03ad\u03b2\u03b5\u03b6\u03b1 93
p556
ssS'331'
p557
(dp558
g370
S'http://s2.onweb.gr:8632'
p559
sg6
V331
p560
sg8
V\u0391\u03ba\u03c4\u03af\u03bd\u03b1 Fm 107.6
p561
ssS'330'
p562
(dp563
g370
S'mms://radio.istoikona.com/cosmos'
p564
sg6
V330
p565
sg8
VCosmos Radio 95.2
p566
ssS'332'
p567
(dp568
g6
V332
p569
sg8
VRadio Blackman 103.1
p570
ssS'1026'
p571
(dp572
g6
V1026
p573
sg8
VRelax Fm 88.2
p574
ssS'558'
p575
(dp576
g6
V558
p577
sg8
VXLR8 Net
p578
ssS'344'
p579
(dp580
g370
S'http://78.129.143.157:8000/starfm'
p581
sg6
V344
p582
sg8
VStar Fm 97.1
p583
ssS'345'
p584
(dp585
g370
S'http://live.onestreaming.com/karpenisi'
p586
sg6
V345
p587
sg8
V\u03a1\u03ac\u03b4\u03b9\u03bf \u039a\u03b1\u03c1\u03c0\u03b5\u03bd\u03ae\u03c3\u03b9 97.5
p588
ssS'748'
p589
(dp590
g370
S'http://nyc04.egihosting.com/458378'
p591
sg6
V748
p592
sg8
VCity International 106.1
p593
ssS'43'
p594
(dp595
g6
V43
p596
sg8
VMad Radio 106.2
p597
ssS'98'
p598
(dp599
g6
V98
p600
sg8
VGnet Radio
p601
ssS'91'
p602
(dp603
g370
S'http://sc2.greekstream.net:4008'
p604
sg6
V91
p605
sg8
V\u03a3\u03c4\u03b1\u03b8\u03bc\u03cc\u03c2
p606
ssS'90'
p607
(dp608
g370
S'http://stream.greekradios.gr:9060'
p609
sg6
V90
p610
sg8
VZoo Radio 90.8
p611
ssS'93'
p612
(dp613
g6
V93
p614
sg8
VGrassagoogoo
p615
ssS'92'
p616
(dp617
g6
V92
p618
sg8
V\u039a\u03bf\u03c3\u03bc\u03bf\u03c1\u03ac\u03b4\u03b9\u03bf 95.1
p619
ssS'95'
p620
(dp621
g6
V95
p622
sg8
VRadio Jukebox
p623
ssS'94'
p624
(dp625
g6
V94
p626
sg8
VRock Machine
p627
ssS'97'
p628
(dp629
g6
V97
p630
sg8
VAlpha 100.5
p631
ssS'96'
p632
(dp633
g370
S'http://webradio.musicheaven.gr:9850'
p634
sg6
V96
p635
sg8
VMusic Heaven
p636
ssS'349'
p637
(dp638
g370
S'http://s1.onweb.gr:8860'
p639
sg6
V349
p640
sg8
V\u03a3\u03c4\u03c5\u03bb\u03af\u03b4\u03b1 Fm 94.1
p641
ssS'740'
p642
(dp643
g370
S'http://85.17.30.90:8044/'
p644
sg6
V740
p645
sg8
VStar Fm 95.7
p646
ssS'742'
p647
(dp648
g6
V742
p649
sg8
V\u03a1\u03ac\u03b4\u03b9\u03bf \u0391\u03bc\u03c6\u03b9\u03bb\u03bf\u03c7\u03af\u03b1 104.5
p650
ssS'743'
p651
(dp652
g370
S'http://eco.onestreaming.com:8286'
p653
sg6
V743
p654
sg8
V\u039b\u03ac\u03ba\u03ba\u03b1 \u03a3\u03bf\u03cd\u03bb\u03b9 Radio
p655
ssS'559'
p656
(dp657
g370
S'http://208.43.115.44:9888/'
p658
sg6
V559
p659
sg8
V\u0395\u03bb\u03bb\u03b7\u03bd\u03b9\u03ba\u03cc \u03a6\u03b1\u03b9\u03bd\u03cc\u03bc\u03b5\u03bd\u03bf
p660
ssS'745'
p661
(dp662
g6
V745
p663
sg8
VMoreradio
p664
ssS'555'
p665
(dp666
g370
S'http://72.55.146.84:8004/'
p667
sg6
V555
p668
sg8
VDiva Fm 91.6
p669
ssS'554'
p670
(dp671
g370
S'http://s7.onweb.gr:8552/'
p672
sg6
V554
p673
sg8
VHot 101.2
p674
ssS'556'
p675
(dp676
g6
V556
p677
sg8
VLemon Radio
p678
ssS'551'
p679
(dp680
g370
S'http://live.onestreaming.com/radiosamos'
p681
sg6
V551
p682
sg8
V\u03a1\u03ac\u03b4\u03b9\u03bf \u03a3\u03ac\u03bc\u03bf\u03c2 102
p683
ssS'550'
p684
(dp685
g6
V550
p686
sg8
VHuts Radio
p687
ssS'553'
p688
(dp689
g6
V553
p690
sg8
VStudio Fm 1 105.4
p691
ssS'552'
p692
(dp693
g370
S'http://golive.onestreaming.com/astraradio'
p694
sg6
V552
p695
sg8
VAstra Radio 93.2
p696
ssS'238'
p697
(dp698
g370
S'http://85.17.30.90:9986'
p699
sg6
V238
p700
sg8
V\u0397\u03c7\u03cc\u03c1\u03b1\u03bc\u03b1 100.8
p701
ssS'239'
p702
(dp703
g370
S'http://s1.onweb.gr:8052'
p704
sg6
V239
p705
sg8
V\u03a0\u03c1\u03ce\u03c4\u03bf Fm 99
p706
ssS'234'
p707
(dp708
g6
V234
p709
sg8
V\u03a0\u03cc\u03bb\u03b9\u03c2 99.4
p710
ssS'235'
p711
(dp712
g370
S'http://s1.onweb.gr:8824'
p713
sg6
V235
p714
sg8
V\u03a1\u03ac\u03b4\u03b9\u03bf 2 97.1
p715
ssS'236'
p716
(dp717
g370
S'http://live.onestreaming.com/radiovelika'
p718
sg6
V236
p719
sg8
VRadio Velika 92.2
p720
ssS'237'
p721
(dp722
g6
V237
p723
sg8
VBest Radio 93.9
p724
ssS'230'
p725
(dp726
g6
V230
p727
sg8
V\u03a1\u03ac\u03b4\u03b9\u03bf \u03a6\u03ac\u03c1\u03bf\u03c2 91.8
p728
ssS'231'
p729
(dp730
g6
V231
p731
sg8
VHeart Fm 105.1
p732
ssS'232'
p733
(dp734
g6
V232
p735
sg8
VAstra 97.3
p736
ssS'233'
p737
(dp738
g6
V233
p739
sg8
V\u03a1\u03ac\u03b4\u03b9\u03bf \u039a\u03b9\u03b2\u03c9\u03c4\u03cc\u03c2 87.8
p740
ssS'1055'
p741
(dp742
g370
S'http://eco.onestreaming.com:8014/live'
p743
sg6
V1055
p744
sg8
VBleep Radio
p745
ssS'1059'
p746
(dp747
g370
S'http://188.40.131.14:6004/'
p748
sg6
V1059
p749
sg8
VCosi Radio
p750
ssS'146'
p751
(dp752
g370
S'mms://radio.istoikona.com/starfmcy'
p753
sg6
V146
p754
sg8
VStar Fm 93.7
p755
ssS'147'
p756
(dp757
g370
S'mms://radio.istoikona.com/rockfm'
p758
sg6
V147
p759
sg8
VRock Fm 98.5
p760
ssS'144'
p761
(dp762
g6
V144
p763
sg8
VMusicNetCy \u0388\u03bd\u03c4\u03b5\u03c7\u03bd\u03bf
p764
ssS'145'
p765
(dp766
g6
V145
p767
sg8
VKiss 89.0
p768
ssS'142'
p769
(dp770
g370
S'mms://radio.istoikona.com/sport1'
p771
sg6
V142
p772
sg8
VSports 1 93.7
p773
ssS'143'
p774
(dp775
g6
V143
p776
sg8
VChoice Fm 104.3
p777
ssS'140'
p778
(dp779
g370
S'mms://radio.istoikona.com/kanali61'
p780
sg6
V140
p781
sg8
V\u039a\u03b1\u03bd\u03ac\u03bb\u03b9 6 106
p782
ssS'141'
p783
(dp784
g370
S'mms://live.istoikona.com/astra'
p785
sg6
V141
p786
sg8
VAstra 92.8
p787
ssS'612'
p788
(dp789
g370
S'http://s3.onweb.gr:8536/'
p790
sg6
V612
p791
sg8
V\u0391\u03c1\u03b3\u03bf\u03c3\u03b1\u03c1\u03c9\u03bd\u03b9\u03ba\u03cc\u03c2 106.4
p792
ssS'613'
p793
(dp794
g6
V613
p795
sg8
VLa Radio
p796
ssS'610'
p797
(dp798
g370
S'http://www.streamyourdream.org/djlarisa'
p799
sg6
V610
p800
sg8
VLarissa Dee Jay 101.8
p801
ssS'611'
p802
(dp803
g6
V611
p804
sg8
VParanoise Radio
p805
ssS'616'
p806
(dp807
g370
S'http://109.169.26.78:9294'
p808
sg6
V616
p809
sg8
VMood Radio
p810
ssS'617'
p811
(dp812
g6
V617
p813
sg8
VSeek Fm
p814
ssS'148'
p815
(dp816
g6
V148
p817
sg8
V\u03a1\u03ac\u03b4\u03b9\u03bf \u03a0\u03ac\u03c6\u03bf\u03c2 93.7
p818
ssS'149'
p819
(dp820
g370
S'mms://a1113.l3271935112.c32719.g.lm.akamaistream.net/D/1113/32719/v0001/reflector:35112'
p821
sg6
V149
p822
sg8
V\u0395\u03a1\u0391 \u03a3\u03c0\u03bf\u03c1 101.8
p823
ssS'510'
p824
(dp825
g370
S'http://shoutcast.24radio.gr:8062/'
p826
sg6
V510
p827
sg8
V\u03a1\u03ac\u03b4\u03b9\u03bf \u039a\u03b1\u03c3\u03c4\u03bf\u03c1\u03b9\u03ac 93 Fm
p828
ssS'154'
p829
(dp830
g370
S'mms://a1964.l3271953963.c32719.g.lm.akamaistream.net/D/1964/32719/v0001/reflector:53963'
p831
sg6
V154
p832
sg8
V95.8 Fm
p833
ssS'513'
p834
(dp835
g370
S'http://188.40.131.14:8004'
p836
sg6
V513
p837
sg8
VSpace Fm 107
p838
ssS'946'
p839
(dp840
g6
V946
p841
sg8
VMadbox Radio
p842
ssS'515'
p843
(dp844
g370
S'http://eco.onestreaming.com:8168'
p845
sg6
V515
p846
sg8
VRadio In \u039b\u03b1\u03ca\u03ba\u03ac
p847
ssS'944'
p848
(dp849
g6
V944
p850
sg8
VEiva Radio
p851
ssS'945'
p852
(dp853
g6
V945
p854
sg8
VFly Fm
p855
ssS'943'
p856
(dp857
g6
V943
p858
sg8
VEnallax Radio
p859
ssS'940'
p860
(dp861
g6
V940
p862
sg8
VRadio Mostra
p863
ssS'941'
p864
(dp865
g370
S'http://live.onestreaming.com/aeolos'
p866
sg6
V941
p867
sg8
V\u03a1\u03ac\u03b4\u03b9\u03bf \u0391\u03af\u03bf\u03bb\u03bf\u03c2 92.8
p868
ssS'768'
p869
(dp870
g6
V768
p871
sg8
V\u0399\u03cc\u03bd\u03b9\u03bf\u03bd Fm \u03a0\u03ac\u03c4\u03c1\u03b1\u03c2 95.7
p872
ssS'689'
p873
(dp874
g6
V689
p875
sg8
VStatus Radio.net
p876
ssS'517'
p877
(dp878
g6
V517
p879
sg8
VRock Way
p880
ssS'685'
p881
(dp882
g370
S'http://live.onestreaming.com/koziani'
p883
sg6
V685
p884
sg8
V\u03a1\u03ac\u03b4\u03b9\u03bf \u039a\u03bf\u03b6\u03b9\u03ac\u03bd\u03b7
p885
ssS'684'
p886
(dp887
g6
V684
p888
sg8
VDerti 104.9
p889
ssS'687'
p890
(dp891
g370
S'http://live.onestreaming.com/radioionia'
p892
sg6
V687
p893
sg8
V\u03a1\u03ac\u03b4\u03b9\u03bf \u0399\u03c9\u03bd\u03af\u03b1 95.2
p894
ssS'686'
p895
(dp896
g370
S'http://s1.onweb.gr:8852/'
p897
sg6
V686
p898
sg8
V\u039a\u03c1\u03b7\u03c4\u03b9\u03ba\u03cc\u03c2 Fm 88.7
p899
ssS'681'
p900
(dp901
g370
S'http://s2.onweb.gr:8602/'
p902
sg6
V681
p903
sg8
V\u039a\u03bb\u03af\u03ba Fm 106.2
p904
ssS'680'
p905
(dp906
g370
S'http://live.onestreaming.com/super88'
p907
sg6
V680
p908
sg8
VSuper Radio 88
p909
ssS'683'
p910
(dp911
g6
V683
p912
sg8
V\u03a3\u03b1\u03bd\u03c4\u03bf\u03c1\u03af\u03bd\u03b7 106.4
p913
ssS'682'
p914
(dp915
g6
V682
p916
sg8
VTi Amo Fm 102.7
p917
ssS'133'
p918
(dp919
g6
V133
p920
sg8
VLove Radio 100.7
p921
ssS'132'
p922
(dp923
g370
S'http://live.onestreaming.com/mixfm'
p924
sg6
V132
p925
sg8
VMix Fm 102.3
p926
ssS'131'
p927
(dp928
g6
V131
p929
sg8
VEnergy 107.6
p930
ssS'130'
p931
(dp932
g370
S'mms://live.istoikona.com/sferacy'
p933
sg6
V130
p934
sg8
VSfera 96.8
p935
ssS'498'
p936
(dp937
g370
S'http://www.streamyourdream.org/djvolos'
p938
sg6
V498
p939
sg8
VVolos Dee Jay 90.7
p940
ssS'136'
p941
(dp942
g6
V136
p943
sg8
VRadio Dee Jay 93.6
p944
ssS'135'
p945
(dp946
g6
V135
p947
sg8
VSuper Sport Fm 104
p948
ssS'134'
p949
(dp950
g370
S'http://golive.onestreaming.com/radioproto'
p951
sg6
V134
p952
sg8
V\u03a1\u03ac\u03b4\u03b9\u03bf \u03a0\u03c1\u03ce\u03c4\u03bf 99.3
p953
ssS'494'
p954
(dp955
g370
S'http://208.43.115.44:8070'
p956
sg6
V494
p957
sg8
V\u0397\u03c7\u03cc\u03c1\u03b1\u03bc\u03b1
p958
ssS'495'
p959
(dp960
g6
V495
p961
sg8
VBalloni Radio
p962
ssS'139'
p963
(dp964
g370
S'mms://live.istoikona.com/topfmcy'
p965
sg6
V139
p966
sg8
VTop Fm 99.9
p967
ssS'497'
p968
(dp969
g370
S'http://drs953.live24.gr/drs953'
p970
sg6
V497
p971
sg8
VDRS 95.3 Disco Radio
p972
ssS'490'
p973
(dp974
g6
V490
p975
sg8
V\u039a\u03b1\u03c3\u03c4\u03ad\u03bb\u03bb\u03b9\u03b1 Radio
p976
ssS'491'
p977
(dp978
g6
V491
p979
sg8
VTEI Radio Digital
p980
ssS'492'
p981
(dp982
g6
V492
p983
sg8
V\u0394\u03c5\u03c4\u03b9\u03ba\u03ac Fm 96.1
p984
ssS'493'
p985
(dp986
g370
S'http://s3.onweb.gr:8524/'
p987
sg6
V493
p988
sg8
VInternational Fm 107.5
p989
ssS'24'
p990
(dp991
g370
S'mms://galaxy.live24.gr/galaxy9292'
p992
sg6
V24
p993
sg8
VGalaxy 92
p994
ssS'25'
p995
(dp996
g370
S'http://realfm.live24.gr/realfm'
p997
sg6
V25
p998
sg8
VReal Fm 97.8
p999
ssS'26'
p1000
(dp1001
g370
S'http://village883.live24.gr/village883'
p1002
sg6
V26
p1003
sg8
VV Fm 88.3
p1004
ssS'27'
p1005
(dp1006
g370
S'mms://derti.live24.gr/derty1000'
p1007
sg6
V27
p1008
sg8
VDerti 98.6
p1009
ssS'20'
p1010
(dp1011
g370
S'http://91.132.6.21:8001'
p1012
sg6
V20
p1013
sg8
VAthens Dee Jay 95.2
p1014
ssS'21'
p1015
(dp1016
g6
V21
p1017
sg8
VRock Fm 96.9
p1018
ssS'22'
p1019
(dp1020
g370
S'mms://orange.live24.gr/orange9320'
p1021
sg6
V22
p1022
sg8
VHappy 93.2
p1023
ssS'23'
p1024
(dp1025
g370
S'mms://enleuko.live24.gr/enleuko877'
p1026
sg6
V23
p1027
sg8
V\u0395\u03bd \u039b\u03b5\u03c5\u03ba\u03ce 87.7
p1028
ssS'28'
p1029
(dp1030
g370
S'http://diesi.live24.gr/diesi1013'
p1031
sg6
V28
p1032
sg8
V\u0394\u03af\u03b5\u03c3\u03b7 101.3
p1033
ssS'29'
p1034
(dp1035
g370
S'mms://sportfm.live24.gr/sportfm7712'
p1036
sg6
V29
p1037
sg8
VNova Sport Fm 94.6
p1038
ssS'407'
p1039
(dp1040
g6
V407
p1041
sg8
V\u03a1\u03ac\u03b4\u03b9\u03bf \u03a7\u03b5\u03c1\u03c3\u03cc\u03bd\u03b7\u03c3\u03c3\u03bf\u03c2 97.2
p1042
ssS'406'
p1043
(dp1044
g6
V406
p1045
sg8
VMetro 89.2
p1046
ssS'405'
p1047
(dp1048
g370
S'http://s3.onweb.gr:8438/'
p1049
sg6
V405
p1050
sg8
VMax 92.5
p1051
ssS'404'
p1052
(dp1053
g6
V404
p1054
sg8
VLava Fm 107.7
p1055
ssS'403'
p1056
(dp1057
g6
V403
p1058
sg8
V\u039d\u03ad\u03bf \u03a1\u03b1\u03b4\u03b9\u03cc\u03c6\u03c9\u03bd\u03bf 102.3
p1059
ssS'402'
p1060
(dp1061
g370
S'http://eco.onestreaming.com:8237/live'
p1062
sg6
V402
p1063
sg8
VRadio 98.4
p1064
ssS'401'
p1065
(dp1066
g370
S'http://s4.onweb.gr:8484'
p1067
sg6
V401
p1068
sg8
V\u039d\u03cc\u03c4\u03bf\u03c2 101.8
p1069
ssS'400'
p1070
(dp1071
g6
V400
p1072
sg8
V\u03a1\u03ac\u03b4\u03b9\u03bf \u039c\u03b1\u03c1\u03c4\u03c5\u03c1\u03af\u03b1 95.5
p1073
ssS'933'
p1074
(dp1075
g370
S'http://shoutcast.24radio.gr:8042/'
p1076
sg6
V933
p1077
sg8
VSfera 91
p1078
ssS'932'
p1079
(dp1080
g370
S'http://www.ghostradio.gr/world-128'
p1081
sg6
V932
p1082
sg8
VGhost Radio
p1083
ssS'409'
p1084
(dp1085
g6
V409
p1086
sg8
V\u0389\u03c7\u03bf\u03c2 Fm 94.2
p1087
ssS'934'
p1088
(dp1089
g6
V934
p1090
sg8
VMusic Box Fm
p1091
ssS'1028'
p1092
(dp1093
g6
V1028
p1094
sg8
V\u03a0\u03b1\u03bd\u03b9\u03ba\u03cc\u03c2 Fm
p1095
ssS'379'
p1096
(dp1097
g6
V379
p1098
sg8
VSmooth Traxx
p1099
ssS'378'
p1100
(dp1101
g6
V378
p1102
sg8
V\u03a7\u03c1\u03b9\u03c3\u03c4\u03b9\u03b1\u03bd\u03b9\u03ba\u03ae \u0391\u03bb\u03ae\u03b8\u03b5\u03b9\u03b1 88.4
p1103
ssS'228'
p1104
(dp1105
g370
S'mms://radio.greekstream.net/ekrixi'
p1106
sg6
V228
p1107
sg8
V\u0388\u03ba\u03c1\u03b7\u03be\u03b7 Fm 99.7
p1108
ssS'371'
p1109
(dp1110
g370
S'http://s1.onweb.gr:8008/'
p1111
sg6
V371
p1112
sg8
VAquarius 105.5
p1113
ssS'370'
p1114
(dp1115
g6
V370
p1116
sg8
V\u0395\u03bd\u03b1\u03bb\u03bb\u03ac\u03be Fm 99.9
p1117
ssS'373'
p1118
(dp1119
g370
S'mms://m2.onweb.gr/amorefm'
p1120
sg6
V373
p1121
sg8
VAmore Fm 107.9
p1122
ssS'372'
p1123
(dp1124
g370
S'http://s4.onweb.gr:8080'
p1125
sg6
V372
p1126
sg8
V\u03a1\u03ac\u03b4\u03b9\u03bf \u03a5\u03c0\u03ac\u03c1\u03c7\u03c9 103.7
p1127
ssS'375'
p1128
(dp1129
g370
S'mms://radiofeeds1.mediabox.gr/attradio'
p1130
sg6
V375
p1131
sg8
VAttradio
p1132
ssS'820'
p1133
(dp1134
g370
S'http://shoutcast.24radio.gr:8066/'
p1135
sg6
V820
p1136
sg8
VBee Radio
p1137
ssS'377'
p1138
(dp1139
g370
S'http://live.onestreaming.com/spyridon'
p1140
sg6
V377
p1141
sg8
V\u0386\u03b3\u03b9\u03bf\u03c2 \u03a3\u03c0\u03c5\u03c1\u03af\u03b4\u03c9\u03bd 91.1
p1142
ssS'376'
p1143
(dp1144
g6
V376
p1145
sg8
VIEK Delta Radio Alt.
p1146
ssS'709'
p1147
(dp1148
g6
V709
p1149
sg8
VEnergy Corfu 95.7
p1150
ssS'704'
p1151
(dp1152
g370
S'http://eco.onestreaming.com:8226'
p1153
sg6
V704
p1154
sg8
VTop Fm 96.9
p1155
ssS'705'
p1156
(dp1157
g6
V705
p1158
sg8
VStatus Radio 94.2
p1159
ssS'706'
p1160
(dp1161
g370
S'http://live.onestreaming.com/novamusic'
p1162
sg6
V706
p1163
sg8
VNova Radio 93.1
p1164
ssS'707'
p1165
(dp1166
g370
S'http://46.4.82.77:9998/'
p1167
sg6
V707
p1168
sg8
V\u03a7\u03c9\u03c1\u03af\u03c2 \u038c\u03c1\u03b9\u03b1
p1169
ssS'700'
p1170
(dp1171
g6
V700
p1172
sg8
VHello Radio
p1173
ssS'701'
p1174
(dp1175
g6
V701
p1176
sg8
VRadio Hxos Maik
p1177
ssS'702'
p1178
(dp1179
g370
S'http://relay4.mindradio.gr:80/live'
p1180
sg6
V702
p1181
sg8
VMind Radio
p1182
ssS'703'
p1183
(dp1184
g370
S'http://159.253.149.12:8094'
p1185
sg6
V703
p1186
sg8
VTropic Radio
p1187
ssS'393'
p1188
(dp1189
g370
S'http://s9.onweb.gr:8044/'
p1190
sg6
V393
p1191
sg8
VMad 95
p1192
ssS'392'
p1193
(dp1194
g370
S'http://s9.onweb.gr:8802'
p1195
sg6
V392
p1196
sg8
V\u03a1\u03ac\u03b4\u03b9\u03bf \u039b\u03b1\u03c3\u03ae\u03b8\u03b9 92.3
p1197
ssS'391'
p1198
(dp1199
g370
S'http://live.onestreaming.com/planetradio'
p1200
sg6
V391
p1201
sg8
VPlanet Radio 90.6
p1202
ssS'390'
p1203
(dp1204
g370
S'http://s4.onweb.gr:8466/'
p1205
sg6
V390
p1206
sg8
VRadio Melody 88
p1207
ssS'397'
p1208
(dp1209
g6
V397
p1210
sg8
V\u03a1\u03ac\u03b4\u03b9\u03bf \u039a\u03c1\u03ae\u03c4\u03b7 101.5
p1211
ssS'396'
p1212
(dp1213
g370
S'http://live.onestreaming.com/hxofm'
p1214
sg6
V396
p1215
sg8
V\u0397\u03c7\u03ce Fm 99.8
p1216
ssS'395'
p1217
(dp1218
g6
V395
p1219
sg8
V\u0394\u03af\u03b1\u03c5\u03bb\u03bf\u03c2 96.9
p1220
ssS'394'
p1221
(dp1222
g6
V394
p1223
sg8
VAtlantis Fm 105.2
p1224
ssS'82'
p1225
(dp1226
g370
S'http://imagine.1stepstream.com:8000/live'
p1227
sg6
V82
p1228
sg8
VImagine 89.7
p1229
ssS'83'
p1230
(dp1231
g6
V83
p1232
sg8
VVelvet 96.8
p1233
ssS'80'
p1234
(dp1235
g6
V80
p1236
sg8
VFm 100
p1237
ssS'398'
p1238
(dp1239
g6
V398
p1240
sg8
V\u039b\u03b1\u03c4\u03ce Fm 103.3
p1241
ssS'86'
p1242
(dp1243
g370
S'http://stream.greekradios.gr:4000'
p1244
sg6
V86
p1245
sg8
VRainbow 89
p1246
ssS'87'
p1247
(dp1248
g370
S'http://83.133.127.198:9096'
p1249
sg6
V87
p1250
sg8
VRock Radio 104.7
p1251
ssS'84'
p1252
(dp1253
g6
V84
p1254
sg8
V\u03a0\u03b1\u03bb\u03bc\u03cc\u03c2 96.5
p1255
ssS'85'
p1256
(dp1257
g6
V85
p1258
sg8
V\u038c\u03bb\u03b1 Fm 91.4
p1259
ssS'797'
p1260
(dp1261
g6
V797
p1262
sg8
VGiga Fm 105.4
p1263
ssS'794'
p1264
(dp1265
g6
V794
p1266
sg8
VRadio Mora
p1267
ssS'793'
p1268
(dp1269
g6
V793
p1270
sg8
V\u03a1\u03ac\u03b4\u03b9\u03bf \u0388\u03bd\u03c4\u03b5\u03c7\u03bd\u03bf\u03c2
p1271
ssS'791'
p1272
(dp1273
g370
S'http://shoutcast.24radio.gr:8056/'
p1274
sg6
V791
p1275
sg8
V\u03a1\u03ac\u03b4\u03b9\u03bf \u039c\u03ad\u03bb\u03b9 106
p1276
ssS'790'
p1277
(dp1278
g370
S'http://75.75.226.26:7099'
p1279
sg6
V790
p1280
sg8
VBlue Station
p1281
ssS'799'
p1282
(dp1283
g370
S'http://s8.onweb.gr:8706'
p1284
sg6
V799
p1285
sg8
VFresh 92.9
p1286
ssS'798'
p1287
(dp1288
g6
V798
p1289
sg8
VSchool Radio Ekali
p1290
ssS'601'
p1291
(dp1292
g6
V601
p1293
sg8
VGlam Radio
p1294
ssS'170'
p1295
(dp1296
g6
V170
p1297
sg8
VDance Radio Deep House
p1298
ssS'607'
p1299
(dp1300
g370
S'http://s2.onweb.gr:8600/'
p1301
sg6
V607
p1302
sg8
VDream Radio
p1303
ssS'586'
p1304
(dp1305
g370
S'http://ams02.egihosting.com/6020'
p1306
sg6
V586
p1307
sg8
VMelody 96.8
p1308
ssS'587'
p1309
(dp1310
g370
S'http://s6.onweb.gr:8046'
p1311
sg6
V587
p1312
sg8
VRadio Cafe 96.7
p1313
ssS'584'
p1314
(dp1315
g370
S'http://85.25.171.129:6000'
p1316
sg6
V584
p1317
sg8
V\u03a1\u03ac\u03b4\u03b9\u03bf \u0391\u03af\u03b3\u03b9\u03bf 99.2
p1318
ssS'585'
p1319
(dp1320
g6
V585
p1321
sg8
V\u03a1\u03ac\u03b4\u03b9\u03bf \u0395\u03bd\u03b7\u03bc\u03ad\u03c1\u03c9\u03c3\u03b7 92.2
p1322
ssS'582'
p1323
(dp1324
g370
S'http://78.46.46.214:7048'
p1325
sg6
V582
p1326
sg8
VMusic Art Club
p1327
ssS'583'
p1328
(dp1329
g6
V583
p1330
sg8
VAir 104.4
p1331
ssS'580'
p1332
(dp1333
g370
S'http://live.onestreaming.com/mixgrevena'
p1334
sg6
V580
p1335
sg8
VMix Fm 102.2
p1336
ssS'581'
p1337
(dp1338
g6
V581
p1339
sg8
VAntenna Star 105.9
p1340
ssS'588'
p1341
(dp1342
g370
S'http://s4.onweb.gr:8414'
p1343
sg6
V588
p1344
sg8
VMedia 92
p1345
ssS'589'
p1346
(dp1347
g370
S'http://s1.onweb.gr:8410/'
p1348
sg6
V589
p1349
sg8
VVenus Radio 99.3
p1350
ssS'245'
p1351
(dp1352
g6
V245
p1353
sg8
V\u039e\u03ac\u03bd\u03b8\u03b7 Dee Jay 90.6
p1354
ssS'244'
p1355
(dp1356
g370
S'http://s3.onweb.gr:8520'
p1357
sg6
V244
p1358
sg8
V\u03a1/\u03a3 \u0391\u03b3\u03b9\u03ac\u03c2 94.2
p1359
ssS'247'
p1360
(dp1361
g370
S'http://62.212.82.142:8033'
p1362
sg6
V247
p1363
sg8
VLive Fm 89.6
p1364
ssS'246'
p1365
(dp1366
g6
V246
p1367
sg8
V\u03a3\u03bf\u03ba Fm 104.8
p1368
ssS'241'
p1369
(dp1370
g6
V241
p1371
sg8
V\u0391\u03c1\u03b9\u03c3\u03c4\u03b5\u03c1\u03ac \u03a3\u03c4\u03b1 Fm 90.1
p1372
ssS'614'
p1373
(dp1374
g370
S'http://radio.mythosfm.gr:8010'
p1375
sg6
V614
p1376
sg8
V\u039c\u03cd\u03b8\u03bf\u03c2 Fm 90.6
p1377
ssS'243'
p1378
(dp1379
g370
S'http://eco.onestreaming.com:8103'
p1380
sg6
V243
p1381
sg8
V\u03a1/\u03a3 \u039a\u03b9\u03c3\u03c3\u03ac\u03b2\u03bf\u03c5 97.8
p1382
ssS'242'
p1383
(dp1384
g370
S'http://m1.onweb.gr/palace'
p1385
sg6
V242
p1386
sg8
VPalace 91.4
p1387
ssS'615'
p1388
(dp1389
g6
V615
p1390
sg8
VUp Fm 92.5
p1391
ssS'249'
p1392
(dp1393
g370
S'http://hotsoft.ws:8086/magicfm'
p1394
sg6
V249
p1395
sg8
VMagic Fm 98.2
p1396
ssS'248'
p1397
(dp1398
g6
V248
p1399
sg8
VKosmos Fm 100
p1400
ssS'519'
p1401
(dp1402
g370
S'http://188.40.131.14:8068/'
p1403
sg6
V519
p1404
sg8
VRadio Lepanto 101.4
p1405
ssS'518'
p1406
(dp1407
g6
V518
p1408
sg8
VStar Fm 90.9
p1409
ssS'511'
p1410
(dp1411
g6
V511
p1412
sg8
V\u03a7\u03af\u03bf\u03c2 Fm 97.8
p1413
ssS'1006'
p1414
(dp1415
g6
V1006
p1416
sg8
VMidnight Radio
p1417
ssS'1005'
p1418
(dp1419
g370
S'http://s2.onweb.gr:8654/'
p1420
sg6
V1005
p1421
sg8
VRadio1 Dance
p1422
ssS'512'
p1423
(dp1424
g6
V512
p1425
sg8
VDream On
p1426
ssS'1003'
p1427
(dp1428
g370
S'http://208.43.115.44:8138/'
p1429
sg6
V1003
p1430
sg8
VCannibal Radio
p1431
ssS'514'
p1432
(dp1433
g370
S'http://live.onestreaming.com/avanti'
p1434
sg6
V514
p1435
sg8
VAvanti Fm 98.3
p1436
ssS'1001'
p1437
(dp1438
g370
S'http://shout.streamwithq.gr:4104/'
p1439
sg6
V1001
p1440
sg8
VAntenna Fm12 94.4
p1441
ssS'1000'
p1442
(dp1443
g370
S'http://shout.streamwithq.gr:4066/'
p1444
sg6
V1000
p1445
sg8
V\u0391\u03ba\u03c4\u03af\u03bd\u03b1 Radio 104.7
p1446
ssS'623'
p1447
(dp1448
g6
V623
p1449
sg8
VVeto Fm 91
p1450
ssS'622'
p1451
(dp1452
g370
S'http://radionostalgiagr.dyndns.org:2314/'
p1453
sg6
V622
p1454
sg8
V\u03a1\u03ac\u03b4\u03b9\u03bf \u039d\u03bf\u03c3\u03c4\u03b1\u03bb\u03b3\u03af\u03b1
p1455
ssS'621'
p1456
(dp1457
g370
S'mms://captainjack.live24.gr/captainjack9660'
p1458
sg6
V621
p1459
sg8
V\u0394\u03af\u03c6\u03c9\u03bd\u03bf 96.6
p1460
ssS'620'
p1461
(dp1462
g6
V620
p1463
sg8
V\u03a1/\u03a3 \u039c\u03b5\u03c3\u03bf\u03bb\u03bf\u03b3\u03b3\u03af\u03bf\u03c5 92
p1464
ssS'627'
p1465
(dp1466
g6
V627
p1467
sg8
VArtemis Fm 94.4
p1468
ssS'626'
p1469
(dp1470
g370
S'http://golive.onestreaming.com/musices'
p1471
sg6
V626
p1472
sg8
VMusicES Radio
p1473
ssS'624'
p1474
(dp1475
g6
V624
p1476
sg8
V\u039a\u03b1\u03bd\u03ac\u03bb\u03b9 1 90.4
p1477
ssS'1085'
p1478
(dp1479
g4
S'http://shoutcast.24radio.gr:8022'
p1480
sg6
V1085
p1481
sg8
VHot Rockin Radio
p1482
ssS'179'
p1483
(dp1484
g370
S'http://s5.onweb.gr:8506/'
p1485
sg6
V179
p1486
sg8
VTraffic Fm 91.8
p1487
ssS'178'
p1488
(dp1489
g6
V178
p1490
sg8
VJust Radio 93
p1491
ssS'177'
p1492
(dp1493
g370
S'mms://kiss-fm-kard.live24.gr/kiss-fm-kard'
p1494
sg6
V177
p1495
sg8
VKiss 100.4
p1496
ssS'176'
p1497
(dp1498
g6
V176
p1499
sg8
VDiscomania
p1500
ssS'175'
p1501
(dp1502
g370
S'http://live.onestreaming.com/paradiseradio'
p1503
sg6
V175
p1504
sg8
VParadise 90.3
p1505
ssS'174'
p1506
(dp1507
g6
V174
p1508
sg8
VNoize Radio 93.5
p1509
ssS'173'
p1510
(dp1511
g370
S'http://s6.onweb.gr:8032'
p1512
sg6
V173
p1513
sg8
VKiss 96.1
p1514
ssS'172'
p1515
(dp1516
g370
S'http://eco.onestreaming.com:8068'
p1517
sg6
V172
p1518
sg8
VTop Fm
p1519
ssS'171'
p1520
(dp1521
g370
S'mms://live.onestreaming.com/radio996/'
p1522
sg6
V171
p1523
sg8
VRadio 99.6
p1524
ssS'198'
p1525
(dp1526
g6
V198
p1527
sg8
VHot Mix Fm 88
p1528
ssS'977'
p1529
(dp1530
g370
S'http://50.7.243.50:8062/'
p1531
sg6
V977
p1532
sg8
VLight Radio
p1533
ssS'183'
p1534
(dp1535
g6
V183
p1536
sg8
VNRG 89.5
p1537
ssS'654'
p1538
(dp1539
g6
V654
p1540
sg8
V\u0394\u03af\u03b1\u03c5\u03bb\u03bf\u03c2 91.1
p1541
ssS'182'
p1542
(dp1543
g6
V182
p1544
sg8
V\u03a1\u03ac\u03b4\u03b9\u03bf \u0388\u03bd\u03c4\u03b1\u03c3\u03b7 93.5
p1545
ssS'599'
p1546
(dp1547
g4
S'http://sportfmpatras.live24.gr/sportfmpatras'
p1548
sg6
V599
p1549
sg8
VSport Fm \u03a0\u03ac\u03c4\u03c1\u03b1\u03c2 96.3 
p1550
ssS'180'
p1551
(dp1552
g6
V180
p1553
sg8
VNRG 95
p1554
ssS'181'
p1555
(dp1556
g6
V181
p1557
sg8
VCapital 90.7
p1558
ssS'186'
p1559
(dp1560
g370
S'http://live.onestreaming.com/elladaradio'
p1561
sg6
V186
p1562
sg8
V\u0395\u03bb\u03bb\u03ac\u03b4\u03b1 Fm 96.7
p1563
ssS'653'
p1564
(dp1565
g6
V653
p1566
sg8
VBest Radio 101.1
p1567
ssS'184'
p1568
(dp1569
g6
V184
p1570
sg8
VMax 100.2
p1571
ssS'185'
p1572
(dp1573
g370
S'http://avantifm.live24.gr/avantifm'
p1574
sg6
V185
p1575
sg8
VAvanti 107.6
p1576
ssS'652'
p1577
(dp1578
g6
V652
p1579
sg8
V\u03a7\u03b1\u03bd\u03b9\u03ac Fm 33
p1580
ssS'188'
p1581
(dp1582
g6
V188
p1583
sg8
V\u03a1\u03ac\u03b4\u03b9\u03bf \u039c\u03b5\u03b8\u03cc\u03c1\u03b9\u03bf\u03c2 96
p1584
ssS'189'
p1585
(dp1586
g370
S'http://eco.onestreaming.com:8107/'
p1587
sg6
V189
p1588
sg8
V\u039a\u03b1\u03c3\u03c4\u03bf\u03c1\u03b9\u03ac Fm 91.5
p1589
ssS'658'
p1590
(dp1591
g370
S'http://radio.metalzone.gr/listen.php?type=asx'
p1592
sg6
V658
p1593
sg8
VMetal Zone
p1594
ssS'187'
p1595
(dp1596
g6
V187
p1597
sg8
V\u0395\u03bb\u03bb\u03ac\u03b4\u03b1 Fm 98.7
p1598
ssS'650'
p1599
(dp1600
g370
S'http://shoutcast.24radio.gr:8068'
p1601
sg6
V650
p1602
sg8
V\u0388\u03bd\u03c4\u03b5\u03c7\u03bd\u03bf\u03c2 Fm
p1603
ssS'651'
p1604
(dp1605
g6
V651
p1606
sg8
V\u03a1\u03ac\u03b4\u03b9\u03bf \u0395\u03c0\u03b9\u03bb\u03bf\u03b3\u03ad\u03c2 102.8
p1607
ssS'17'
p1608
(dp1609
g370
S'http://shoutcast.24radio.gr:8000'
p1610
sg6
V17
p1611
sg8
VHybrid Radio 94.9
p1612
ssS'19'
p1613
(dp1614
g370
S'mms://nordr.live24.gr/rythmos949ath'
p1615
sg6
V19
p1616
sg8
V\u03a1\u03c5\u03b8\u03bc\u03cc\u03c2 94.9
p1617
ssS'18'
p1618
(dp1619
g370
S'http://shoutcast.24radio.gr:8002'
p1620
sg6
V18
p1621
sg8
VRockStar
p1622
ssS'947'
p1623
(dp1624
g6
V947
p1625
sg8
VWild Radio
p1626
ssS'659'
p1627
(dp1628
g6
V659
p1629
sg8
V\u03a1\u03ac\u03b4\u03b9\u03bf \u03a7\u03b1\u03bb\u03ba\u03af\u03b4\u03b1 99.6
p1630
ssS'753'
p1631
(dp1632
g370
S'http://shoutcast.24radio.gr:8042/'
p1633
sg6
V753
p1634
sg8
VSpace Fm 107.5
p1635
ssS'116'
p1636
(dp1637
g6
V116
p1638
sg8
VPirate Fm 91
p1639
ssS'45'
p1640
(dp1641
g370
S'mms://flash.live24.gr/flash5252'
p1642
sg6
V45
p1643
sg8
VFlash 96
p1644
ssS'657'
p1645
(dp1646
g6
V657
p1647
sg8
VCity 93
p1648
ssS'355'
p1649
(dp1650
g6
V355
p1651
sg8
VLove Radio 105.5
p1652
ssS'322'
p1653
(dp1654
g370
S'http://shout.streamwithq.gr:4110/'
p1655
sg6
V322
p1656
sg8
VRadio Retro 105.4
p1657
ssS'323'
p1658
(dp1659
g370
S'http://live.onestreaming.com/radionetlamia'
p1660
sg6
V323
p1661
sg8
VRadio Net 101.9
p1662
ssS'320'
p1663
(dp1664
g370
S'http://hotsoft.ws:8086/mk?.wma'
p1665
sg6
V320
p1666
sg8
V\u039c\u03bf\u03c5\u03c3\u03b9\u03ba\u03cc \u039a\u03b1\u03bd\u03ac\u03bb\u03b9 101.3
p1667
ssS'354'
p1668
(dp1669
g370
S'http://s1.onweb.gr:8838'
p1670
sg6
V354
p1671
sg8
VMaximum 93.6
p1672
ssS'326'
p1673
(dp1674
g6
V326
p1675
sg8
VSports \u0395\u03c0\u03b9\u03bb\u03bf\u03b3\u03ad\u03c2 105.5
p1676
ssS'324'
p1677
(dp1678
g370
S'mms://live.istoikona.com/topfm'
p1679
sg6
V324
p1680
sg8
VTop Fm 102.4
p1681
ssS'325'
p1682
(dp1683
g6
V325
p1684
sg8
VSport Fm \u039e\u03ac\u03bd\u03b8\u03b7 98.4
p1685
ssS'328'
p1686
(dp1687
g6
V328
p1688
sg8
VRadio 24
p1689
ssS'329'
p1690
(dp1691
g370
S'http://www.streamyourdream.org:8000/acroama'
p1692
sg6
V329
p1693
sg8
V\u0391\u03ba\u03c1\u03cc\u03b1\u03bc\u03b1 99.8
p1694
ssS'688'
p1695
(dp1696
g370
S'http://78.46.46.215:7056'
p1697
sg6
V688
p1698
sg8
VBaby Radio
p1699
ssS'775'
p1700
(dp1701
g370
S'http://streaming.hotmix-radio.net/hotmixradio-80-128.mp3'
p1702
sg6
V775
p1703
sg8
VYeah! Radio
p1704
ssS'774'
p1705
(dp1706
g6
V774
p1707
sg8
VMusicmania
p1708
ssS'203'
p1709
(dp1710
g370
S'http://stream.greekradios.gr:8050'
p1711
sg6
V203
p1712
sg8
V\u03a0\u03b1\u03bb\u03bc\u03cc\u03c2 99.5
p1713
ssS'202'
p1714
(dp1715
g370
S'http://s1.onweb.gr:8076/'
p1716
sg6
V202
p1717
sg8
VRadio1 88
p1718
ssS'771'
p1719
(dp1720
g370
S'http://streams.gr:8060/gafm'
p1721
sg6
V771
p1722
sg8
V\u0393\u03b1\u03bb\u03b1\u03be\u03af\u03b1\u03c2 Fm 92.1
p1723
ssS'204'
p1724
(dp1725
g6
V204
p1726
sg8
VHot Radio 99
p1727
ssS'773'
p1728
(dp1729
g6
V773
p1730
sg8
VAlpha 94.7
p1731
ssS'206'
p1732
(dp1733
g6
V206
p1734
sg8
VRodos Fm 90.7
p1735
ssS'209'
p1736
(dp1737
g6
V209
p1738
sg8
V\u03a1\u03ac\u03b4\u03b9\u03bf \u039b\u03b5\u03c5\u03ba\u03af\u03bc\u03bc\u03b7 105.5
p1739
ssS'208'
p1740
(dp1741
g6
V208
p1742
sg8
VPrisma Fm 91.8
p1743
ssS'779'
p1744
(dp1745
g6
V779
p1746
sg8
V\u03a1\u03c5\u03b8\u03bc\u03cc\u03c2 Fm 106
p1747
ssS'778'
p1748
(dp1749
g370
S'http://live.camstreams.com/misconfig.wmv'
p1750
sg6
V778
p1751
sg8
V\u03a3\u03c6\u03b7\u03bd\u03ac\u03ba\u03b9\u03b1 Fm 97.3
p1752
ssS'77'
p1753
(dp1754
g370
S'http://78.129.143.157:8000/heartfm'
p1755
sg6
V77
p1756
sg8
VHeart 93.1
p1757
ssS'76'
p1758
(dp1759
g6
V76
p1760
sg8
V\u039b\u03b1\u03ca\u03ba\u03cc\u03c2 87.6
p1761
ssS'75'
p1762
(dp1763
g6
V75
p1764
sg8
VRSO 91.7
p1765
ssS'74'
p1766
(dp1767
g6
V74
p1768
sg8
VMetropolis 95.5
p1769
ssS'73'
p1770
(dp1771
g370
S'http://178.32.72.194:8050/eroticos'
p1772
sg6
V73
p1773
sg8
V\u0395\u03c1\u03c9\u03c4\u03b9\u03ba\u03cc\u03c2 94.8
p1774
ssS'72'
p1775
(dp1776
g370
S'http://178.32.72.194:8060/rthes'
p1777
sg6
V72
p1778
sg8
V\u03a1\u03ac\u03b4\u03b9\u03bf \u0398\u03b5\u03c3\u03c3\u03b1\u03bb\u03bf\u03bd\u03af\u03ba\u03b7 94.5
p1779
ssS'71'
p1780
(dp1781
g370
S'http://eco.onestreaming.com:8083'
p1782
sg6
V71
p1783
sg8
VSunshine 107.7
p1784
ssS'70'
p1785
(dp1786
g370
S'http://eco.onestreaming.com:8081'
p1787
sg6
V70
p1788
sg8
VLibero 107.4
p1789
ssS'655'
p1790
(dp1791
g6
V655
p1792
sg8
VPowerMix Fm
p1793
ssS'79'
p1794
(dp1795
g370
S'http://golive.onestreaming.com/sport103'
p1796
sg6
V79
p1797
sg8
VSport 103 Fm
p1798
ssS'78'
p1799
(dp1800
g370
S'http://sc2.greekstream.net:4012'
p1801
sg6
V78
p1802
sg8
V\u0388\u03ba\u03c6\u03c1\u03b1\u03c3\u03b7 92.4
p1803
ssS'1040'
p1804
(dp1805
g370
S'http://s2.onweb.gr:8604/'
p1806
sg6
V1040
p1807
sg8
V\u03a7\u03b1\u03bd\u03b9\u03ac Fm 98.9
p1808
ssS'1048'
p1809
(dp1810
g370
S'http://85.17.177.77:8010'
p1811
sg6
V1048
p1812
sg8
VGo Radio
p1813
ssS'804'
p1814
(dp1815
g6
V804
p1816
sg8
VNikos Radio
p1817
ssS'669'
p1818
(dp1819
g6
V669
p1820
sg8
V\u039b\u03ac\u03bc\u03c8\u03b7 106.3
p1821
ssS'668'
p1822
(dp1823
g370
S'http://s6.onweb.gr:8018/'
p1824
sg6
V668
p1825
sg8
V\u03a1\u03ac\u03b4\u03b9\u03bf \u03a0\u03b9\u03b5\u03c1\u03af\u03b1 104.2
p1826
ssS'667'
p1827
(dp1828
g6
V667
p1829
sg8
VSafari 106.7
p1830
ssS'666'
p1831
(dp1832
g6
V666
p1833
sg8
VHit Fm 103.5
p1834
ssS'664'
p1835
(dp1836
g370
S'http://s5.onweb.gr:8488'
p1837
sg6
V664
p1838
sg8
VCavo Paradiso Radio
p1839
ssS'663'
p1840
(dp1841
g370
S'http://s2.onweb.gr:8648/'
p1842
sg6
V663
p1843
sg8
V\u03a1\u03ac\u03b4\u03b9\u03bf \u0391\u03c0\u03cc\u03bb\u03bb\u03c9\u03bd
p1844
ssS'662'
p1845
(dp1846
g6
V662
p1847
sg8
VElectrocaine Radio
p1848
ssS'661'
p1849
(dp1850
g370
S'http://s3.onweb.gr:8514'
p1851
sg6
V661
p1852
sg8
VMelody Fm 88.8
p1853
ssS'660'
p1854
(dp1855
g6
V660
p1856
sg8
VVenus 91.1
p1857
ssS'769'
p1858
(dp1859
g6
V769
p1860
sg8
VTop Fm 105
p1861
ssS'692'
p1862
(dp1863
g6
V692
p1864
sg8
VAlina Radio
p1865
ssS'693'
p1866
(dp1867
g6
V693
p1868
sg8
V\u039b\u03ac\u03bc\u03c8\u03b7 88.6
p1869
ssS'690'
p1870
(dp1871
g6
V690
p1872
sg8
VGap Radio
p1873
ssS'691'
p1874
(dp1875
g370
S'http://minorefm.live24.gr/minorefm'
p1876
sg6
V691
p1877
sg8
V\u039c\u03b9\u03bd\u03cc\u03c1\u03b5 Fm
p1878
ssS'696'
p1879
(dp1880
g370
S'http://108.60.201.114:8150'
p1881
sg6
V696
p1882
sg8
V\u0395\u03bb\u03bb\u03b7\u03bd\u03b9\u03ba\u03cc\u03c2 Fm
p1883
ssS'697'
p1884
(dp1885
g6
V697
p1886
sg8
VRadio Romeos Fm 94
p1887
ssS'694'
p1888
(dp1889
g6
V694
p1890
sg8
VDance Radio Progressive
p1891
ssS'695'
p1892
(dp1893
g370
S'http://s1.onweb.gr:8034/'
p1894
sg6
V695
p1895
sg8
V\u039c\u03bf\u03c5\u03c3\u03b9\u03ba\u03cc\u03c2 \u0393\u03b1\u03bb\u03b1\u03be\u03af\u03b1\u03c2 105.8
p1896
ssS'699'
p1897
(dp1898
g6
V699
p1899
sg8
VPlace Fm
p1900
ssS'222'
p1901
(dp1902
g6
V222
p1903
sg8
V\u0395\u03c0\u03b9\u03ba\u03bf\u03b9\u03bd\u03c9\u03bd\u03af\u03b1 Fm 94
p1904
ssS'543'
p1905
(dp1906
g6
V543
p1907
sg8
V\u03a1\u03ac\u03b4\u03b9\u03bf \u0391\u03ba\u03b1\u03c1\u03bd\u03b1\u03bd\u03af\u03b1 97.1
p1908
ssS'540'
p1909
(dp1910
g6
V540
p1911
sg8
VGalaxy Fm 106.1
p1912
ssS'541'
p1913
(dp1914
g370
S'http://shoutcast.24radio.gr:8014'
p1915
sg6
V541
p1916
sg8
VMaster Fm 90.2
p1917
ssS'546'
p1918
(dp1919
g6
V546
p1920
sg8
VSiesta Radio
p1921
ssS'547'
p1922
(dp1923
g370
S'http://shout.streamwithq.gr:4100/'
p1924
sg6
V547
p1925
sg8
V\u039a\u03c1\u03b7\u03c4\u03b9\u03ba\u03ae \u03a1\u03b1\u03b4\u03b9\u03bf\u03c6\u03c9\u03bd\u03af\u03b1 \u0391\u03c4\u03c4\u03b9\u03ba\u03ae\u03c2 91.4
p1926
ssS'544'
p1927
(dp1928
g370
S'http://78.46.46.215:7040/'
p1929
sg6
V544
p1930
sg8
V\u0395\u03c1\u03c9\u03b4\u03b9\u03cc\u03c2 \u039b\u03b1\u03b9\u03ba\u03cc\u03c2
p1931
ssS'545'
p1932
(dp1933
g370
S'http://147.102.85.34:8000'
p1934
sg6
V545
p1935
sg8
V98 Fm
p1936
ssS'548'
p1937
(dp1938
g6
V548
p1939
sg8
V\u03a1\u03ac\u03b4\u03b9\u03bf \u039a\u03c1\u03ae\u03c4\u03b5\u03c2
p1940
ssS'549'
p1941
(dp1942
g370
S'mms://live.istoikona.com/lgr'
p1943
sg6
V549
p1944
sg8
VLGR 103.3
p1945
ssS'994'
p1946
(dp1947
g370
S'http://109.169.26.190:8018'
p1948
sg6
V994
p1949
sg8
VGr8 Radio
p1950
ssS'990'
p1951
(dp1952
g6
V990
p1953
sg8
VPs Radio
p1954
ssS'993'
p1955
(dp1956
g370
S'http://shout.streamwithq.gr:4138/'
p1957
sg6
V993
p1958
sg8
V\u0391\u03bb\u03ae\u03b8\u03b5\u03b9\u03b1 Fm 96.3 
p1959
ssS'992'
p1960
(dp1961
g370
S'http://p8060.thewood.gr:9596/'
p1962
sg6
V992
p1963
sg8
VAthens One Fm
p1964
ssS'999'
p1965
(dp1966
g370
S'http://178.32.57.58:8557/'
p1967
sg6
V999
p1968
sg8
VDisco 80\u005c's Radio
p1969
ssS'998'
p1970
(dp1971
g370
S'http://shoutcast.24radio.gr:8022/'
p1972
sg6
V998
p1973
sg8
VDance Radio Cyprus
p1974
ssS'120'
p1975
(dp1976
g6
V120
p1977
sg8
V\u03a1\u03ac\u03b4\u03b9\u03bf \u0391\u03ba\u03c1\u03af\u03c4\u03b5\u03c2 102.3
p1978
ssS'121'
p1979
(dp1980
g370
S'http://eco.onestreaming.com:8150'
p1981
sg6
V121
p1982
sg8
VYou Fm 100.1
p1983
ssS'123'
p1984
(dp1985
g370
S'http://stream.kiss922.gr:59922/'
p1986
sg6
V123
p1987
sg8
VKiss 92.2
p1988
ssS'124'
p1989
(dp1990
g370
S'http://golive.onestreaming.com/thepopfm'
p1991
sg6
V124
p1992
sg8
VThe Pop Fm 98.6
p1993
ssS'125'
p1994
(dp1995
g370
S'http://live.onestreaming.com/radioactive'
p1996
sg6
V125
p1997
sg8
VRadio Active 91.3
p1998
ssS'126'
p1999
(dp2000
g370
S'http://live.onestreaming.com/anemosfm'
p2001
sg6
V126
p2002
sg8
V\u0386\u03bd\u03b5\u03bc\u03bf\u03c2 95.6
p2003
ssS'127'
p2004
(dp2005
g370
S'http://s4.onweb.gr:8428'
p2006
sg6
V127
p2007
sg8
V\u0391\u03c1\u03c7\u03b9\u03c0\u03ad\u03bb\u03b1\u03b3\u03bf\u03c2 87.6
p2008
ssS'128'
p2009
(dp2010
g6
V128
p2011
sg8
VLove Radio 88.2
p2012
ssS'129'
p2013
(dp2014
g370
S'mms://live.istoikona.com/super'
p2015
sg6
V129
p2016
sg8
VSuper Radio 104.7
p2017
ssS'414'
p2018
(dp2019
g370
S'mms://194.219.230.1:3690'
p2020
sg6
V414
p2021
sg8
VMega Creta 103.1
p2022
ssS'415'
p2023
(dp2024
g6
V415
p2025
sg8
V\u0394\u03af\u03ba\u03c4\u03c5\u03bf 102.4
p2026
ssS'416'
p2027
(dp2028
g6
V416
p2029
sg8
VAqualand Radio 94.8
p2030
ssS'410'
p2031
(dp2032
g6
V410
p2033
sg8
V\u039a\u03bd\u03c9\u03c3\u03cc\u03c2 Fm 100.6
p2034
ssS'411'
p2035
(dp2036
g370
S'http://eco.onestreaming.com:8209'
p2037
sg6
V411
p2038
sg8
VCool Fm 106.8
p2039
ssS'412'
p2040
(dp2041
g370
S'http://live.onestreaming.com/lampsifmcrete'
p2042
sg6
V412
p2043
sg8
V\u039b\u03ac\u03bc\u03c8\u03b7 92.9
p2044
ssS'413'
p2045
(dp2046
g6
V413
p2047
sg8
VAlpha Radio 106.2
p2048
ssS'137'
p2049
(dp2050
g6
V137
p2051
sg8
V\u039a\u03bb\u03af\u03ba Fm 105.6
p2052
ssS'922'
p2053
(dp2054
g370
S'http://67.212.189.122:8151'
p2055
sg6
V922
p2056
sg8
V\u039c\u03ac\u03bd\u03b4\u03c1\u03b1 \u03a1\u03ac\u03b4\u03b9\u03bf
p2057
ssS'319'
p2058
(dp2059
g6
V319
p2060
sg8
VStudio A 102.7
p2061
ssS'318'
p2062
(dp2063
g370
S'http://live.onestreaming.com/radioelassona'
p2064
sg6
V318
p2065
sg8
V\u03a1\u03ac\u03b4\u03b9\u03bf \u0395\u03bb\u03b1\u03c3\u03c3\u03cc\u03bd\u03b1 88.4
p2066
ssS'313'
p2067
(dp2068
g6
V313
p2069
sg8
V\u038c\u03bc\u03bf\u03c1\u03c6\u03b7 \u03a0\u03cc\u03bb\u03b7 89.9
p2070
ssS'312'
p2071
(dp2072
g370
S'http://s1.onweb.gr:8028/'
p2073
sg6
V312
p2074
sg8
V\u039a\u03cd\u03bc\u03b1 Fm 90.3
p2075
ssS'311'
p2076
(dp2077
g370
S'http://live.onestreaming.com/style100'
p2078
sg6
V311
p2079
sg8
VStyle 100
p2080
ssS'310'
p2081
(dp2082
g6
V310
p2083
sg8
V\u039b\u03cc\u03b3\u03bf\u03c2 Radio 101.1
p2084
ssS'317'
p2085
(dp2086
g6
V317
p2087
sg8
V\u03a1\u03ac\u03b4\u03b9\u03bf \u0389\u03c0\u03b5\u03b9\u03c1\u03bf\u03c2 94.5
p2088
ssS'316'
p2089
(dp2090
g6
V316
p2091
sg8
VCreta Planet 
p2092
ssS'315'
p2093
(dp2094
g370
S'http://live.onestreaming.com/elpar'
p2095
sg6
V315
p2096
sg8
V\u0395\u03bb\u03bb\u03b7\u03bd\u03b9\u03ba\u03cc \u03a0\u03b1\u03c1\u03b1\u03b4\u03bf\u03c3\u03b9\u03b1\u03ba\u03cc
p2097
ssS'314'
p2098
(dp2099
g6
V314
p2100
sg8
V\u0396\u03b9\u03b6\u03ac\u03bd\u03b9\u03bf 89.2
p2101
ssS'496'
p2102
(dp2103
g6
V496
p2104
sg8
V\u0395\u03bb\u03bb\u03b7\u03bd\u03bf\u03a1\u03ac\u03b4\u03b9\u03bf
p2105
ssS'138'
p2106
(dp2107
g370
S'mms://radio.istoikona.com/zenith'
p2108
sg6
V138
p2109
sg8
VZenith Radio 96.4
p2110
ssS'725'
p2111
(dp2112
g370
S'http://shoutcast.24radio.gr:8004/'
p2113
sg6
V725
p2114
sg8
VAthens Jukebox Radio
p2115
ssS'368'
p2116
(dp2117
g370
S'mms://broadcast.hol.gr/IonionFMU'
p2118
sg6
V368
p2119
sg8
V\u0399\u03cc\u03bd\u03b9\u03bf\u03bd Fm \u0397\u03bb\u03b5\u03af\u03b1\u03c2 95.5
p2120
ssS'369'
p2121
(dp2122
g370
S'http://shoutcast.24radio.gr:8044/'
p2123
sg6
V369
p2124
sg8
VRSA 91.1
p2125
ssS'366'
p2126
(dp2127
g370
S'http://46.4.65.194:8021'
p2128
sg6
V366
p2129
sg8
VVox 103.3
p2130
ssS'367'
p2131
(dp2132
g6
V367
p2133
sg8
VOrt Fm 92.3
p2134
ssS'364'
p2135
(dp2136
g370
S'http://s6.onweb.gr:8034'
p2137
sg6
V364
p2138
sg8
V\u03a1\u03ac\u03b4\u03b9\u03bf \u039c\u03bf\u03af\u03c1\u03b5\u03c2 97.1
p2139
ssS'365'
p2140
(dp2141
g370
S'http://s5.onweb.gr:8418'
p2142
sg6
V365
p2143
sg8
V\u03a3\u03bf\u03c7\u03cc\u03c2 Fm 88.7
p2144
ssS'362'
p2145
(dp2146
g370
S'http://s3.onweb.gr:8500'
p2147
sg6
V362
p2148
sg8
V\u0391\u03c1\u03bc\u03bf\u03bd\u03af\u03b1 Fm 103.2
p2149
ssS'363'
p2150
(dp2151
g370
S'http://s3.onweb.gr:8438'
p2152
sg6
V363
p2153
sg8
V\u039b\u03ad\u03c3\u03c7\u03b7 97.6
p2154
ssS'360'
p2155
(dp2156
g370
S'http://s1.onweb.gr:8098/'
p2157
sg6
V360
p2158
sg8
V\u03a0\u03ac\u03c1\u03bf\u03c2 Fm 98.5
p2159
ssS'361'
p2160
(dp2161
g370
S'http://s1.onweb.gr:8066'
p2162
sg6
V361
p2163
sg8
V\u0391\u03ba\u03c1\u03cc\u03b1\u03bc\u03b1 94.6
p2164
ssS'380'
p2165
(dp2166
g6
V380
p2167
sg8
V\u0397\u03c7\u03ce Fm 102.1
p2168
ssS'381'
p2169
(dp2170
g6
V381
p2171
sg8
VRadio Point
p2172
ssS'382'
p2173
(dp2174
g6
V382
p2175
sg8
VBassline Chill Out
p2176
ssS'383'
p2177
(dp2178
g6
V383
p2179
sg8
VBassline Progressive Trance
p2180
ssS'384'
p2181
(dp2182
g6
V384
p2183
sg8
VUnderground Radio 100.3
p2184
ssS'385'
p2185
(dp2186
g6
V385
p2187
sg8
VDream Fm 103.5
p2188
ssS'386'
p2189
(dp2190
g6
V386
p2191
sg8
VParadise Radio 104.6
p2192
ssS'387'
p2193
(dp2194
g6
V387
p2195
sg8
VLips Radio
p2196
ssS'388'
p2197
(dp2198
g370
S'http://s6.onweb.gr:8036/'
p2199
sg6
V388
p2200
sg8
V\u039a\u03ad\u03bd\u03c4\u03c1\u03bf \u039a\u03b1\u03c1\u03b4\u03b9\u03ac\u03c2 95
p2201
ssS'389'
p2202
(dp2203
g6
V389
p2204
sg8
VClub Fm 93.7
p2205
ssS'784'
p2206
(dp2207
g370
S'http://shout.streamwithq.gr:4064/'
p2208
sg6
V784
p2209
sg8
V\u0393\u03ac\u03c5\u03b4\u03bf\u03c2 Fm 88.8
p2210
ssS'785'
p2211
(dp2212
g6
V785
p2213
sg8
VEnjoy Radio 105.7
p2214
ssS'786'
p2215
(dp2216
g6
V786
p2217
sg8
VAthens Fm
p2218
ssS'780'
p2219
(dp2220
g370
S'http://s6.onweb.gr:8002/'
p2221
sg6
V780
p2222
sg8
VLegend Fm 101.6
p2223
ssS'781'
p2224
(dp2225
g6
V781
p2226
sg8
VKing Fm 107.8
p2227
ssS'782'
p2228
(dp2229
g6
V782
p2230
sg8
VRockha Radio
p2231
ssS'788'
p2232
(dp2233
g370
S'http://83.170.89.19:9868'
p2234
sg6
V788
p2235
sg8
VGod Radio
p2236
ssS'789'
p2237
(dp2238
g6
V789
p2239
sg8
VMagic Fm 100
p2240
ssS'579'
p2241
(dp2242
g370
S'http://live.onestreaming.com/ant1cy'
p2243
sg6
V579
p2244
sg8
VAnt1 Fm 102.7
p2245
ssS'578'
p2246
(dp2247
g6
V578
p2248
sg8
VStatus Radio
p2249
ssS'150'
p2250
(dp2251
g370
S'mms://a1709.l3271943708.c32719.g.lm.akamaistream.net/D/1709/32719/v0001/reflector:43708'
p2252
sg6
V150
p2253
sg8
VNet 105.8
p2254
ssS'573'
p2255
(dp2256
g370
S'http://s3.onweb.gr:8474'
p2257
sg6
V573
p2258
sg8
VStudio A 1000
p2259
ssS'572'
p2260
(dp2261
g6
V572
p2262
sg8
VDeep Breath
p2263
ssS'571'
p2264
(dp2265
g6
V571
p2266
sg8
VStudio 306
p2267
ssS'570'
p2268
(dp2269
g370
S'http://208.43.115.44:8262/'
p2270
sg6
V570
p2271
sg8
VMr Soul Radio
p2272
ssS'577'
p2273
(dp2274
g6
V577
p2275
sg8
VPing Pong Radio
p2276
ssS'576'
p2277
(dp2278
g6
V576
p2279
sg8
V\u039c\u03b5\u03bb\u03c9\u03b4\u03b9\u03ba\u03cc\u03c2
p2280
ssS'575'
p2281
(dp2282
g6
V575
p2283
sg8
VR06
p2284
ssS'574'
p2285
(dp2286
g6
V574
p2287
sg8
VWasteland 
p2288
ssS'60'
p2289
(dp2290
g370
S'http://shoutcast.24radio.gr:8074'
p2291
sg6
V60
p2292
sg8
VRadio 98.2
p2293
ssS'61'
p2294
(dp2295
g370
S'http://shout.streamwithq.gr:4044/'
p2296
sg6
V61
p2297
sg8
VFly 95.9
p2298
ssS'258'
p2299
(dp2300
g6
V258
p2301
sg8
V\u0391\u03bd\u03b1\u03c4\u03bf\u03bb\u03b9\u03ba\u03cc\u03c2 Fm 95.8
p2302
ssS'259'
p2303
(dp2304
g370
S'http://174.36.237.66:8220/'
p2305
sg6
V259
p2306
sg8
V\u03a1\u03c5\u03b8\u03bc\u03cc\u03c2 Fm 103.8
p2307
ssS'64'
p2308
(dp2309
g370
S'mms://radiofeeds1.mediabox.gr/kentrofm'
p2310
sg6
V64
p2311
sg8
V\u039a\u03ad\u03bd\u03c4\u03c1\u03bf Fm 98.2
p2312
ssS'66'
p2313
(dp2314
g370
S'http://streamx2.greekradios.gr:8000'
p2315
sg6
V66
p2316
sg8
VRepublic 100.3
p2317
ssS'67'
p2318
(dp2319
g370
S'http://radio.onweb.gr:8078/'
p2320
sg6
V67
p2321
sg8
VRock 105.5
p2322
ssS'252'
p2323
(dp2324
g370
S'http://62.1.195.86:2281'
p2325
sg6
V252
p2326
sg8
V\u03a7\u03b9\u03b1\u03ba\u03ae \u03a6\u03c9\u03bd\u03ae 90
p2327
ssS'69'
p2328
(dp2329
g6
V69
p2330
sg8
VAnt1 97.5
p2331
ssS'250'
p2332
(dp2333
g370
S'http://s3.onweb.gr:8032'
p2334
sg6
V250
p2335
sg8
VD-Code 96.2
p2336
ssS'251'
p2337
(dp2338
g370
S'http://s1.onweb.gr:8040'
p2339
sg6
V251
p2340
sg8
V\u03a1\u03ac\u03b4\u03b9\u03bf \u03a1\u03b9\u03b6\u03af\u03c4\u03b5\u03c2 92.4
p2341
ssS'256'
p2342
(dp2343
g370
S'http://shoutcast.24radio.gr:8064/'
p2344
sg6
V256
p2345
sg8
VCool Fm 90.7
p2346
ssS'257'
p2347
(dp2348
g370
S'http://s6.onweb.gr:8026'
p2349
sg6
V257
p2350
sg8
VOrange Radio 91.1
p2351
ssS'254'
p2352
(dp2353
g370
S'http://live.onestreaming.com/aegeanant1'
p2354
sg6
V254
p2355
sg8
VAnt1 \u0391\u03b9\u03b3\u03b1\u03af\u03bf\u03c5 105
p2356
ssS'255'
p2357
(dp2358
g6
V255
p2359
sg8
V\u03a1\u03ac\u03b4\u03b9\u03bf \u0386\u03bb\u03c6\u03b1 96
p2360
ssS'157'
p2361
(dp2362
g370
S'http://a240.l827440239.c8274.g.lm.akamaistream.net/D/240/8274/v0001/reflector:40239'
p2363
sg6
V157
p2364
sg8
V\u03a3\u03ba\u03ac\u03ca 100.3
p2365
ssS'602'
p2366
(dp2367
g6
V602
p2368
sg8
V\u03a0\u03b1\u03bb\u03bc\u03cc\u03c2 105.4
p2369
ssS'730'
p2370
(dp2371
g6
V730
p2372
sg8
V96.5 Fm
p2373
ssS'732'
p2374
(dp2375
g6
V732
p2376
sg8
VOriginal Radio 94.4
p2377
ssS'735'
p2378
(dp2379
g6
V735
p2380
sg8
VClubs Radio
p2381
ssS'737'
p2382
(dp2383
g370
S'http://72.55.146.84:8020/'
p2384
sg6
V737
p2385
sg8
VSiera Fm 105.3
p2386
ssS'736'
p2387
(dp2388
g183
S'http://78.129.143.157:8000/arisfm'
p2389
sg6
V736
p2390
sg8
V\u0384\u0391\u03c1\u03b7\u03c2 Fm 92.8
p2391
ssS'739'
p2392
(dp2393
g370
S'http://s3.onweb.gr:8532/'
p2394
sg6
V739
p2395
sg8
V\u0393\u03bb\u03ad\u03bd\u03c4\u03b9 Fm 101.1
p2396
ssS'507'
p2397
(dp2398
g6
V507
p2399
sg8
V\u03a7\u03ce\u03c1\u03bf\u03c2 94.2
p2400
ssS'1030'
p2401
(dp2402
g370
S'mms://a1235.l4434955234.c44349.g.lm.akamaistream.net/D/1235/44349/v0001/reflector:55234'
p2403
sg6
V1030
p2404
sg8
VPlay 88.9
p2405
ssS'505'
p2406
(dp2407
g370
S'http://91.121.143.17:8000/'
p2408
sg6
V505
p2409
sg8
V1Mix Radio
p2410
ssS'502'
p2411
(dp2412
g6
V502
p2413
sg8
VBest Radio 94.7
p2414
ssS'1037'
p2415
(dp2416
g370
S'http://62.212.82.142:8012/'
p2417
sg6
V1037
p2418
sg8
VSferikos 99.3
p2419
ssS'500'
p2420
(dp2421
g370
S'http://shoutcast.24radio.gr:8086/'
p2422
sg6
V500
p2423
sg8
V\u039d\u03b9\u03ba\u03bf\u03bb\u03ac\u03bf\u03c5 Radio
p2424
ssS'501'
p2425
(dp2426
g370
S'http://live.onestreaming.com/mesogios'
p2427
sg6
V501
p2428
sg8
V\u039c\u03b5\u03c3\u03cc\u03b3\u03b5\u03b9\u03bf\u03c2 Fm 105.4
p2429
ssS'631'
p2430
(dp2431
g370
S'http://216.66.84.2:9108'
p2432
sg6
V631
p2433
sg8
VHeat Radio 88.3
p2434
ssS'44'
p2435
(dp2436
g370
S'http://music.vimafm995.gr/vimafm?MSWMExt=.asf'
p2437
sg6
V44
p2438
sg8
V\u0392\u03ae\u03bc\u03b1 Fm 99.5
p2439
ssS'633'
p2440
(dp2441
g6
V633
p2442
sg8
V69 Music 
p2443
ssS'634'
p2444
(dp2445
g370
S'http://eco.onestreaming.com:8077'
p2446
sg6
V634
p2447
sg8
VMaroni Radio
p2448
ssS'635'
p2449
(dp2450
g6
V635
p2451
sg8
VDalkas 88.2
p2452
ssS'636'
p2453
(dp2454
g6
V636
p2455
sg8
V1\u03bf \u03a0\u03c1\u03cc\u03b3\u03c1\u03b1\u03bc\u03bc\u03b1 \u03a7\u03af\u03bf\u03c5
p2456
ssS'637'
p2457
(dp2458
g6
V637
p2459
sg8
VStudio 54
p2460
ssS'465'
p2461
(dp2462
g6
V465
p2463
sg8
VFlash 94.5
p2464
ssS'639'
p2465
(dp2466
g370
S'http://81.171.50.130:9124'
p2467
sg6
V639
p2468
sg8
VHellas Web Radio
p2469
ssS'467'
p2470
(dp2471
g370
S'http://178.33.248.236:8006'
p2472
sg6
V467
p2473
sg8
VFun Radio
p2474
ssS'461'
p2475
(dp2476
g6
V461
p2477
sg8
VOff Radio
p2478
ssS'460'
p2479
(dp2480
g370
S'http://sentrafm.live24.gr/sentrafm'
p2481
sg6
V460
p2482
sg8
VSentra Fm 103.3
p2483
ssS'463'
p2484
(dp2485
g370
S'http://shoutcast.24radio.gr:8046/'
p2486
sg6
V463
p2487
sg8
VViva Fm 95.3
p2488
ssS'462'
p2489
(dp2490
g6
V462
p2491
sg8
V\u039c\u03b5\u03bb\u03c9\u03b4\u03b9\u03ba\u03cc\u03c2 105.7
p2492
ssS'901'
p2493
(dp2494
g370
S'http://s3.onweb.gr:8808'
p2495
sg6
V901
p2496
sg8
V\u03a1\u03b1\u03b4\u03b9\u03bf\u03ba\u03c1\u03ae\u03c4\u03b5\u03c2
p2497
ssS'168'
p2498
(dp2499
g370
S'http://s1.onweb.gr:8854'
p2500
sg6
V168
p2501
sg8
VPower 100.2
p2502
ssS'169'
p2503
(dp2504
g370
S'http://s1.onweb.gr:8068'
p2505
sg6
V169
p2506
sg8
VSuper 90.4
p2507
ssS'164'
p2508
(dp2509
g6
V164
p2510
sg8
VClub Radio
p2511
ssS'165'
p2512
(dp2513
g6
V165
p2514
sg8
VRadio Dee Jay 94.2
p2515
ssS'166'
p2516
(dp2517
g370
S'http://live.onestreaming.com/mousikokanali'
p2518
sg6
V166
p2519
sg8
V\u039c\u03bf\u03c5\u03c3\u03b9\u03ba\u03cc \u039a\u03b1\u03bd\u03ac\u03bb\u03b9 105.1
p2520
ssS'167'
p2521
(dp2522
g6
V167
p2523
sg8
VMRB Radio 101
p2524
ssS'160'
p2525
(dp2526
g6
V160
p2527
sg8
VUplifted
p2528
ssS'161'
p2529
(dp2530
g370
S'mms://golive.onestreaming.com/ydrogeios'
p2531
sg6
V161
p2532
sg8
V\u03a5\u03b4\u03c1\u03cc\u03b3\u03b5\u03b9\u03bf\u03c2 106.9
p2533
ssS'162'
p2534
(dp2535
g370
S'http://s3.onweb.gr:8808/'
p2536
sg6
V162
p2537
sg8
VVenus Fm 105.1
p2538
ssS'163'
p2539
(dp2540
g370
S'http://ice.motionfm.com:80/motionone_free'
p2541
sg6
V163
p2542
sg8
VHouse Motion Fm
p2543
ssS'963'
p2544
(dp2545
g6
V963
p2546
sg8
VBrake Fm 101.6
p2547
ssS'969'
p2548
(dp2549
g370
S'http://shout.streamwithq.gr:4042/'
p2550
sg6
V969
p2551
sg8
VRockarolla Radio
p2552
ssS'1103'
p2553
(dp2554
g6
V1103
p2555
sg8
VBeautyWar
p2556
ssS'408'
p2557
(dp2558
g370
S'http://s8.onweb.gr:8702'
p2559
sg6
V408
p2560
sg8
V\u03a1\u03b1\u03b4\u03b9\u03bf\u03ba\u03cd\u03bc\u03b1\u03c4\u03b1 102.6
p2561
ssS'890'
p2562
(dp2563
g370
S'http://golive.onestreaming.com/akousgazi'
p2564
sg6
V890
p2565
sg8
VAkous Gazi
p2566
ssS'891'
p2567
(dp2568
g6
V891
p2569
sg8
VAkous Terra
p2570
ssS'892'
p2571
(dp2572
g370
S'http://golive.onestreaming.com/akousdeluxe'
p2573
sg6
V892
p2574
sg8
VAkous Deluxe
p2575
ssS'893'
p2576
(dp2577
g370
S'http://golive.onestreaming.com/akousstage'
p2578
sg6
V893
p2579
sg8
VAkous Stage
p2580
ssS'894'
p2581
(dp2582
g370
S'http://eco.onestreaming.com:8189/'
p2583
sg6
V894
p2584
sg8
V\u03a1\u03c5\u03b8\u03bc\u03cc\u03c2 988
p2585
ssS'895'
p2586
(dp2587
g370
S'http://188.40.95.16:7100/'
p2588
sg6
V895
p2589
sg8
VMusic Fm
p2590
ssS'896'
p2591
(dp2592
g6
V896
p2593
sg8
V\u03a1\u03ac\u03b4\u03b9\u03bf \u039b\u03ae\u03bc\u03bd\u03bf\u03c2
p2594
ssS'436'
p2595
(dp2596
g6
V436
p2597
sg8
VRadio Air
p2598
ssS'357'
p2599
(dp2600
g370
S'http://s1.onweb.gr:8420'
p2601
sg6
V357
p2602
sg8
V\u0396\u03c5\u03b3\u03cc\u03c2 Fm 100
p2603
ssS'356'
p2604
(dp2605
g6
V356
p2606
sg8
V\u03a1\u03b1\u03b4\u03b9\u03cc\u03c6\u03c9\u03bd\u03bf \u0392\u03cc\u03bb\u03bf\u03c2 104.6
p2607
ssS'809'
p2608
(dp2609
g370
S'http://66.90.104.41:8090'
p2610
sg6
V809
p2611
sg8
VAsteras Radio
p2612
ssS'808'
p2613
(dp2614
g370
S'mms://live.onestreaming.com/starfmdm'
p2615
sg6
V808
p2616
sg8
VStar Fm 93.3
p2617
ssS'353'
p2618
(dp2619
g370
S'http://rs2.radiostreamer.com/radioalfa'
p2620
sg6
V353
p2621
sg8
V\u0386\u03bb\u03c6\u03b1 104
p2622
ssS'352'
p2623
(dp2624
g370
S'http://live.onestreaming.com/polis'
p2625
sg6
V352
p2626
sg8
VPolis 102.6
p2627
ssS'351'
p2628
(dp2629
g370
S'http://shout.streamwithq.gr:4052/'
p2630
sg6
V351
p2631
sg8
V\u0395\u03bb\u03bb\u03b7\u03bd\u03b9\u03ba\u03cc\u03c2 88.9
p2632
ssS'350'
p2633
(dp2634
g370
S'http://plaisioradio.live24.gr/plaisioradio'
p2635
sg6
V350
p2636
sg8
VPlaisio Radio
p2637
ssS'803'
p2638
(dp2639
g370
S'http://shoutcast.24radio.gr:8058/'
p2640
sg6
V803
p2641
sg8
VSfera 989
p2642
ssS'802'
p2643
(dp2644
g6
V802
p2645
sg8
VNRJ Radio 98
p2646
ssS'801'
p2647
(dp2648
g370
S'mms://starradio.no-ip.biz:2380'
p2649
sg6
V801
p2650
sg8
VStar Fm 106.7
p2651
ssS'800'
p2652
(dp2653
g6
V800
p2654
sg8
VRadio 6 95.4
p2655
ssS'807'
p2656
(dp2657
g370
S'http://eco.onestreaming.com:8148/'
p2658
sg6
V807
p2659
sg8
VYes! 91.2
p2660
ssS'806'
p2661
(dp2662
g370
S'http://shoutcast.24radio.gr:8018/'
p2663
sg6
V806
p2664
sg8
VWest Radio
p2665
ssS'359'
p2666
(dp2667
g370
S'http://live.onestreaming.com/kanali3'
p2668
sg6
V359
p2669
sg8
V\u039a\u03b1\u03bd\u03ac\u03bb\u03b9 3 104
p2670
ssS'358'
p2671
(dp2672
g6
V358
p2673
sg8
V\u0394\u03c5\u03c4\u03b9\u03ba\u03cc\u03c2 103.7
p2674
ssS'216'
p2675
(dp2676
g370
S'http://live.onestreaming.com/rythmos943'
p2677
sg6
V216
p2678
sg8
V\u03a1\u03cd\u03b8\u03bc\u03bf\u03c2 94.3
p2679
ssS'217'
p2680
(dp2681
g6
V217
p2682
sg8
VAthletic Radio 104.2
p2683
ssS'214'
p2684
(dp2685
g6
V214
p2686
sg8
V\u03a1\u03ac\u03b4\u03b9\u03bf \u0395\u03c0\u03c4\u03ac\u03bd\u03b7\u03c3\u03b1 98.8
p2687
ssS'215'
p2688
(dp2689
g6
V215
p2690
sg8
V\u03a3\u03c4\u03af\u03b3\u03bc\u03b1 Radio 97.6
p2691
ssS'213'
p2692
(dp2693
g370
S'http://s1.onweb.gr:8836'
p2694
sg6
V213
p2695
sg8
VLife Radio 102.9
p2696
ssS'210'
p2697
(dp2698
g370
S'http://s1.onweb.gr:8422'
p2699
sg6
V210
p2700
sg8
VPop Fm 102.1
p2701
ssS'211'
p2702
(dp2703
g370
S'http://s1.onweb.gr:8800/'
p2704
sg6
V211
p2705
sg8
VStar 88.8
p2706
ssS'762'
p2707
(dp2708
g6
V762
p2709
sg8
VFasma Fm 99.7
p2710
ssS'955'
p2711
(dp2712
g370
S'http://85.17.30.90:8078'
p2713
sg6
V955
p2714
sg8
VRiver Fm 106.6
p2715
ssS'760'
p2716
(dp2717
g6
V760
p2718
sg8
VSportive Radio
p2719
ssS'761'
p2720
(dp2721
g370
S'http://64.111.18.90:8005/'
p2722
sg6
V761
p2723
sg8
Vskglobe.net
p2724
ssS'766'
p2725
(dp2726
g370
S'http://208.43.115.44:9846/'
p2727
sg6
V766
p2728
sg8
V\u03a1\u03ac\u03b4\u03b9\u03bf \u0395\u03cd\u03b2\u03bf\u03b9\u03b1 104.1
p2729
ssS'764'
p2730
(dp2731
g370
S'http://live.e-streaming.eu:8110/'
p2732
sg6
V764
p2733
sg8
V\u0391\u03ba\u03c4\u03af\u03bd\u03b1 Radio 95
p2734
ssS'219'
p2735
(dp2736
g370
S'http://freeradio.live24.gr/freeradio-1000'
p2737
sg6
V219
p2738
sg8
VFree Radio  98
p2739
ssS'40'
p2740
(dp2741
g370
S'mms://a1251.l827423250.c8274.g.lm.akamaistream.net/D/1251/8274/v0001/reflector:23250'
p2742
sg6
V40
p2743
sg8
VFreedom
p2744
ssS'1033'
p2745
(dp2746
g370
S'http://72.233.114.175:8020/'
p2747
sg6
V1033
p2748
sg8
VPowershots!
p2749
ssS'1072'
p2750
(dp2751
g370
S'http://109.169.26.190:8048'
p2752
sg6
V1072
p2753
sg8
VGr8 Radio Greek
p2754
ssS'1073'
p2755
(dp2756
g370
S'http://shoutcast.24radio.gr:8070'
p2757
sg6
V1073
p2758
sg8
V\u0394\u03b7\u03bc\u03bf\u03c4\u03b9\u03ba\u03ae \u0391\u03bd\u03b8\u03bf\u03bb\u03bf\u03b3\u03af\u03b1 88.8
p2759
ssS'289'
p2760
(dp2761
g370
S'http://ice.motionfm.com:80/motionthree_free'
p2762
sg6
V289
p2763
sg8
VLounge Motion Fm
p2764
ssS'288'
p2765
(dp2766
g370
S'http://s1.onweb.gr:8056'
p2767
sg6
V288
p2768
sg8
VStar Fm 94.1
p2769
ssS'321'
p2770
(dp2771
g6
V321
p2772
sg8
V\u03a1\u03b1\u03b4/\u03bd\u03af\u03b1 \u039a\u03bf\u03b6\u03ac\u03bd\u03b7\u03c2 102.3
p2773
ssS'281'
p2774
(dp2775
g370
S'http://s1.onweb.gr:8096'
p2776
sg6
V281
p2777
sg8
V\u03a1\u03ac\u03b4\u03b9\u03bf \u039a\u03c5\u03c0\u03b1\u03c1\u03b9\u03c3\u03c3\u03af\u03b1 93.6
p2778
ssS'280'
p2779
(dp2780
g6
V280
p2781
sg8
V\u0397\u03bb\u03ad\u03ba\u03c4\u03c1\u03b1 98.8
p2782
ssS'283'
p2783
(dp2784
g370
S'http://broadcast.hol.gr/kanali20'
p2785
sg6
V283
p2786
sg8
V\u039a\u03b1\u03bd\u03ac\u03bb\u03b9 20 107.5
p2787
ssS'282'
p2788
(dp2789
g6
V282
p2790
sg8
V\u03a0\u03b1\u03bb\u03bc\u03cc\u03c2 90.5
p2791
ssS'285'
p2792
(dp2793
g6
V285
p2794
sg8
VLight Kiss 89
p2795
ssS'284'
p2796
(dp2797
g370
S'mms://broadcast.hol.gr/cityfm'
p2798
sg6
V284
p2799
sg8
VCity Radio 103.3
p2800
ssS'287'
p2801
(dp2802
g370
S'mms://live.onestreaming.com/politia'
p2803
sg6
V287
p2804
sg8
V\u03a0\u03bf\u03bb\u03b9\u03c4\u03b5\u03af\u03b1 90.7
p2805
ssS'286'
p2806
(dp2807
g370
S'http://eco.onestreaming.com:8272'
p2808
sg6
V286
p2809
sg8
VFly 89.7
p2810
ssS'678'
p2811
(dp2812
g370
S'http://s1.onweb.gr:8866/'
p2813
sg6
V678
p2814
sg8
VSuper 92.6
p2815
ssS'679'
p2816
(dp2817
g370
S'http://shout.streamwithq.gr:4126/'
p2818
sg6
V679
p2819
sg8
VKiss 107
p2820
ssS'674'
p2821
(dp2822
g370
S'http://mvradio.serverroom.us:9842'
p2823
sg6
V674
p2824
sg8
VMv Radio
p2825
ssS'675'
p2826
(dp2827
g370
S'http://psychoradio.servemp3.com'
p2828
sg6
V675
p2829
sg8
VPsycho Radio
p2830
ssS'676'
p2831
(dp2832
g370
S'http://live.onestreaming.com/star884'
p2833
sg6
V676
p2834
sg8
VStar 88.4
p2835
ssS'677'
p2836
(dp2837
g6
V677
p2838
sg8
VFantasy 100.1
p2839
ssS'670'
p2840
(dp2841
g370
S'http://live.onestreaming.com/makistia'
p2842
sg6
V670
p2843
sg8
V\u03a1\u03ac\u03b4\u03b9\u03bf \u039c\u03b1\u03ba\u03b9\u03c3\u03c4\u03af\u03b1 98.6
p2844
ssS'671'
p2845
(dp2846
g6
V671
p2847
sg8
VPowerMix Fm Greek
p2848
ssS'672'
p2849
(dp2850
g6
V672
p2851
sg8
V\u03a1\u03ac\u03b4\u03b9\u03bf \u0392\u03ad\u03c1\u03b1 91.8
p2852
ssS'673'
p2853
(dp2854
g6
V673
p2855
sg8
V\u03a1\u03ac\u03b4\u03b9\u03bf TRT 95.1
p2856
ssS'263'
p2857
(dp2858
g370
S'http://eco.onestreaming.com:8185'
p2859
sg6
V263
p2860
sg8
V\u0394\u03b7\u03bc\u03bf\u03c4\u03b9\u03ba\u03cc\u03c2 \u03a4\u03c1\u03af\u03c0\u03bf\u03bb\u03b7\u03c2 91.5
p2861
ssS'262'
p2862
(dp2863
g370
S'http://shoutcast.24radio.gr:8012/'
p2864
sg6
V262
p2865
sg8
VMust Fm 97
p2866
ssS'261'
p2867
(dp2868
g6
V261
p2869
sg8
VStyle Fm 89.6
p2870
ssS'260'
p2871
(dp2872
g6
V260
p2873
sg8
VStar Fm 92.9
p2874
ssS'267'
p2875
(dp2876
g370
S'http://smartfm.serverroom.us:8030'
p2877
sg6
V267
p2878
sg8
VSmart Fm 100.7
p2879
ssS'266'
p2880
(dp2881
g370
S'mms://broadcast.hol.gr/IonionFMU'
p2882
sg6
V266
p2883
sg8
VIonion Fm 95.8
p2884
ssS'265'
p2885
(dp2886
g370
S'http://208.43.115.44:8016/'
p2887
sg6
V265
p2888
sg8
VHorizon Fm 96.5
p2889
ssS'264'
p2890
(dp2891
g6
V264
p2892
sg8
V\u0391\u03c1\u03bc\u03bf\u03bd\u03af\u03b1 Fm 93.8
p2893
ssS'269'
p2894
(dp2895
g370
S'mms://broadcast.hol.gr/mojoradio'
p2896
sg6
V269
p2897
sg8
VMojo Radio 107.7
p2898
ssS'268'
p2899
(dp2900
g370
S'http://217.172.179.76:8500/'
p2901
sg6
V268
p2902
sg8
VWave 97.4
p2903
ssS'59'
p2904
(dp2905
g370
S'http://shoutcast.24radio.gr:8036'
p2906
sg6
V59
p2907
sg8
VKiss 100.6
p2908
ssS'58'
p2909
(dp2910
g6
V58
p2911
sg8
V\u039a\u03c1\u03b7\u03c4\u03b9\u03ba\u03cc\u03c1\u03b1\u03bc\u03b1 93.8
p2912
ssS'55'
p2913
(dp2914
g6
V55
p2915
sg8
V\u03a3\u03c4\u03bf \u039a\u03cc\u03ba\u03ba\u03b9\u03bd\u03bf 105.5
p2916
ssS'54'
p2917
(dp2918
g370
S'mms://a1232.l3271935231.c32719.g.lm.akamaistream.net/D/1232/32719/v0001/reflector:35231'
p2919
sg6
V54
p2920
sg8
VKosmos 93.6
p2921
ssS'57'
p2922
(dp2923
g6
V57
p2924
sg8
V\u03a1\u03ac\u03b4\u03b9\u03bf \u03a0\u03cc\u03bd\u03c4\u03bf\u03c2 106.5
p2925
ssS'56'
p2926
(dp2927
g6
V56
p2928
sg8
V\u03a7\u03c1\u03b9\u03c3\u03c4\u03b9\u03b1\u03bd\u03b9\u03c3\u03bc\u03cc\u03c2
p2929
ssS'51'
p2930
(dp2931
g6
V51
p2932
sg8
V\u039c\u03b5\u03bb\u03c9\u03b4\u03af\u03b1 99.2
p2933
ssS'62'
p2934
(dp2935
g370
S'http://shoutcast.24radio.gr:8060/'
p2936
sg6
V62
p2937
sg8
VLife Radio 91.6
p2938
ssS'53'
p2939
(dp2940
g370
S'mms://ant1.live24.gr/ant1'
p2941
sg6
V53
p2942
sg8
VAnt1 97.2
p2943
ssS'52'
p2944
(dp2945
g6
V52
p2946
sg8
V\u039b\u03ac\u03bc\u03c8\u03b7 92.3
p2947
ssS'537'
p2948
(dp2949
g6
V537
p2950
sg8
VMusic Life 95.1
p2951
ssS'536'
p2952
(dp2953
g6
V536
p2954
sg8
VDolce Radio 89.5
p2955
ssS'63'
p2956
(dp2957
g6
V63
p2958
sg8
VHit Fm 92.9
p2959
ssS'533'
p2960
(dp2961
g6
V533
p2962
sg8
VMy World
p2963
ssS'532'
p2964
(dp2965
g6
V532
p2966
sg8
VRadio 88\u03bc\u03b9\u03c3\u03cc
p2967
ssS'531'
p2968
(dp2969
g370
S'http://live.onestreaming.com/greek4u'
p2970
sg6
V531
p2971
sg8
VGr4u
p2972
ssS'539'
p2973
(dp2974
g6
V539
p2975
sg8
V\u03a1\u03ac\u03b4\u03b9\u03bf \u039c\u03b5\u03c3\u03c3\u03ac\u03c4\u03b9\u03b4\u03b1 98
p2976
ssS'538'
p2977
(dp2978
g370
S'http://972fm.no-ip.info:8000'
p2979
sg6
V538
p2980
sg8
V97.2 Fm Stereo
p2981
ssS'201'
p2982
(dp2983
g6
V201
p2984
sg8
V\u0391\u03b3\u03ad\u03c1\u03b9 Fm 102
p2985
ssS'988'
p2986
(dp2987
g6
V988
p2988
sg8
V\u0397\u03c7\u03bf\u03c2 Radio
p2989
ssS'200'
p2990
(dp2991
g370
S'http://eco.onestreaming.com:8129'
p2992
sg6
V200
p2993
sg8
V\u039c\u03b5\u03bb\u03c9\u03b4\u03af\u03b1 88
p2994
ssS'981'
p2995
(dp2996
g370
S'http://199.16.186.34:8236/'
p2997
sg6
V981
p2998
sg8
VElektrik Dreams
p2999
ssS'50'
p3000
(dp3001
g6
V50
p3002
sg8
VX Fm 94.3
p3003
ssS'115'
p3004
(dp3005
g6
V115
p3006
sg8
V\u03a1\u03ac\u03b4\u03b9\u03bf \u0391\u03bb\u03ae\u03b8\u03b5\u03b9\u03b1 95.7
p3007
ssS'68'
p3008
(dp3009
g370
S'http://golive.onestreaming.com/radioena'
p3010
sg6
V68
p3011
sg8
V99 Fm \u03a1\u03ac\u03b4\u03b9\u03bf 1
p3012
ssS'776'
p3013
(dp3014
g370
S'mms://a323.l6160932322.c61609.e.lm.akamaistream.net/D/323/61609/v0001/reflector:32322'
p3015
sg6
V776
p3016
sg8
V\u0396\u03bf\u03cd\u03b3\u03ba\u03bb\u03b1 Radio
p3017
ssS'111'
p3018
(dp3019
g370
S'http://golive.onestreaming.com/arion'
p3020
sg6
V111
p3021
sg8
VArion Radio
p3022
ssS'110'
p3023
(dp3024
g370
S'http://golive.onestreaming.com/athensparty'
p3025
sg6
V110
p3026
sg8
VAthens Party
p3027
ssS'113'
p3028
(dp3029
g370
S'http://188.40.131.14:8062'
p3030
sg6
V113
p3031
sg8
VJay Radio
p3032
ssS'112'
p3033
(dp3034
g6
V112
p3035
sg8
V\u0388\u03c1\u03c9\u03c4\u03b1\u03c2
p3036
ssS'205'
p3037
(dp3038
g370
S'http://live.onestreaming.com/arhagelos'
p3039
sg6
V205
p3040
sg8
V\u03a1\u03ac\u03b4\u03b9\u03bf \u0391\u03c1\u03c7\u03ac\u03b3\u03b3\u03b5\u03bb\u03bf\u03c2 94.1
p3041
ssS'119'
p3042
(dp3043
g370
S'http://s1.onweb.gr:8812'
p3044
sg6
V119
p3045
sg8
V\u03a1\u03b1\u03b4\u03b9\u03bf\u03ba\u03cd\u03bc\u03b1\u03c4\u03b1 104.4
p3046
ssS'118'
p3047
(dp3048
g6
V118
p3049
sg8
V\u039b\u03c5\u03b4\u03af\u03b1 Fm 94.2
p3050
ssS'207'
p3051
(dp3052
g6
V207
p3053
sg8
V\u03a3\u03ac\u03bc\u03bf\u03c2 Fm 97.3
p3054
ssS'429'
p3055
(dp3056
g6
V429
p3057
sg8
V\u03a1\u03c5\u03b8\u03bc\u03cc\u03c2 104
p3058
ssS'428'
p3059
(dp3060
g6
V428
p3061
sg8
V\u03a0\u03b1\u03bd\u03cc\u03c1\u03b1\u03bc\u03b1 98.4
p3062
ssS'534'
p3063
(dp3064
g370
S'http://eco.onestreaming.com:8152/stream'
p3065
sg6
V534
p3066
sg8
VAction Radio 98.2
p3067
ssS'919'
p3068
(dp3069
g370
S'http://r3.webradiostreams.com:7120/'
p3070
sg6
V919
p3071
sg8
VStudio 20 101.1
p3072
ssS'918'
p3073
(dp3074
g6
V918
p3075
sg8
VRadio Must Athens
p3076
ssS'914'
p3077
(dp3078
g370
S'http://178.32.57.58:8345/'
p3079
sg6
V914
p3080
sg8
VMagic Fm 102.9
p3081
ssS'916'
p3082
(dp3083
g6
V916
p3084
sg8
V\u03a1\u03ac\u03b4\u03b9\u03bf \u039f\u03bc\u03ac\u03b4\u03b1R
p3085
ssS'427'
p3086
(dp3087
g6
V427
p3088
sg8
VThessaloniki Dee Jay 89.4
p3089
ssS'300'
p3090
(dp3091
g370
S'http://eco.onestreaming.com:8173'
p3092
sg6
V300
p3093
sg8
VCity Fm 100
p3094
ssS'301'
p3095
(dp3096
g370
S'http://78.46.106.4:8010'
p3097
sg6
V301
p3098
sg8
VMusic Club 105.8
p3099
ssS'302'
p3100
(dp3101
g6
V302
p3102
sg8
VEros Radio 93
p3103
ssS'303'
p3104
(dp3105
g6
V303
p3106
sg8
VRadio Erotic
p3107
ssS'304'
p3108
(dp3109
g370
S'http://media15.internet.gr/dreamfm'
p3110
sg6
V304
p3111
sg8
VDream Fm 90.6
p3112
ssS'305'
p3113
(dp3114
g6
V305
p3115
sg8
VKiss Gold
p3116
ssS'306'
p3117
(dp3118
g6
V306
p3119
sg8
VCoast Fm 91.4
p3120
ssS'821'
p3121
(dp3122
g6
V821
p3123
sg8
VFree Angel 91.8
p3124
ssS'374'
p3125
(dp3126
g370
S'http://s5.onweb.gr:8030'
p3127
sg6
V374
p3128
sg8
VHit Fm 89.3
p3129
ssS'568'
p3130
(dp3131
g6
V568
p3132
sg8
V\u0391\u03b8\u03bb\u03b7\u03c4\u03b9\u03ba\u03ac \u039d\u03ad\u03b1 98.7
p3133
ssS'569'
p3134
(dp3135
g370
S'http://159.253.149.12:8138'
p3136
sg6
V569
p3137
sg8
V\u03a1\u03ac\u03b4\u03b9\u03bf \u039a\u03b1\u03bb\u03ac\u03b2\u03c1\u03c5\u03c4\u03b1 106.5
p3138
ssS'751'
p3139
(dp3140
g370
S'http://s2.onweb.gr:8608/'
p3141
sg6
V751
p3142
sg8
V\u0395\u03c0\u03b9\u03ba\u03bf\u03b9\u03bd\u03c9\u03bd\u03af\u03b1 Fm 89.1
p3143
ssS'750'
p3144
(dp3145
g370
S'http://208.43.115.44:8068'
p3146
sg6
V750
p3147
sg8
V\u0391\u03be\u03ac\u03c2 Radio
p3148
ssS'757'
p3149
(dp3150
g370
S'http://shoutcast.24radio.gr:8052/'
p3151
sg6
V757
p3152
sg8
V\u0391\u03b9\u03b3\u03b1\u03af\u03bf Live 95.8
p3153
ssS'756'
p3154
(dp3155
g6
V756
p3156
sg8
V\u03a1\u03ac\u03b4\u03b9\u03bf \u0395\u03c0\u03ac\u03bb
p3157
ssS'755'
p3158
(dp3159
g370
S'http://shoutcast.24radio.gr:8050/'
p3160
sg6
V755
p3161
sg8
Vgopop.gr Top 40 Channel
p3162
ssS'754'
p3163
(dp3164
g370
S'http://shoutcast.24radio.gr:8048/'
p3165
sg6
V754
p3166
sg8
Vgopop.gr Disco Channel
p3167
ssS'560'
p3168
(dp3169
g370
S'http://eco.onestreaming.com:8324'
p3170
sg6
V560
p3171
sg8
VRodon 95 Fm
p3172
ssS'561'
p3173
(dp3174
g370
S'http://eco.onestreaming.com:8238'
p3175
sg6
V561
p3176
sg8
VSfera 94.1
p3177
ssS'759'
p3178
(dp3179
g370
S'http://s3.onweb.gr:8530/'
p3180
sg6
V759
p3181
sg8
VStyl Fm 104.8
p3182
ssS'758'
p3183
(dp3184
g6
V758
p3185
sg8
V\u03a1\u03b1\u03b4\u03b9\u03bf\u03c6\u03c9\u03bd\u03af\u03b1 \u039a\u03c5\u03ba\u03bb\u03ac\u03b4\u03c9\u03bd
p3186
ssS'564'
p3187
(dp3188
g6
V564
p3189
sg8
VAria Fm 107.4
p3190
ssS'566'
p3191
(dp3192
g370
S'http://208.43.115.44:9844/'
p3193
sg6
V566
p3194
sg8
V\u0395\u03bb\u03bb\u03b7\u03bd\u03ac\u03b4\u03b9\u03ba\u03bf Fm
p3195
ssS'567'
p3196
(dp3197
g6
V567
p3198
sg8
VAthens Winder Radio
p3199
ssS'506'
p3200
(dp3201
g6
V506
p3202
sg8
V\u03a1\u03ac\u03b4\u03b9\u03bf \u039d\u03b1\u03cd\u03c0\u03b1\u03ba\u03c4\u03bf\u03c2
p3203
ssS'229'
p3204
(dp3205
g6
V229
p3206
sg8
V\u0391\u03bd\u03b4\u03c1\u03bf\u03bc\u03ad\u03b4\u03b1 Net
p3207
ssS'738'
p3208
(dp3209
g6
V738
p3210
sg8
V\u0397\u03c7\u03cc\u03c1\u03b1\u03bc\u03b1 93.3
p3211
ssS'227'
p3212
(dp3213
g370
S'http://s1.onweb.gr:8408'
p3214
sg6
V227
p3215
sg8
VStudio 3 103.5
p3216
ssS'226'
p3217
(dp3218
g370
S'http://wm3.greekstream.net/sindosfm'
p3219
sg6
V226
p3220
sg8
V\u039a\u03b1\u03bb\u03b1\u03bc\u03b1\u03c1\u03b9\u03ac Fm 101.7
p3221
ssS'225'
p3222
(dp3223
g370
S'http://shout.plusradio.gr:8120/'
p3224
sg6
V225
p3225
sg8
VPlus Radio 102.6
p3226
ssS'223'
p3227
(dp3228
g370
S'http://s3.onweb.gr:8436'
p3229
sg6
V223
p3230
sg8
V\u03a1\u03ac\u03b4\u03b9\u03bf \u0394\u0395\u0398 104.9
p3231
ssS'504'
p3232
(dp3233
g4
S'mms://live.onestreaming.com/magiafm'
p3234
sg6
V504
p3235
sg8
V\u039c\u03b1\u03b3\u03b5\u03af\u03b1 Fm 104.7
p3236
ssS'221'
p3237
(dp3238
g370
S'mms://a999.l3271920998.c32719.g.lm.akamaistream.net/D/999/32719/v0001/reflector:20998'
p3239
sg6
V221
p3240
sg8
V\u0397 \u03a6\u03c9\u03bd\u03ae \u03c4\u03b7\u03c2 \u0395\u03bb\u03bb\u03ac\u03b4\u03b1\u03c2
p3241
ssS'220'
p3242
(dp3243
g6
V220
p3244
sg8
V\u03a6\u03b9\u03bb\u03af\u03b1 107 Fm
p3245
ssS'1027'
p3246
(dp3247
g370
S'http://85.25.106.162:8330/'
p3248
sg6
V1027
p3249
sg8
VSoul Radio
p3250
ssS'1031'
p3251
(dp3252
g6
V1031
p3253
sg8
VSeal Radio
p3254
ssS'114'
p3255
(dp3256
g6
V114
p3257
sg8
V\u03a1\u03ac\u03b4\u03b9\u03bf \u039c\u03b1\u03c3\u03c4\u03af\u03c7\u03b1 107.7
p3258
ssS'88'
p3259
(dp3260
g6
V88
p3261
sg8
V\u03a3 \u03b1\u03b3\u03b1\u03c0\u03ce 96.1
p3262
ssS'726'
p3263
(dp3264
g370
S'http://s2.onweb.gr:8624'
p3265
sg6
V726
p3266
sg8
VAlfa Radio 96
p3267
ssS'724'
p3268
(dp3269
g370
S'http://shoutcast.24radio.gr:8072'
p3270
sg6
V724
p3271
sg8
V\u03a1\u03ac\u03b4\u03b9\u03bf \u0386\u03c3\u03c4\u03c5 90.6
p3272
ssS'89'
p3273
(dp3274
g370
S'http://shout.streamwithq.gr:4144/'
p3275
sg6
V89
p3276
sg8
VStar 97.1
p3277
ssS'723'
p3278
(dp3279
g370
S'http://s5.onweb.gr:8502'
p3280
sg6
V723
p3281
sg8
V\u0394\u03af\u03b1\u03c5\u03bb\u03bf\u03c2 \u039a\u03b1\u03c1\u03b4\u03af\u03c4\u03c3\u03b1\u03c2 102.8
p3282
ssS'720'
p3283
(dp3284
g6
V720
p3285
sg8
VVelvet.
p3286
ssS'721'
p3287
(dp3288
g370
S'http://208.43.81.168:8748'
p3289
sg6
V721
p3290
sg8
VIoannina Dee Jay 89.6
p3291
ssS'728'
p3292
(dp3293
g370
S'http://s2.onweb.gr:8646/'
p3294
sg6
V728
p3295
sg8
VVibe Fm 95.4
p3296
ssS'151'
p3297
(dp3298
g370
S'mms://a1782.l3271951781.c32719.g.lm.akamaistream.net/D/1782/32719/v0001/reflector:51781'
p3299
sg6
V151
p3300
sg8
V\u0394\u03b5\u03cd\u03c4\u03b5\u03c1\u03bf 103.7
p3301
ssS'604'
p3302
(dp3303
g370
S'http://shoutcast.24radio.gr:8006'
p3304
sg6
V604
p3305
sg8
VKiss 101.3
p3306
ssS'153'
p3307
(dp3308
g6
V153
p3309
sg8
VRed 96.3
p3310
ssS'152'
p3311
(dp3312
g370
S'mms://a1318.l3271931317.c32719.g.lm.akamaistream.net/D/1318/32719/v0001/reflector:31317'
p3313
sg6
V152
p3314
sg8
V\u03a4\u03c1\u03af\u03c4\u03bf  90.9
p3315
ssS'155'
p3316
(dp3317
g370
S'mms://a1758.l3271933757.c32719.g.lm.akamaistream.net/D/1758/32719/v0001/reflector:33757'
p3318
sg6
V155
p3319
sg8
V102 Fm
p3320
ssS'600'
p3321
(dp3322
g370
S'http://stream.xromafm.gr:59102/'
p3323
sg6
V600
p3324
sg8
V\u03a7\u03c1\u03ce\u03bc\u03b1 Fm 102.1
p3325
ssS'603'
p3326
(dp3327
g6
V603
p3328
sg8
V\u03a3\u03c5\u03bd \u0388\u03bd\u03b1 Radio 95.8
p3329
ssS'156'
p3330
(dp3331
g370
S'mms://a1933.l3271921932.c32719.g.lm.akamaistream.net/D/1933/32719/v0001/reflector:21932'
p3332
sg6
V156
p3333
sg8
V\u03a4\u03c1\u03af\u03c4\u03bf \u03a0\u03c1\u03cc\u03b3\u03c1\u03b1\u03bc\u03bc\u03b1 \u0392\u03c1\u03b1\u03c7\u03ad\u03b1
p3334
ssS'159'
p3335
(dp3336
g370
S'http://topmelody1.selfip.net:8000'
p3337
sg6
V159
p3338
sg8
VTop Melody 104.9
p3339
ssS'158'
p3340
(dp3341
g370
S'mms://era.aegean.gr/era'
p3342
sg6
V158
p3343
sg8
V\u0395\u03a1\u0391 \u0392. \u0391\u03b9\u03b3\u03b1\u03af\u03bf\u03c5 103
p3344
ssS'609'
p3345
(dp3346
g6
V609
p3347
sg8
VRadio Piotita
p3348
ssS'608'
p3349
(dp3350
g370
S'http://golive.onestreaming.com/arionlaikos'
p3351
sg6
V608
p3352
sg8
VArion \u039b\u03b1\u03ca\u03ba\u03cc\u03c2
p3353
ssS'469'
p3354
(dp3355
g6
V469
p3356
sg8
V\u03a1\u03ac\u03b4\u03b9\u03bf \u039a\u03b1\u03bb\u03bb\u03af\u03c0\u03bf\u03bb\u03b7
p3357
ssS'935'
p3358
(dp3359
g370
S'http://176.9.35.49:9942'
p3360
sg6
V935
p3361
sg8
V\u03a1\u03ac\u03b4\u03b9\u03bf \u03a0\u03b1\u03c1\u03b5\u03bf\u03cd\u03bb\u03b1
p3362
ssS'399'
p3363
(dp3364
g370
S'http://s7.onweb.gr:8548/'
p3365
sg6
V399
p3366
sg8
V\u03a1\u03ac\u03b4\u03b9\u03bf \u03a0\u03b1\u03bb\u03b1\u03b9\u03cc\u03c7\u03c9\u03c1\u03b1 89.3
p3367
ssS'468'
p3368
(dp3369
g6
V468
p3370
sg8
V\u0391\u03b3\u03c1\u03af\u03bd\u03b9\u03bf Fm 93.7
p3371
ssS'959'
p3372
(dp3373
g6
V959
p3374
sg8
VKappa Radio 87.9
p3375
ssS'48'
p3376
(dp3377
g6
V48
p3378
sg8
V\u0395\u03ba\u03ba\u03bb\u03b7\u03c3\u03af\u03b1 89.5
p3379
ssS'49'
p3380
(dp3381
g6
V49
p3382
sg8
V\u03a0\u03b5\u03b9\u03c1\u03b1\u03ca\u03ba\u03ae \u0395\u03ba\u03ba\u03bb\u03b7\u03c3\u03af\u03b1 91.2
p3383
ssS'46'
p3384
(dp3385
g370
S'http://radiogold.live24.gr/radiogold'
p3386
sg6
V46
p3387
sg8
VRadio Gold
p3388
ssS'47'
p3389
(dp3390
g370
S'mms://oasis.live24.gr/oasis8888'
p3391
sg6
V47
p3392
sg8
V\u038c\u03b1\u03c3\u03b9\u03c2 88
p3393
ssS'953'
p3394
(dp3395
g370
S'http://live.onestreaming.com/notesserres'
p3396
sg6
V953
p3397
sg8
V\u03a1\u03ac\u03b4\u03b9\u03bf \u039d\u03cc\u03c4\u03b5\u03c2 106
p3398
ssS'952'
p3399
(dp3400
g6
V952
p3401
sg8
VSunshine Radio
p3402
ssS'42'
p3403
(dp3404
g6
V42
p3405
sg8
V\u0391\u03b8\u03ae\u03bd\u03b1 9.84
p3406
ssS'954'
p3407
(dp3408
g6
V954
p3409
sg8
VRock 69
p3410
ssS'957'
p3411
(dp3412
g6
V957
p3413
sg8
V\u039d\u03b1\u03c5\u03ac\u03b3\u03b9\u03b1
p3414
ssS'41'
p3415
(dp3416
g370
S'http://s3.onweb.gr:8878/'
p3417
sg6
V41
p3418
sg8
V\u039a\u03c1\u03ae\u03c4\u03b7 Fm 87.5
p3419
ssS'638'
p3420
(dp3421
g370
S'http://s3.onweb.gr:8540/'
p3422
sg6
V638
p3423
sg8
VRadio Epigee
p3424
ssS'464'
p3425
(dp3426
g6
V464
p3427
sg8
VMarconi Radio
p3428
ssS'508'
p3429
(dp3430
g6
V508
p3431
sg8
V\u039b\u03b1\u03ca\u03ba\u03cc Radio
p3432
ssS'489'
p3433
(dp3434
g370
S'http://shoutcast.24radio.gr:8076'
p3435
sg6
V489
p3436
sg8
V\u03a1\u03ac\u03b4\u03b9\u03bf \u039c\u03b5\u03bb\u03c9\u03b4\u03af\u03b1 102.4
p3437
ssS'488'
p3438
(dp3439
g6
V488
p3440
sg8
V\u0389\u03c7\u03bf\u03c2 Radio 91
p3441
ssS'487'
p3442
(dp3443
g6
V487
p3444
sg8
VPluslive Radio
p3445
ssS'486'
p3446
(dp3447
g370
S'http://78.46.46.214:8000/'
p3448
sg6
V486
p3449
sg8
VRadio Relax
p3450
ssS'485'
p3451
(dp3452
g6
V485
p3453
sg8
VMango Radio Urban
p3454
ssS'484'
p3455
(dp3456
g370
S'http://live.onestreaming.com/myradionet'
p3457
sg6
V484
p3458
sg8
VMy Radio 89.6
p3459
ssS'483'
p3460
(dp3461
g6
V483
p3462
sg8
V\u03a1\u03ac\u03b4\u03b9\u03bf \u0397\u03c7\u03cc
p3463
ssS'482'
p3464
(dp3465
g6
V482
p3466
sg8
VSigma Radio
p3467
ssS'481'
p3468
(dp3469
g6
V481
p3470
sg8
VAntenna Radio
p3471
ssS'480'
p3472
(dp3473
g6
V480
p3474
sg8
VRolling Paper
p3475
ssS'509'
p3476
(dp3477
g370
S'http://50.7.243.50:8127/'
p3478
sg6
V509
p3479
sg8
VEnergy 93.4
p3480
ssS'473'
p3481
(dp3482
g6
V473
p3483
sg8
VRadio Next
p3484
ssS'470'
p3485
(dp3486
g370
S'http://83.133.127.198:8999'
p3487
sg6
V470
p3488
sg8
VReal Fm 107.1
p3489
ssS'471'
p3490
(dp3491
g370
S'http://radio.radionova.gr:8263/kritorama'
p3492
sg6
V471
p3493
sg8
V\u039a\u03c1\u03b7\u03c4\u03cc\u03c1\u03b1\u03bc\u03b1 97.9
p3494
ssS'476'
p3495
(dp3496
g370
S'mms://a714.l649552713.c6495.g.lm.akamaistream.net/D/714/6495/v0001/reflector:52713'
p3497
sg6
V476
p3498
sg8
VMusic 89.2
p3499
ssS'477'
p3500
(dp3501
g6
V477
p3502
sg8
VTripa Radio
p3503
ssS'474'
p3504
(dp3505
g370
S'http://eco.onestreaming.com:8324'
p3506
sg6
V474
p3507
sg8
V\u0395\u03a1\u0391 \u03a0\u03ac\u03c4\u03c1\u03b1\u03c2 92.5
p3508
ssS'475'
p3509
(dp3510
g6
V475
p3511
sg8
VFlash \u03a0\u03ac\u03c4\u03c1\u03b1\u03c2 98.7
p3512
ssS'478'
p3513
(dp3514
g370
S'http://hotfm.live24.gr/shock'
p3515
sg6
V478
p3516
sg8
VHot Fm
p3517
ssS'479'
p3518
(dp3519
g370
S'http://178.32.57.58:8557/'
p3520
sg6
V479
p3521
sg8
VStudio 359
p3522
ss.