(dp1
S'452'
p2
(dp3
S'logo'
p4
V/logos/gr/mini/xanthidj.gif
p5
sS'city'
p6
V\u039e\u0391\u039d\u0398\u0397
p7
sS'id'
p8
V452
p9
sS'title'
p10
VXanthi DeeJay 90,6
p11
ssS'1948'
p12
(dp13
S'city'
p14
VINTERNET RADIO
p15
sS'cn'
p16
S'patata'
p17
sS'title'
p18
VRadio Patata 
p19
sS'url'
p20
S'http://50.7.243.50:8082'
p21
sS'weblink'
p22
g21
sS'logo'
p23
V/logos/gr/mini/patata.gif
p24
sS'id'
p25
V1948
p26
ssS'1942'
p27
(dp28
g14
V\u0391\u0393\u03a1\u0399\u039d\u0399\u039f
p29
sg16
S'spaceagrinio'
p30
sg18
VSpace FM 107
p31
sg20
S'http://188.40.131.14:8004'
p32
sg22
g32
sg23
V/logos/gr/mini/spaceagrinio.gif
p33
sg25
V1942
p34
ssS'1943'
p35
(dp36
g14
VINTERNET RADIO
p37
sg16
S'radioclick'
p38
sg18
VDJ Vasilis WebRadio 
p39
sg20
S'http://176.9.35.49:9875'
p40
sg22
g40
sg23
V/logos/gr/mini/djvasilis.gif
p41
sg25
V1943
p42
ssS'1940'
p43
(dp44
g14
VINTERNET RADIO
p45
sg16
S'kapsimiwr'
p46
sg18
VKapsimi WR 
p47
sg20
S'http://78.129.142.4:8264'
p48
sg22
g48
sg23
V/logos/gr/mini/kapsimiwr.gif
p49
sg25
V1940
p50
ssS'1946'
p51
(dp52
g14
VINTERNET RADIO
p53
sg16
S'radio10'
p54
sg18
VRadio 10 
p55
sg20
S'http://live.onestreaming.com/radio10'
p56
sg22
g56
sg23
V/logos/gr/mini/radio10.gif
p57
sg25
V1946
p58
ssS'1944'
p59
(dp60
g14
V\u0391\u0398\u0397\u039d\u0391
p61
sg16
S'existon'
p62
sg18
VExiston Radio 
p63
sg20
S'http://eco.onestreaming.com:8201'
p64
sg22
g64
sg23
V/logos/gr/mini/existon.gif
p65
sg25
V1944
p66
ssS'1945'
p67
(dp68
g14
VINTERNET RADIO
p69
sg16
S'starwalkersng'
p70
sg18
VStarwalkers New Generation 
p71
sg20
S'http://208.43.115.44:9178'
p72
sg22
g72
sg23
V/logos/gr/mini/starwalkersng.gif
p73
sg25
V1945
p74
ssS'345'
p75
(dp76
g14
V\u03a7\u0391\u039b\u039a\u0399\u0394\u0391
p77
sg16
S'justradio'
p78
sg18
VJust Radio 93
p79
sg20
S'http://legacy-100-ams.servers.mediacdn.com/justradio'
p80
sg22
g80
sg23
V/logos/gr/mini/justradio.gif
p81
sg25
V345
p82
ssS'341'
p83
(dp84
g14
V\u0397\u03a1\u0391\u039a\u039b\u0395\u0399\u039f
p85
sg16
S'melodyfm'
p86
sg18
VMelody Fm 98,7
p87
sg20
S'http://94.75.200.140/melody'
p88
sg22
g88
sg23
V/logos/gr/mini/melodyfm.gif
p89
sg25
V341
p90
ssS'348'
p91
(dp92
g14
V\u0397\u03a1\u0391\u039a\u039b\u0395\u0399\u039f
p93
sg16
S'trafficfm'
p94
sg18
VTraffic FM 91,8
p95
sg20
S'http://s5.onweb.gr:8506'
p96
sg22
g96
sg23
V/logos/gr/mini/trafficfm.gif
p97
sg25
V348
p98
ssS'817'
p99
(dp100
g14
V\u039a\u039f\u03a1\u0399\u039d\u0398\u039f\u03a3
p101
sg16
S'myradionet'
p102
sg18
VMy Radio 89,6
p103
sg20
S'http://live.onestreaming.com/myradionet'
p104
sg22
g104
sg23
V/logos/gr/mini/myradionet.gif
p105
sg25
V817
p106
ssS'1799'
p107
(dp108
g14
VINTERNET RADIO
p109
sg16
S'radioenaau'
p110
sg18
VRadio ENA 87,6
p111
sg20
S'http://media.on.net/radio/51.m3u'
p112
sg22
g112
sg23
V/logos/gr/mini/radioenaau.gif
p113
sg25
V1799
p114
ssS'1798'
p115
(dp116
g14
V\u0395\u039b\u0391\u03a3\u03a3O\u039d\u0391
p117
sg16
S'party971'
p118
sg18
VParty 97,1
p119
sg20
S'http://s1.onweb.gr:8824'
p120
sg22
g120
sg23
V/logos/gr/mini/party971.gif
p121
sg25
V1798
p122
ssS'718'
p123
(dp124
g14
V\u039b\u0391\u03a1\u0399\u03a3\u0391
p125
sg16
S'avantifm'
p126
sg18
VAvanti Fm 107,6
p127
sg20
S'http://avantifm.live24.gr/avantifm'
p128
sg22
g128
sg23
V/logos/gr/mini/avantifm.gif
p129
sg25
V718
p130
ssS'1793'
p131
(dp132
g14
V\u039f\u03a1\u0395\u03a3\u03a4\u0399\u0391\u0394\u0391
p133
sg16
S'mad107orest'
p134
sg18
VKiss 107
p135
sg20
S'http://shout.streamwithq.gr:4126'
p136
sg22
g136
sg23
V/logos/gr/mini/kiss107orest.gif
p137
sg25
V1793
p138
ssS'716'
p139
(dp140
g14
V\u03a0\u0391\u03a4\u03a1\u0391
p141
sg16
S'radiopatra'
p142
sg18
VRadio \u03a0\u03ac\u03c4\u03c1\u03b1 106,5
p143
sg20
S'http://174.142.32.91:9200'
p144
sg22
g144
sg23
V/logos/gr/mini/radiopatra.gif
p145
sg25
V716
p146
ssS'1791'
p147
(dp148
g14
V\u039a\u039f\u03a1\u0399\u039d\u0398\u039f\u03a3
p149
sg16
S'kappa879'
p150
sg18
VKappa Radio 87,9
p151
sg20
S'http://s3.onweb.gr:8086'
p152
sg22
g152
sg23
V/logos/gr/mini/nologo.gif
p153
sg25
V1791
p154
ssS'714'
p155
(dp156
g14
V\u039a\u0391\u03a1\u03a0\u0395\u039d\u0397\u03a3\u0399
p157
sg16
S'karpenisi'
p158
sg18
V\u03a1\u03ac\u03b4\u03b9\u03bf \u039a\u03b1\u03c1\u03c0\u03b5\u03bd\u03ae\u03c3\u03b9 97,5
p159
sg20
S'http://live.onestreaming.com/karpenisi'
p160
sg22
g160
sg23
V/logos/gr/mini/karpenisi.gif
p161
sg25
V714
p162
ssS'1797'
p163
(dp164
g14
V\u0391\u039b\u0395\u039e\u0391\u039d\u0394\u03a1\u039f\u03a5\u03a0\u039f\u039b\u0397
p165
sg16
S'noise978'
p166
sg18
VNoise Radio 97,8
p167
sg20
S'http://ams01.egihosting.com:4240'
p168
sg22
g168
sg23
V/logos/gr/mini/noise978.gif
p169
sg25
V1797
p170
ssS'1796'
p171
(dp172
g14
V\u0391\u0398\u0397\u039d\u0391
p173
sg16
S'musicradiogr'
p174
sg18
VMusicRadio.Gr 
p175
sg20
S'http://musicradio.mediabox.gr/musicradio'
p176
sg22
g176
sg23
V/logos/gr/mini/musicradiogr.gif
p177
sg25
V1796
p178
ssS'1795'
p179
(dp180
g14
V\u0391\u0398\u0397\u039d\u0391
p181
sg16
S'moreradio'
p182
sg18
VMoreradio 
p183
sg20
S'http://96.30.20.193:8008'
p184
sg22
g184
sg23
V/logos/gr/mini/moreradio.gif
p185
sg25
V1795
p186
ssS'710'
p187
(dp188
g14
V\u03a3\u03a0\u0391\u03a1\u03a4\u0397
p189
sg16
S'ant1south'
p190
sg18
VAntenna \u039d.\u0395\u03bb\u03bb\u03ac\u03b4\u03b1\u03c2 97,1
p191
sg20
S'http://live.onestreaming.com/ant1south'
p192
sg22
g192
sg23
V/logos/gr/mini/ant1south.gif
p193
sg25
V710
p194
ssS'478'
p195
(dp196
g14
V\u0398\u0395\u03a3\u03a3\u0391\u039b\u039f\u039d\u0399\u039a\u0397
p197
sS'cn'
p198
S'republic'
p199
sg18
VRepublic 100,3
p200
sS'url'
p201
S'http://streamx2.greekradios.gr:8000'
p202
sS'weblink'
p203
g202
sg23
V/logos/gr/mini/republic.gif
p204
sg25
V478
p205
ssS'914'
p206
(dp207
g14
VINTERNET RADIO
p208
sg198
S'popi'
p209
sg18
VPop-I 
p210
sg201
S'http://eco.onestreaming.com:8340'
p211
sg203
g211
sg23
V/logos/gr/mini/popi.gif
p212
sg25
V914
p213
ssS'1069'
p214
(dp215
g14
V\u039a\u039f\u039c\u039f\u03a4H\u039d\u0397
p216
sg16
S'radiorodopi'
p217
sg18
V\u03a1\u03ac\u03b4\u03b9\u03bf \u03a1\u03bf\u03b4\u03cc\u03c0\u03b7 95,5
p218
sg20
S'http://173.236.59.82:8060'
p219
sg22
g219
sg23
V/logos/gr/mini/radiorodopi.gif
p220
sg25
V1069
p221
ssS'1702'
p222
(dp223
g23
V/logos/cy/mini/mostra.gif
p224
sg14
VINTERNET RADIO
p225
sg25
V1702
p226
sg18
VRadio Mostra 
p227
ssS'1706'
p228
(dp229
S'url'
p230
S'http://golive.onestreaming.com/akousgazi'
p231
sg23
V/logos/gr/mini/akous_gazi.gif
p232
sg14
V\u0391\u0398\u0397\u039d\u0391
p233
sg25
V1706
p234
sg18
VAkous. Gazi 
p235
ssS'1707'
p236
(dp237
g230
S'http://golive.onestreaming.com/akousstage'
p238
sg23
V/logos/gr/mini/akousstage_edgar.gif
p239
sg14
V\u0391\u0398\u0397\u039d\u0391
p240
sg25
V1707
p241
sg18
VAkous. Edgar's Stage 
p242
ssS'1708'
p243
(dp244
g230
S'http://golive.onestreaming.com/akousdeluxe'
p245
sg23
V/logos/gr/mini/akous_domoteldeluxe.gif
p246
sg14
V\u0391\u0398\u0397\u039d\u0391
p247
sg25
V1708
p248
sg18
VAkous.Domotel Deluxe 
p249
ssS'1709'
p250
(dp251
g230
S'http://golive.onestreaming.com/akous80s'
p252
sg23
V/logos/gr/mini/akous_80s.gif
p253
sg14
V\u0391\u0398\u0397\u039d\u0391
p254
sg25
V1709
p255
sg18
VAkous. 80s 
p256
ssS'1066'
p257
(dp258
g14
V\u039a\u0391\u0392\u0391\u039b\u0391
p259
sS'cn'
p260
S'proini937'
p261
sg18
V\u03a1\u03ac\u03b4\u03b9\u03bf \u03a0\u03c1\u03c9\u03ca\u03bd\u03ae 93,7
p262
sS'url'
p263
S'http://62.103.31.151:8000'
p264
sS'weblink'
p265
g264
sg23
V/logos/gr/mini/proini937.gif
p266
sg25
V1066
p267
ssS'913'
p268
(dp269
S'url'
p270
S'http://eco.onestreaming.com:8168'
p271
sg23
V/logos/gr/mini/radioinlaiko.gif
p272
sg14
VINTERNET RADIO
p273
sg25
V913
p274
sg18
VRadioIn \u039b\u03b1\u03ca\u03ba\u03cc 
p275
ssS'298'
p276
(dp277
g14
V\u03a3\u03a5\u039c\u0397
p278
sg260
S'starradio1078'
p279
sg18
VStar Radio 107,8
p280
sg263
S'http://starradio.no-ip.biz:2380'
p281
sg265
g281
sg23
V/logos/gr/mini/starradio1078.gif
p282
sg25
V298
p283
ssS'299'
p284
(dp285
g14
V\u039a\u0391\u0392\u0391\u039b\u0391
p286
sg260
S'energy988'
p287
sg18
VRadio Energy 96,6
p288
sg263
S'http://liveradio.energy966.com:8008'
p289
sg265
g289
sg23
V/logos/gr/mini/energy988.gif
p290
sg25
V299
p291
ssS'296'
p292
(dp293
g14
V\u03a7\u0391\u039b\u039a\u0399\u0394\u0391
p294
sg260
S'dalkas'
p295
sg18
VDalkas 88,2
p296
sg263
S'http://78.46.66.215:8007'
p297
sg265
g297
sg23
V/logos/gr/mini/dalkas.gif
p298
sg25
V296
p299
ssS'295'
p300
(dp301
S'url'
p302
S'http://stream2.greekradios.gr:8012'
p303
sg23
V/logos/gr/mini/elladafm.gif
p304
sg14
V\u0391\u039b\u0395\u039e\u0391\u039d\u0394\u03a1\u039f\u03a5\u03a0\u039f\u039b\u0397
p305
sg25
V295
p306
sg18
V\u0395\u03bb\u03bb\u03ac\u03b4\u03b1 FM 98,7
p307
ssS'292'
p308
(dp309
g23
V/logos/gr/mini/VFM.gif
p310
sg14
V\u0391\u0398\u0397\u039d\u0391
p311
sg25
V292
p312
sg18
VVFM 88,3
p313
ssS'293'
p314
(dp315
g302
S'http://91.132.6.21:8005'
p316
sg23
V/logos/gr/mini/lampsifm.gif
p317
sg14
V\u0391\u0398\u0397\u039d\u0391
p318
sg25
V293
p319
sg18
V\u039b\u03ac\u03bc\u03c8\u03b7 92,3
p320
ssS'290'
p321
(dp322
g302
S'http://174.36.237.66:8220'
p323
sg23
V/logos/gr/mini/rythmos1038.gif
p324
sg14
V\u0391\u03a1\u0393\u039f\u03a3
p325
sg25
V290
p326
sg18
V\u03a1\u03c5\u03b8\u03bc\u03cc\u03c2 Fm 103,8
p327
ssS'198'
p328
(dp329
g230
S'http://metro903.live24.gr/metro903-1000'
p330
sg23
V/logos/gr/mini/metro903.gif
p331
sg14
V\u039b\u0391\u039c\u0399\u0391
p332
sg25
V198
p333
sg18
VMetro Fm 90,3
p334
ssS'195'
p335
(dp336
g302
S'http://eco.onestreaming.com:8107'
p337
sg23
V/logos/gr/mini/kastoriafm.gif
p338
sg14
V\u039a\u0391\u03a3\u03a4\u039f\u03a1\u0399\u0391
p339
sg25
V195
p340
sg18
V\u039a\u03b1\u03c3\u03c4\u03bf\u03c1\u03b9\u03ac Fm 91,5
p341
ssS'194'
p342
(dp343
g230
S'http://rs2.radiostreamer.com/radioalfa'
p344
sg23
V/logos/gr/mini/alfa.gif
p345
sg14
V\u0391\u039b\u0395\u039e\u0391\u039d\u0394\u03a1\u039f\u03a5\u03a0\u039f\u039b\u0397
p346
sg25
V194
p347
sg18
V\u0391\u03bb\u03c6\u03b1 104
p348
ssS'196'
p349
(dp350
g230
S'http://live.onestreaming.com/lihnari'
p351
sg23
V/logos/gr/mini/lihnari.gif
p352
sg14
V\u03a1\u039f\u0394\u039f\u03a3
p353
sg25
V196
p354
sg18
V\u039b\u03c5\u03c7\u03bd\u03ac\u03c1\u03b9 91,7
p355
ssS'190'
p356
(dp357
g230
S'http://stream.1045.gr/1045fm/'
p358
sg23
V/logos/gr/mini/rythmoscrete.gif
p359
sg14
V\u0397\u03a1\u0391\u039a\u039b\u0395\u0399\u039f
p360
sg25
V190
p361
sg18
V\u03a1\u03c5\u03b8\u03bc\u03cc\u03c2 104,5
p362
ssS'193'
p363
(dp364
g230
S'http://hotmedia.gr:8086/magicfm'
p365
sg23
V/logos/gr/mini/magicfm.gif
p366
sg14
V\u03a7\u0391\u039d\u0399\u0391
p367
sg25
V193
p368
sg18
VMagic Fm 98,2
p369
ssS'192'
p370
(dp371
g230
S'http://live.onestreaming.com/hxofm'
p372
sg23
V/logos/gr/mini/hxofm.gif
p373
sg14
V\u039b\u0391\u03a3\u0399\u0398\u0399
p374
sg25
V192
p375
sg18
V\u0397\u03c7\u03ce Fm 99,8
p376
ssS'270'
p377
(dp378
g23
V/logos/gr/mini/sfera966.gif
p379
sg14
V\u03a0\u0391\u03a4\u03a1\u0391
p380
sg25
V270
p381
sg18
VSfera 96,6
p382
ssS'19'
p383
(dp384
g270
S'http://fm1.teicrete.gr:8000/live'
p385
sg23
V/logos/gr/mini/teifm1.gif
p386
sg14
V\u0397\u03a1\u0391\u039a\u039b\u0395\u0399\u039f
p387
sg25
V19
p388
sg18
VStudio Fm1 105,4
p389
ssS'275'
p390
(dp391
S'url'
p392
S'http://hotmedia.gr:8086/teamfm'
p393
sg23
V/logos/gr/mini/teamfm.gif
p394
sg14
V\u03a1\u0395\u0398\u03a5\u039c\u039d\u039f
p395
sg25
V275
p396
sg18
VTeam Fm 102
p397
ssS'279'
p398
(dp399
g23
V/logos/gr/mini/arisfm.gif
p400
sg14
V\u0398\u0395\u03a3\u03a3\u0391\u039b\u039f\u039d\u0399\u039a\u0397
p401
sg25
V279
p402
sg18
V\u0386\u03c1\u03b7\u03c2 Fm 92,8
p403
ssS'524'
p404
(dp405
g270
S'http://85.17.30.90:9986'
p406
sg23
V/logos/gr/mini/ixorama.gif
p407
sg14
V\u039a\u0391\u03a1\u0394\u0399\u03a4\u03a3\u0391
p408
sg25
V524
p409
sg18
V\u0397\u03c7\u03cc\u03c1\u03b1\u03bc\u03b1 Radio 100,8
p410
ssS'525'
p411
(dp412
g270
S'http://s1.onweb.gr:8040'
p413
sg23
V/logos/gr/mini/rizites.gif
p414
sg14
V\u039a\u0391\u03a3\u03a4\u0395\u039bI
p415
sg25
V525
p416
sg18
VRadio \u03a1\u03b9\u03b6\u03af\u03c4\u03b5\u03c2 92,4
p417
ssS'526'
p418
(dp419
g270
S'http://78.47.56.126:8032'
p420
sg23
V/logos/gr/mini/radiosamothraki.gif
p421
sg14
V\u03a3\u0391\u039c\u039f\u0398\u03a1\u0391\u039a\u0397
p422
sg25
V526
p423
sg18
VRadio \u03a3\u03b1\u03bc\u03bf\u03b8\u03c1\u03ac\u03ba\u03b7 101,9
p424
ssS'520'
p425
(dp426
g392
S'http://stream-push2.live24.gr/sky1007'
p427
sg23
V/logos/gr/mini/skyfm1007.gif
p428
sg14
V\u039f\u03a1\u0395\u03a3\u03a4\u0399\u0391\u0394\u0391
p429
sg25
V520
p430
sg18
VSky Fm 100,7
p431
ssS'521'
p432
(dp433
g23
V/logos/gr/mini/radiothesprotia.gif
p434
sg14
V\u03a0\u0391\u03a1\u0391\u039c\u03a5\u0398\u0399\u0391
p435
sg25
V521
p436
sg18
VRadio Thesprotia 97,2
p437
ssS'523'
p438
(dp439
S'url'
p440
S'http://s6.onweb.gr:8012'
p441
sg23
V/logos/gr/mini/topfmvolos.gif
p442
sg14
V\u0392\u039f\u039b\u039f\u03a3
p443
sg25
V523
p444
sg18
VTop Fm 106,4
p445
ssS'528'
p446
(dp447
g23
V/logos/gr/mini/orestidos.gif
p448
sg14
V\u0391\u03a1\u0393\u039f\u03a3 \u039f\u03a1\u0395\u03a3\u03a4\u0399\u039a\u039f
p449
sg25
V528
p450
sg18
VRadio Argos Orestiko 97,4
p451
ssS'529'
p452
(dp453
g440
S'http://eco.onestreaming.com:8083'
p454
sg23
V/logos/gr/mini/sunshine1077.gif
p455
sg14
V\u0398\u0395\u03a3\u03a3\u0391\u039b\u039f\u039d\u0399\u039a\u0397
p456
sg25
V529
p457
sg18
VSunshine Fm 107,7
p458
ssS'1012'
p459
(dp460
g440
S'http://46.4.8.222:9998'
p461
sg23
V/logos/gr/mini/octava.gif
p462
sg14
V\u0391\u0398\u0397\u039d\u0391
p463
sg25
V1012
p464
sg18
VOctava Radio 
p465
ssS'449'
p466
(dp467
g23
V/logos/gr/mini/metro1054.gif
p468
sg14
V\u03a7\u0391\u039d\u0399\u0391
p469
sg25
V449
p470
sg18
V\u03a1\u03ac\u03b4\u03b9\u03bf Metro 105,4
p471
ssS'448'
p472
(dp473
g440
S'http://70.38.101.150:8004'
p474
sg23
V/logos/gr/mini/divaradio.gif
p475
sg14
V\u039a\u039f\u0396\u0391\u039d\u0397
p476
sg25
V448
p477
sg18
VDiva Radio 91,6
p478
ssS'1233'
p479
(dp480
S'url'
p481
S'http://captainjack.live24.gr/captainjack9660'
p482
sg23
V/logos/gr/mini/pepper966.gif
p483
sg14
V\u0391\u0398\u0397\u039d\u0391
p484
sg25
V1233
p485
sg18
VPepper 96,6
p486
ssS'447'
p487
(dp488
g440
S'http://72.55.146.84:8002'
p489
sg23
V/logos/gr/mini/kardia.gif
p490
sg14
V\u039a\u039f\u0396\u0391\u039d\u0397
p491
sg25
V447
p492
sg18
V\u0395\u03c1\u03c9\u03c4\u03b9\u03ba\u03cc 99,5
p493
ssS'1239'
p494
(dp495
g23
V/logos/gr/mini/nologo.gif
p496
sg14
V\u039a\u0391\u039b\u0391\u039c\u0391\u03a4\u0391
p497
sg25
V1239
p498
sg18
VDiasNews 
p499
ssS'108'
p500
(dp501
g481
S'http://a999.l3271920998.c32719.g.lm.akamaistream.net/D/999/32719/v0001/reflector:20998'
p502
sg23
V/logos/gr/mini/VOG.gif
p503
sg14
V\u0391\u0398\u0397\u039d\u0391
p504
sg25
V108
p505
sg18
V\u0395\u03a1\u0391 \u03a6\u03c9\u03bd\u03ae \u03c4\u03b7\u03c2 \u0395\u03bb\u03bb\u03ac\u03b4\u03b1\u03c2 
p506
ssS'109'
p507
(dp508
g481
S'http://a1113.l3271935112.c32719.g.lm.akamaistream.net/D/1113/32719/v0001/reflector:35112'
p509
sg23
V/logos/gr/mini/erasport.gif
p510
sg14
V\u0391\u0398\u0397\u039d\u0391
p511
sg25
V109
p512
sg18
V\u0395\u03a1\u0391 \u03a3\u03c0\u03bf\u03c1 101,8
p513
ssS'102'
p514
(dp515
g23
V/logos/gr/mini/Red.gif
p516
sg14
V\u0391\u0398\u0397\u039d\u0391
p517
sg25
V102
p518
sg18
VRed 96,3
p519
ssS'103'
p520
(dp521
g23
V/logos/gr/mini/skai.gif
p522
sg14
V\u0391\u0398\u0397\u039d\u0391
p523
sg25
V103
p524
sg18
V\u03a3\u03ba\u03ac\u03ca Radio 100,3
p525
ssS'100'
p526
(dp527
g23
V/logos/gr/mini/heartfm.gif
p528
sg14
V\u0398\u0395\u03a3\u03a3\u0391\u039b\u039f\u039d\u0399\u039a\u0397
p529
sg25
V100
p530
sg18
VHeart Fm 93,1
p531
ssS'101'
p532
(dp533
g481
S'http://radiogold.live24.gr/radiogold'
p534
sg23
V/logos/gr/mini/Gold.gif
p535
sg14
V\u0391\u0398\u0397\u039d\u0391
p536
sg25
V101
p537
sg18
VRadio Gold 
p538
ssS'106'
p539
(dp540
g481
S'http://flash.live24.gr/flash5252'
p541
sg23
V/logos/gr/mini/flash.gif
p542
sg14
V\u0391\u0398\u0397\u039d\u0391
p543
sg25
V106
p544
sg18
VFlash 96
p545
ssS'107'
p546
(dp547
g23
V/logos/gr/mini/athina984.gif
p548
sg14
V\u0391\u0398\u0397\u039d\u0391
p549
sg25
V107
p550
sg18
V\u0391\u03b8\u03ae\u03bd\u03b1 984 98,3
p551
ssS'104'
p552
(dp553
g23
V/logos/gr/mini/radio9ath.gif
p554
sg14
V\u0391\u0398\u0397\u039d\u0391
p555
sg25
V104
p556
sg18
VRADIO 9 98,9
p557
ssS'105'
p558
(dp559
g481
S'http://a1709.l3271943708.c32719.g.lm.akamaistream.net/D/1709/32719/v0001/reflector:43708'
p560
sg23
V/logos/gr/mini/eranet.gif
p561
sg14
V\u0391\u0398\u0397\u039d\u0391
p562
sg25
V105
p563
sg18
V\u0395\u03a1\u0391 \u039d\u0395\u03a4 105,8
p564
ssS'902'
p565
(dp566
g23
V/logos/gr/mini/nologo.gif
p567
sg14
V\u03a1\u0395\u0398\u03a5\u039c\u039d\u039f
p568
sg25
V902
p569
sg18
V\u03a1\u03ac\u03b4\u03b9\u03bf \u03a5\u03c0\u03ac\u03c1\u03c7\u03c9 103,7
p570
ssS'1849'
p571
(dp572
S'url'
p573
S'http://eco.onestreaming.com:8091'
p574
sg23
V/logos/gr/mini/syxnotita102.gif
p575
sg14
V\u0391\u0399\u0393\u0399\u039f
p576
sg25
V1849
p577
sg18
V\u03a1\u03ac\u03b4\u03b9\u03bf \u03a3\u03c5\u03c7\u03bd\u03cc\u03c4\u03b7\u03c4\u03b1 100,7
p578
ssS'901'
p579
(dp580
g573
S'http://s5.onweb.gr:8070'
p581
sg23
V/logos/gr/mini/kriti1003.gif
p582
sg14
V\u0397\u03a1\u0391\u039a\u039b\u0395\u0399\u039f
p583
sg25
V901
p584
sg18
V\u039a\u03c1\u03ae\u03c4\u03b7 Fm 100,3
p585
ssS'906'
p586
(dp587
g573
S'http://78.46.46.214:7054'
p588
sg23
V/logos/gr/mini/trifylias.gif
p589
sg14
V\u039a\u03a5\u03a0\u0391\u03a1\u0399\u03a3\u03a3\u0399\u0391
p590
sg25
V906
p591
sg18
V\u03a1\u03b1\u03b4\u03b9\u03bf\u03c6\u03c9\u03bd\u03af\u03b1 \u03a4\u03c1\u03b9\u03c6\u03c5\u03bb\u03af\u03b1\u03c2 101,3
p592
ssS'904'
p593
(dp594
g573
S'http://eco.onestreaming.com:8238'
p595
sg23
V/logos/gr/mini/sferaargolida.gif
p596
sg14
V\u039d\u0391\u03a5\u03a0\u039b\u0399\u039f
p597
sg25
V904
p598
sg18
VSfera 94,1
p599
ssS'905'
p600
(dp601
g573
S'http://46.4.65.194:8015'
p602
sg23
V/logos/gr/mini/galaxy1061.gif
p603
sg14
V\u03a0\u0391\u03a4\u03a1\u0391
p604
sg25
V905
p605
sg18
VGalaxy 106,1
p606
ssS'1843'
p607
(dp608
g573
S'http://www.streamyourdream.org:8012/kiss98'
p609
sg23
V/logos/gr/mini/kiss98.gif
p610
sg14
V\u0392\u039f\u039b\u039f\u03a3
p611
sg25
V1843
p612
sg18
VKiss 98
p613
ssS'908'
p614
(dp615
g573
S'http://eco.onestreaming.com:8257'
p616
sg23
V/logos/gr/mini/star955.gif
p617
sg14
V\u039d\u0395\u0391 \u039c\u039f\u03a5\u0394\u0391\u039d\u0399\u0391
p618
sg25
V908
p619
sg18
VRadio Star 95,5
p620
ssS'30'
p621
(dp622
g573
S'http://eco.onestreaming.com:8209'
p623
sg23
V/logos/gr/mini/coolfm.gif
p624
sg14
V\u03a1\u0395\u0398\u03a5\u039c\u039d\u039f
p625
sg25
V30
p626
sg18
VCool Fm 106,8
p627
ssS'1847'
p628
(dp629
g573
S'http://www.radiodistomo.gr:9420'
p630
sg23
V/logos/gr/mini/nologo.gif
p631
sg14
V\u039b\u0399\u0392\u0391\u0394\u0395\u0399\u0391
p632
sg25
V1847
p633
sg18
V\u03a1\u0391\u0394\u0399\u039f \u0394\u0399\u03a3\u03a4\u039f\u039c\u039f 106,1
p634
ssS'1846'
p635
(dp636
g481
S'http://legacy-100-ams.servers.mediacdn.com/mfm102-7-patra'
p637
sg23
V/logos/gr/mini/mfm1027.gif
p638
sg14
V\u03a0\u0391\u03a4\u03a1\u0391
p639
sg25
V1846
p640
sg18
VMfm 102,7
p641
ssS'1845'
p642
(dp643
g573
S'http://s6.onweb.gr:8020'
p644
sg23
V/logos/gr/mini/paratiritis.gif
p645
sg14
V\u039a\u039f\u039c\u039f\u03a4H\u039d\u0397
p646
sg25
V1845
p647
sg18
V\u03a1\u03ac\u03b4\u03b9\u03bf \u03a0\u03b1\u03c1\u03b1\u03c4\u03b7\u03c1\u03b7\u03c4\u03ae\u03c2 94
p648
ssS'640'
p649
(dp650
g481
S'http://live.onestreaming.com/cosmos965'
p651
sg23
V/logos/gr/mini/cosmos965.gif
p652
sg14
V\u0391\u03a1\u0393\u039f\u03a3\u03a4\u039f\u039b\u0399
p653
sg25
V640
p654
sg18
V\u039a\u03cc\u03c3\u03bc\u03bf\u03c2 96,5
p655
ssS'1930'
p656
(dp657
S'url'
p658
S'http://204.45.6.58:8081'
p659
sg23
V/logos/gr/mini/kissdance.gif
p660
sg14
VINTERNET RADIO
p661
sg25
V1930
p662
sg18
VKiss Danceradio 
p663
ssS'644'
p664
(dp665
g573
S'http://s6.onweb.gr:8034'
p666
sg23
V/logos/gr/mini/radiomires.gif
p667
sg14
V\u0397\u03a1\u0391\u039a\u039b\u0395\u0399\u039f
p668
sg25
V644
p669
sg18
V\u03a1\u03ac\u03b4\u03b9\u03bf \u039c\u03bf\u03af\u03c1\u03b5\u03c2 
p670
ssS'438'
p671
(dp672
g573
S'http://s6.onweb.gr:8048'
p673
sg23
V/logos/gr/mini/musicclub.gif
p674
sg14
V\u0397\u03a1\u0391\u039a\u039b\u0395\u0399\u039f
p675
sg25
V438
p676
sg18
VMusic Club 105,8
p677
ssS'649'
p678
(dp679
g481
S'http://m2.onweb.gr/amorefm'
p680
sg23
V/logos/gr/mini/amorefm.gif
p681
sg14
V\u03a1\u0395\u0398\u03a5\u039c\u039d\u039f
p682
sg25
V649
p683
sg18
VAmore Fm 107,9
p684
ssS'648'
p685
(dp686
g573
S'http://s4.onweb.gr:8414'
p687
sg23
V/logos/gr/mini/media92.gif
p688
sg14
V\u03a3\u03a5\u03a1\u039f\u03a3
p689
sg25
V648
p690
sg18
VMedia 92
p691
ssS'430'
p692
(dp693
g23
V/logos/gr/mini/rodosfm.gif
p694
sg14
V\u03a1\u039f\u0394\u039f\u03a3
p695
sg25
V430
p696
sg18
VRodos Fm 90,7
p697
ssS'431'
p698
(dp699
g481
S'http://oasis.live24.gr/oasis8888'
p700
sg23
V/logos/gr/mini/oasis.gif
p701
sg14
V\u0391\u0398\u0397\u039d\u0391
p702
sg25
V431
p703
sg18
VOasis Fm 88
p704
ssS'1908'
p705
(dp706
g23
V/logos/gr/mini/istiaea.gif
p707
sg14
V\u0399\u03a3\u03a4\u0399\u0391\u0399\u0391
p708
sg25
V1908
p709
sg18
V\u03a1\u03ac\u03b4\u03b9\u03bf \u0399\u03c3\u03c4\u03b9\u03b1\u03af\u03b1 100,4
p710
ssS'1909'
p711
(dp712
g573
S'http://stream.katsiris.net:8080/galaxy1011'
p713
sg23
V/logos/gr/mini/galaxy1011.gif
p714
sg14
V\u03a4\u03a1\u0399\u03a0\u039f\u039b\u0397
p715
sg25
V1909
p716
sg18
VGalaxy FM 101,1
p717
ssS'1907'
p718
(dp719
g23
V/logos/gr/mini/palmos949.gif
p720
sg14
V\u03a7\u0399\u039f\u03a3
p721
sg25
V1907
p722
sg18
V\u03a0\u03b1\u03bb\u03bc\u03cc\u03c2 FM 94,9
p723
ssS'1904'
p724
(dp725
g23
V/logos/gr/mini/mathematikos.gif
p726
sg14
VINTERNET RADIO
p727
sg25
V1904
p728
sg18
VMathimatikos Web Radio 
p729
ssS'1905'
p730
(dp731
g481
S'http://live.onestreaming.com/ogdoo'
p732
sg23
V/logos/gr/mini/ogdoo2.gif
p733
sg14
VINTERNET RADIO
p734
sg25
V1905
p735
sg18
V\u038c\u03b3\u03b4\u03bf\u03bf 
p736
ssS'1902'
p737
(dp738
g573
S'http://eco.onestreaming.com:8135'
p739
sg23
V/logos/gr/mini/donnaradio.gif
p740
sg14
VINTERNET RADIO
p741
sg25
V1902
p742
sg18
VDonna Radio 
p743
ssS'1903'
p744
(dp745
g23
V/logos/gr/mini/radio11025.gif
p746
sg14
V\u0392\u039f\u039b\u039f\u03a3
p747
sg25
V1903
p748
sg18
V\u03a1\u03ac\u03b4\u03b9\u03bf 1 102,5
p749
ssS'1900'
p750
(dp751
g23
V/logos/gr/mini/hxosradio.gif
p752
sg14
VINTERNET RADIO
p753
sg25
V1900
p754
sg18
V\u0389\u03c7\u03bf\u03c2 Radio 
p755
ssS'1901'
p756
(dp757
g573
S'http://208.94.241.26:8000/stream'
p758
sg23
V/logos/gr/mini/intersonik.gif
p759
sg14
VINTERNET RADIO
p760
sg25
V1901
p761
sg18
VIntersonik 
p762
ssS'857'
p763
(dp764
g481
S'http://wm3.greekstream.net/driverfm'
p765
sg23
V/logos/gr/mini/radiodriver.gif
p766
sg14
VINTERNET RADIO
p767
sg25
V857
p768
sg18
VDriver Fm 
p769
ssS'850'
p770
(dp771
g23
V/logos/gr/mini/radiofever.gif
p772
sg14
VINTERNET RADIO
p773
sg25
V850
p774
sg18
VRadio Fever 
p775
ssS'852'
p776
(dp777
g23
V/logos/gr/mini/radioemse.gif
p778
sg14
VINTERNET RADIO
p779
sg25
V852
p780
sg18
VRadio \u0395.\u039c.\u03a3.\u0395. 
p781
ssS'819'
p782
(dp783
g23
V/logos/gr/mini/panorama.gif
p784
sg14
V\u0398\u0395\u03a3\u03a3\u0391\u039b\u039f\u039d\u0399\u039a\u0397
p785
sg25
V819
p786
sg18
V\u03a0\u03b1\u03bd\u03cc\u03c1\u03b1\u03bc\u03b1 98,4
p787
ssS'42'
p788
(dp789
g658
S'http://s5.onweb.gr:8002'
p790
sg23
V/logos/gr/mini/pellafm.gif
p791
sg14
V\u0393\u0399\u0391\u039d\u039d\u0399\u03a4\u03a3\u0391
p792
sg25
V42
p793
sg18
V\u03a0\u03ad\u03bb\u03bb\u03b1 FM 103,2
p794
ssS'859'
p795
(dp796
g23
V/logos/gr/mini/empneusi.gif
p797
sg14
VINTERNET RADIO
p798
sg25
V859
p799
sg18
VEmpneusi Radio 
p800
ssS'6'
(dp801
g23
V/logos/gr/mini/akous_musices.gif
p802
sg14
V\u0398\u0395\u03a3\u03a3\u0391\u039b\u039f\u039d\u0399\u039a\u0397
p803
sg25
V6
sg18
VAkous. MusicES 
p804
ssS'425'
p805
(dp806
g658
S'http://s1.onweb.gr:8836'
p807
sg23
V/logos/gr/mini/liferadio1029.gif
p808
sg14
V\u039a\u0395\u03a1\u039a\u03a5\u03a1\u0391
p809
sg25
V425
p810
sg18
VLife Radio 102,9
p811
ssS'99'
p812
(dp813
g481
S'http://galaxy.live24.gr/galaxy9292'
p814
sg23
V/logos/gr/mini/galaxy92.gif
p815
sg14
V\u0391\u0398\u0397\u039d\u0391
p816
sg25
V99
p817
sg18
VGalaxy 92
p818
ssS'98'
p819
(dp820
g23
V/logos/gr/mini/Radioena.gif
p821
sg14
V\u03a1\u039f\u0394\u039f\u03a3
p822
sg25
V98
p823
sg18
VRadio 1 88
p824
ssS'90'
p825
(dp826
g573
S'http://shout.cosmoradio.gr:8130'
p827
sg23
V/logos/gr/mini/kosmoradio.gif
p828
sg14
V\u0398\u0395\u03a3\u03a3\u0391\u039b\u039f\u039d\u0399\u039a\u0397
p829
sg25
V90
p830
sg18
V\u039a\u03bf\u03c3\u03bc\u03bf\u03c1\u03ac\u03b4\u03b9\u03bf 95,1
p831
ssS'93'
p832
(dp833
g481
S'http://178.32.72.194:8050/eroticos'
p834
sg23
V/logos/gr/mini/Erotikos.gif
p835
sg14
V\u0398\u0395\u03a3\u03a3\u0391\u039b\u039f\u039d\u0399\u039a\u0397
p836
sg25
V93
p837
sg18
V\u0395\u03c1\u03c9\u03c4\u03b9\u03ba\u03cc\u03c2 94,8
p838
ssS'92'
p839
(dp840
g573
S'http://stream.greekradios.gr:4000'
p841
sg23
V/logos/gr/mini/rainbow.gif
p842
sg14
V\u0398\u0395\u03a3\u03a3\u0391\u039b\u039f\u039d\u0399\u039a\u0397
p843
sg25
V92
p844
sg18
VRainbow 89
p845
ssS'95'
p846
(dp847
S'url'
p848
S'http://best.live24.gr/best1222'
p849
sg23
V/logos/gr/mini/bestradio.gif
p850
sg14
V\u0391\u0398\u0397\u039d\u0391
p851
sg25
V95
p852
sg18
VBest 92,6
p853
ssS'94'
p854
(dp855
g573
S'http://78.129.143.157:8000/starfm'
p856
sg23
V/logos/gr/mini/starfm.gif
p857
sg14
V\u0398\u0395\u03a3\u03a3\u0391\u039b\u039f\u039d\u0399\u039a\u0397
p858
sg25
V94
p859
sg18
VStar Fm 97,1
p860
ssS'97'
p861
(dp862
g573
S'http://stream.greekradios.gr:9060'
p863
sg23
V/logos/gr/mini/zoo.gif
p864
sg14
V\u0398\u0395\u03a3\u03a3\u0391\u039b\u039f\u039d\u0399\u039a\u0397
p865
sg25
V97
p866
sg18
VZoo 90,8
p867
ssS'96'
p868
(dp869
g573
S'http://91.132.6.21:8003'
p870
sg23
V/logos/gr/mini/rockfm.gif
p871
sg14
V\u0391\u0398\u0397\u039d\u0391
p872
sg25
V96
p873
sg18
VRock Fm 96,9
p874
ssS'1991'
p875
(dp876
g23
V/logos/gr/mini/nologo.gif
p877
sg14
VINTERNET RADIO
p878
sg25
V1991
p879
sg18
VHits FM 
p880
ssS'1990'
p881
(dp882
g23
V/logos/gr/mini/karpathosfm.gif
p883
sg14
V\u039a\u0391\u03a1\u03a0\u0391\u0398\u039f\u03a3
p884
sg25
V1990
p885
sg18
V\u039a\u03ac\u03c1\u03c0\u03b1\u03b8\u03bf\u03c2 FM 101,3
p886
ssS'1993'
p887
(dp888
g573
S'http://204.45.8.170:8037'
p889
sg23
V/logos/gr/mini/nrgradiome.gif
p890
sg14
VINTERNET RADIO
p891
sg25
V1993
p892
sg18
VNRG Radio 
p893
ssS'1992'
p894
(dp895
g573
S'http://99.198.109.147:80'
p896
sg23
V/logos/gr/mini/planetkozani.gif
p897
sg14
V\u039a\u039f\u0396\u0391\u039d\u0397
p898
sg25
V1992
p899
sg18
VPlanet 100,8
p900
ssS'1995'
p901
(dp902
g23
V/logos/gr/mini/artistico.gif
p903
sg14
VINTERNET RADIO
p904
sg25
V1995
p905
sg18
VArtistico Web Radio 
p906
ssS'1994'
p907
(dp908
g23
V/logos/gr/mini/radiopontos94.gif
p909
sg14
V\u039a\u039f\u0396\u0391\u039d\u0397
p910
sg25
V1994
p911
sg18
V\u03a1\u03ac\u03b4\u03b9\u03bf \u03a0\u03cc\u03bd\u03c4\u03bf\u03c2 94
p912
ssS'1999'
p913
(dp914
g573
S'http://174.36.237.66:8210'
p915
sg23
V/logos/gr/mini/musicsociety.gif
p916
sg14
VINTERNET RADIO
p917
sg25
V1999
p918
sg18
VMusic Society 
p919
ssS'741'
p920
(dp921
g573
S'http://eco.onestreaming.com:8251/live'
p922
sg23
V/logos/gr/mini/radiogrevena.gif
p923
sg14
V\u0393\u03a1\u0395\u0392\u0395\u039d\u0391
p924
sg25
V741
p925
sg18
V\u03a1\u03ac\u03b4\u03b9\u03bf \u0393\u03c1\u03b5\u03b2\u03b5\u03bd\u03ac 101,5
p926
ssS'743'
p927
(dp928
g23
V/logos/gr/mini/deltaradioalter.gif
p929
sg14
V\u0391\u0398\u0397\u039d\u0391
p930
sg25
V743
p931
sg18
VIEK Delta Radio - Alternative 
p932
ssS'744'
p933
(dp934
g23
V/logos/gr/mini/laikos.gif
p935
sg14
V\u0398\u0395\u03a3\u03a3\u0391\u039b\u039f\u039d\u0399\u039a\u0397
p936
sg25
V744
p937
sg18
V\u039b\u03b1\u03ca\u03ba\u03cc\u03c2 87,6
p938
ssS'745'
p939
(dp940
g23
V/logos/gr/mini/radioflorina.gif
p941
sg14
V\u03a6\u039b\u03a9\u03a1\u0399\u039d\u0391
p942
sg25
V745
p943
sg18
V\u03a1\u03ac\u03b4\u03b9\u03bf \u03a6\u03bb\u03ce\u03c1\u03b9\u03bd\u03b1 101,5
p944
ssS'746'
p945
(dp946
g573
S'http://s1.onweb.gr:8812'
p947
sg23
V/logos/gr/mini/radiokimata.gif
p948
sg14
V\u0398\u0395\u03a3\u03a3\u0391\u039b\u039f\u039d\u0399\u039a\u0397
p949
sg25
V746
p950
sg18
V\u03a1\u03b1\u03b4\u03b9\u03bf\u03ba\u03cd\u03bc\u03b1\u03c4\u03b1 104
p951
ssS'747'
p952
(dp953
g23
V/logos/gr/mini/santorini1.gif
p954
sg14
V\u03a3\u0391\u039d\u03a4\u039f\u03a1\u0399\u039d\u0397
p955
sg25
V747
p956
sg18
V\u03a1\u03ac\u03b4\u03b9\u03bf \u03a3\u03b1\u03bd\u03c4\u03bf\u03c1\u03af\u03bd\u03b7\u03c2 106,4
p957
ssS'238'
p958
(dp959
g573
S'http://eco.onestreaming.com:8150'
p960
sg23
V/logos/gr/mini/youfm.gif
p961
sg14
V\u03a0\u0391\u03a4\u03a1\u0391
p962
sg25
V238
p963
sg18
VYou Fm 100,1
p964
ssS'235'
p965
(dp966
g573
S'http://s1.onweb.gr:8068'
p967
sg23
V/logos/gr/mini/superadio904.gif
p968
sg14
V\u0397\u03a1\u0391\u039a\u039b\u0395\u0399\u039f
p969
sg25
V235
p970
sg18
VSupeRadio 90,4
p971
ssS'237'
p972
(dp973
g573
S'http://s6.onweb.gr:8032'
p974
sg23
V/logos/gr/mini/kisscrete.gif
p975
sg14
V\u0397\u03a1\u0391\u039a\u039b\u0395\u0399\u039f
p976
sg25
V237
p977
sg18
VKissFm 96,1
p978
ssS'426'
p979
(dp980
g658
S'http://stream.kiss922.gr:59922'
p981
sg23
V/logos/gr/mini/kiss922.gif
p982
sg14
V\u03a0\u0391\u03a4\u03a1\u0391
p983
sg25
V426
p984
sg18
VKiss Fm 92,2
p985
ssS'232'
p986
(dp987
g23
V/logos/gr/mini/topfm.gif
p988
sg14
V\u03a1\u039f\u0394\u039f\u03a3
p989
sg25
V232
p990
sg18
VTop Fm 102,4
p991
ssS'233'
p992
(dp993
g23
V/logos/gr/mini/uoc.gif
p994
sg14
V\u0397\u03a1\u0391\u039a\u039b\u0395\u0399\u039f
p995
sg25
V233
p996
sg18
VUOC 96,7
p997
ssS'1199'
p998
(dp999
g573
S'http://s3.onweb.gr:8452'
p1000
sg23
V/logos/gr/mini/kivotosserres.gif
p1001
sg14
V\u03a3\u0395\u03a1\u03a1\u0395\u03a3
p1002
sg25
V1199
p1003
sg18
V\u03a1\u03ac\u03b4\u03b9\u03bf \u039a\u03b9\u03b2\u03c9\u03c4\u03cc\u03c2 99,2
p1004
ssS'1191'
p1005
(dp1006
g573
S'http://78.159.111.125:8092'
p1007
sg23
V/logos/gr/mini/trustradiothess.gif
p1008
sg14
VINTERNET RADIO
p1009
sg25
V1191
p1010
sg18
VTrust Radio 
p1011
ssS'1197'
p1012
(dp1013
g573
S'http://s2.onweb.gr:8624'
p1014
sg23
V/logos/gr/mini/nologo.gif
p1015
sg14
V\u03a3\u0395\u03a1\u03a1\u0395\u03a3
p1016
sg25
V1197
p1017
sg18
V\u0386\u03bb\u03c6\u03b1 Radio 96
p1018
ssS'1196'
p1019
(dp1020
g23
V/logos/gr/mini/supertsportlarisa.gif
p1021
sg14
V\u039b\u0391\u03a1\u0399\u03a3\u0391
p1022
sg25
V1196
p1023
sg18
VSuper Sport Fm 90,1
p1024
ssS'1'
(dp1025
g848
S'http://golive.onestreaming.com/arion'
p1026
sg23
V/logos/gr/mini/arionradio.gif
p1027
sg14
V\u0391\u0398\u0397\u039d\u0391
p1028
sg25
V1
sg18
VArion Radio 
p1029
ssS'1759'
p1030
(dp1031
g848
S'http://legacy-100-ams.servers.mediacdn.com/avanti977lamia'
p1032
sg23
V/logos/gr/mini/avantifm977.gif
p1033
sg14
V\u039b\u0391\u039c\u0399\u0391
p1034
sg25
V1759
p1035
sg18
VAvanti FM 97,7
p1036
ssS'1758'
p1037
(dp1038
g23
V/logos/gr/mini/jestos.gif
p1039
sg14
VINTERNET RADIO
p1040
sg25
V1758
p1041
sg18
VJesto's Radio 
p1042
ssS'1757'
p1043
(dp1044
g848
S'http://live.onestreaming.com/pavleioslogos'
p1045
sg23
V/logos/gr/mini/pavleioslogos.gif
p1046
sg14
V\u0392\u0395\u03a1\u039f\u0399\u0391
p1047
sg25
V1757
p1048
sg18
V\u03a0\u03b1\u03cd\u03bb\u03b5\u03b9\u03bf\u03c2 \u039b\u03cc\u03b3\u03bf\u03c2 \u0399.\u039c. \u0392\u03ad\u03c1\u03bf\u03b9\u03b1\u03c2 90,2
p1049
ssS'1750'
p1050
(dp1051
g23
V/logos/gr/mini/freakme.gif
p1052
sg14
VINTERNET RADIO
p1053
sg25
V1750
p1054
sg18
VRadioFREAKme 
p1055
ssS'144'
p1056
(dp1057
g848
S'http://nitro.live24.gr/nitro4555'
p1058
sg23
V/logos/gr/mini/nitro.gif
p1059
sg14
V\u0391\u0398\u0397\u039d\u0391
p1060
sg25
V144
p1061
sg18
VNitro Radio 102,5
p1062
ssS'145'
p1063
(dp1064
g848
S'http://sportfm.live24.gr/sportfm7712'
p1065
sg23
V/logos/gr/mini/novasportfm.gif
p1066
sg14
V\u0391\u0398\u0397\u039d\u0391
p1067
sg25
V145
p1068
sg18
VNova Sport Fm 94,6
p1069
ssS'142'
p1070
(dp1071
g573
S'http://eco.onestreaming.com:8245'
p1072
sg23
V/logos/gr/mini/skyradio992.gif
p1073
sg14
V\u0399\u03a9\u0391\u039d\u039d\u0399\u039d\u0391
p1074
sg25
V142
p1075
sg18
VSky Radio 99,2
p1076
ssS'143'
p1077
(dp1078
g848
S'http://sfera.live24.gr/sfera4132'
p1079
sg23
V/logos/gr/mini/sfera.gif
p1080
sg14
V\u0391\u0398\u0397\u039d\u0391
p1081
sg25
V143
p1082
sg18
VSfera 102,2
p1083
ssS'140'
p1084
(dp1085
g23
V/logos/gr/mini/piqerasdj.gif
p1086
sg14
V\u0391\u0398\u0397\u039d\u0391
p1087
sg25
V140
p1088
sg18
VPiqeras Deejay 105,6
p1089
ssS'712'
p1090
(dp1091
g848
S'http://live.onestreaming.com/elladaradio'
p1092
sg23
V/logos/gr/mini/elladaradio.gif
p1093
sg14
V\u03a3\u03a0\u0391\u03a1\u03a4\u0397
p1094
sg25
V712
p1095
sg18
V\u0395\u03bb\u03bb\u03ac\u03b4\u03b1 Fm 96,7
p1096
ssS'1889'
p1097
(dp1098
g23
V/logos/gr/mini/oropos.gif
p1099
sg14
VINTERNET RADIO
p1100
sg25
V1889
p1101
sg18
V\u03a1\u03ac\u03b4\u03b9\u03bf \u03a9\u03c1\u03c9\u03c0\u03cc\u03c2 
p1102
ssS'1887'
p1103
(dp1104
g573
S'http://62.75.177.12:8006'
p1105
sg23
V/logos/gr/mini/rockgenesis.gif
p1106
sg14
VINTERNET RADIO
p1107
sg25
V1887
p1108
sg18
VRockgenesis.gr 
p1109
ssS'1886'
p1110
(dp1111
g573
S'http://66.90.103.144:8938'
p1112
sg23
V/logos/gr/mini/dradio.gif
p1113
sg14
V\u039b\u0391\u03a1\u0399\u03a3\u0391
p1114
sg25
V1886
p1115
sg18
VdRadio 
p1116
ssS'1884'
p1117
(dp1118
g23
V/logos/gr/mini/actradiogr.gif
p1119
sg14
VINTERNET RADIO
p1120
sg25
V1884
p1121
sg18
VAct Radio 
p1122
ssS'1883'
p1123
(dp1124
g573
S'http://s2.onweb.gr:8616'
p1125
sg23
V/logos/gr/mini/80smania.gif
p1126
sg14
VINTERNET RADIO
p1127
sg25
V1883
p1128
sg18
V80smania 
p1129
ssS'1882'
p1130
(dp1131
g23
V/logos/gr/mini/publicradiogr.gif
p1132
sg14
V\u039a\u0391\u039b\u0391\u039c\u0391\u03a4\u0391
p1133
sg25
V1882
p1134
sg18
VPublic Radio 
p1135
ssS'1881'
p1136
(dp1137
g23
V/logos/gr/mini/rockvelvetgr.gif
p1138
sg14
VINTERNET RADIO
p1139
sg25
V1881
p1140
sg18
VRock Velvet 
p1141
ssS'1880'
p1142
(dp1143
g23
V/logos/gr/mini/viasound.gif
p1144
sg14
VINTERNET RADIO
p1145
sg25
V1880
p1146
sg18
VViaSound 
p1147
ssS'878'
p1148
(dp1149
g658
S'http://208.43.115.44:8262'
p1150
sg23
V/logos/gr/mini/mrsoul.gif
p1151
sg14
VINTERNET RADIO
p1152
sg25
V878
p1153
sg18
VMr Soul 
p1154
ssS'948'
p1155
(dp1156
g658
S'http://eco.onestreaming.com:8047'
p1157
sg23
V/logos/gr/mini/klimaka.gif
p1158
sg14
VINTERNET RADIO
p1159
sg25
V948
p1160
sg18
VK\u03bb\u03af\u03bc\u03b1\u03be Plus 
p1161
ssS'949'
p1162
(dp1163
g658
S'http://eco.onestreaming.com:8077'
p1164
sg23
V/logos/gr/mini/maroni.gif
p1165
sg14
VINTERNET RADIO
p1166
sg25
V949
p1167
sg18
VMaroni 
p1168
ssS'946'
p1169
(dp1170
g848
S'http://live.onestreaming.com/blacklemon'
p1171
sg23
V/logos/gr/mini/blacklemon.gif
p1172
sg14
VINTERNET RADIO
p1173
sg25
V946
p1174
sg18
VBlack Lemon Radio 
p1175
ssS'947'
p1176
(dp1177
g23
V/logos/gr/mini/studio54.gif
p1178
sg14
V\u0391\u0398\u0397\u039d\u0391
p1179
sg25
V947
p1180
sg18
VStudio 54 
p1181
ssS'944'
p1182
(dp1183
g658
S'http://eco.onestreaming.com:8025/live'
p1184
sg23
V/logos/gr/mini/iekdomi.gif
p1185
sg14
V\u0391\u0398\u0397\u039d\u0391
p1186
sg25
V944
p1187
sg18
V\u0399\u0395\u039a \u0394\u03bf\u03bc\u03ae Radio 
p1188
ssS'945'
p1189
(dp1190
g848
S'http://live.onestreaming.com/vetofm'
p1191
sg23
V/logos/gr/mini/vetofm.gif
p1192
sg14
V\u039a\u039f\u0396\u0391\u039d\u0397
p1193
sg25
V945
p1194
sg18
VVeto Fm 91
p1195
ssS'940'
p1196
(dp1197
g658
S'http://s2.onweb.gr:8600'
p1198
sg23
V/logos/gr/mini/dreamradio.gif
p1199
sg14
VINTERNET RADIO
p1200
sg25
V940
p1201
sg18
VDream Radio 
p1202
ssS'941'
p1203
(dp1204
g658
S'http://www.dit-radio.gr:7500'
p1205
sg23
V/logos/gr/mini/ditradio.gif
p1206
sg14
VINTERNET RADIO
p1207
sg25
V941
p1208
sg18
VD.I.T. Radio 
p1209
ssS'689'
p1210
(dp1211
g23
V/logos/gr/mini/spyridon.gif
p1212
sg14
V\u039a\u0395\u03a1\u039a\u03a5\u03a1\u0391
p1213
sg25
V689
p1214
sg18
V\u0391\u03b3\u03b9\u03bf\u03c2 \u03a3\u03c0\u03c5\u03c1\u03af\u03b4\u03c9\u03bd 91,1
p1215
ssS'688'
p1216
(dp1217
g848
S'http://live.onestreaming.com/skyptolem'
p1218
sg23
V/logos/gr/mini/skyptolem.gif
p1219
sg14
V\u03a0\u03a4\u039f\u039bE\u039c\u0391\u0399\u0394\u0391
p1220
sg25
V688
p1221
sg18
VSky Fm 99,7
p1222
ssS'685'
p1223
(dp1224
g658
S'http://s3.onweb.gr:8522'
p1225
sg23
V/logos/gr/mini/cretaplanet.gif
p1226
sg14
VINTERNET RADIO
p1227
sg25
V685
p1228
sg18
VCreta Planet 
p1229
ssS'684'
p1230
(dp1231
g23
V/logos/gr/mini/krestena.gif
p1232
sg14
V\u039a\u03a1\u0395\u03a3\u03a4\u0395\u039d\u0391
p1233
sg25
V684
p1234
sg18
V\u03a1\u03ac\u03b4\u03b9\u03bf \u039a\u03c1\u03ad\u03c3\u03c4\u03b5\u03bd\u03b1 101,3
p1235
ssS'687'
p1236
(dp1237
g848
S'http://live.onestreaming.com/mousikokanali'
p1238
sg23
V/logos/gr/mini/mousikokanali.gif
p1239
sg14
V\u0397\u03a1\u0391\u039a\u039b\u0395\u0399\u039f
p1240
sg25
V687
p1241
sg18
V\u039c\u03bf\u03c5\u03c3\u03b9\u03ba\u03cc \u039a\u03b1\u03bd\u03ac\u03bb\u03b9 105,1
p1242
ssS'686'
p1243
(dp1244
g658
S'http://eco.onestreaming.com:8314'
p1245
sg23
V/logos/gr/mini/nrgkozanis.gif
p1246
sg14
V\u039a\u039f\u0396\u0391\u039d\u0397
p1247
sg25
V686
p1248
sg18
VNRG Radio 89,5
p1249
ssS'680'
p1250
(dp1251
g848
S'http://realfm.live24.gr/realfm'
p1252
sg23
V/logos/gr/mini/realfm.gif
p1253
sg14
V\u0391\u0398\u0397\u039d\u0391
p1254
sg25
V680
p1255
sg18
VReal Fm 97,8
p1256
ssS'683'
p1257
(dp1258
g23
V/logos/gr/mini/rockmachine.gif
p1259
sg14
VINTERNET RADIO
p1260
sg25
V683
p1261
sg18
VRock Machine 
p1262
ssS'1818'
p1263
(dp1264
g23
V/logos/gr/mini/inathens.gif
p1265
sg14
VINTERNET RADIO
p1266
sg25
V1818
p1267
sg18
VIn Athens Radio 
p1268
ssS'130'
p1269
(dp1270
g658
S'http://85.17.30.90:9984'
p1271
sg23
V/logos/gr/mini/hotmix.gif
p1272
sg14
V\u03a4\u03a1\u0399\u039a\u0391\u039b\u0391
p1273
sg25
V130
p1274
sg18
VHotMix 88
p1275
ssS'137'
p1276
(dp1277
g23
V/logos/gr/mini/88miso.gif
p1278
sg14
V\u0398\u0395\u03a3\u03a3\u0391\u039b\u039f\u039d\u0399\u039a\u0397
p1279
sg25
V137
p1280
sg18
V88 \u03bc\u03b9\u03c3\u03cc 88,5
p1281
ssS'499'
p1282
(dp1283
g848
S'http://live.onestreaming.com/aegeanant1'
p1284
sg23
V/logos/gr/mini/aegeanant1.gif
p1285
sg14
V\u03a7\u0399\u039f\u03a3
p1286
sg25
V499
p1287
sg18
VAnt1 \u0391\u03b9\u03b3\u03b1\u03af\u03bf 105
p1288
ssS'134'
p1289
(dp1290
g658
S'http://live.duth.gr:8000/erakom'
p1291
sg23
V/logos/gr/mini/eraweb.gif
p1292
sg14
V\u039a\u039f\u039c\u039f\u03a4H\u039d\u0397
p1293
sg25
V134
p1294
sg18
V\u0395\u03a1\u0391 \u039a\u03bf\u03bc\u03bf\u03c4\u03b7\u03bd\u03ae\u03c2 98,4
p1295
ssS'496'
p1296
(dp1297
g848
S'http://live.onestreaming.com/kanali3'
p1298
sg23
V/logos/gr/mini/kanali3.gif
p1299
sg14
V\u03a6\u039b\u03a9\u03a1\u0399\u039d\u0391
p1300
sg25
V496
p1301
sg18
V\u039a\u03b1\u03bd\u03ac\u03bb\u03b9 3 104
p1302
ssS'497'
p1303
(dp1304
g848
S'http://live.onestreaming.com/panoramafm'
p1305
sg23
V/logos/gr/mini/panoramafm.gif
p1306
sg14
V\u03a0\u03a4\u039f\u039bE\u039c\u0391\u0399\u0394\u0391
p1307
sg25
V497
p1308
sg18
V\u03a0\u03b1\u03bd\u03cc\u03c1\u03b1\u03bc\u03b1 Fm 101,8
p1309
ssS'490'
p1310
(dp1311
g23
V/logos/gr/mini/studio980.gif
p1312
sg14
V\u03a1\u0395\u0398\u03a5\u039c\u039d\u039f
p1313
sg25
V490
p1314
sg18
VStudio 98
p1315
ssS'491'
p1316
(dp1317
g658
S'http://s1.onweb.gr:8408'
p1318
sg23
V/logos/gr/mini/studio3.gif
p1319
sg14
V\u0398\u0395\u03a3\u03a3\u0391\u039b\u039f\u039d\u0399\u039a\u0397
p1320
sg25
V491
p1321
sg18
VStudio 3 103,5
p1322
ssS'1830'
p1323
(dp1324
g658
S'http://eco.onestreaming.com:8064'
p1325
sg23
V/logos/gr/mini/gorgona.gif
p1326
sg14
VINTERNET RADIO
p1327
sg25
V1830
p1328
sg18
VGorgona K1 
p1329
ssS'27'
p1330
(dp1331
g658
S'http://85.17.75.143:80'
p1332
sg23
V/logos/gr/mini/echoes.gif
p1333
sg14
VINTERNET RADIO
p1334
sg25
V27
p1335
sg18
VEchoes 
p1336
ssS'1836'
p1337
(dp1338
g848
S'http://eco.onestreaming.com:8146'
p1339
sg23
V/logos/gr/mini/radioolympos.gif
p1340
sg14
V\u039a\u0391\u03a1\u03a0\u0391\u0398\u039f\u03a3
p1341
sg25
V1836
p1342
sg18
VRadio Olympos 
p1343
ssS'21'
p1344
(dp1345
g23
V/logos/gr/mini/greca.gif
p1346
sg14
V\u03a0\u03a5\u03a1\u0393\u039f\u03a3
p1347
sg25
V21
p1348
sg18
VGreca Fm 99,4
p1349
ssS'1834'
p1350
(dp1351
g658
S'http://46.4.65.194:8039'
p1352
sg23
V/logos/gr/mini/yes912.gif
p1353
sg14
V\u03a0\u0391\u03a4\u03a1\u0391
p1354
sg25
V1834
p1355
sg18
VYES! 91,2
p1356
ssS'1838'
p1357
(dp1358
g658
S'http://eco.onestreaming.com:8074/live'
p1359
sg23
V/logos/gr/mini/maelli.gif
p1360
sg14
VINTERNET RADIO
p1361
sg25
V1838
p1362
sg18
VMaelli Radio 
p1363
ssS'1839'
p1364
(dp1365
g848
S'http://golive.onestreaming.com/akousinlove'
p1366
sg23
V/logos/gr/mini/akous_inlove.gif
p1367
sg14
V\u0391\u0398\u0397\u039d\u0391
p1368
sg25
V1839
p1369
sg18
VAkous. InLove 
p1370
ssS'938'
p1371
(dp1372
g848
S'http://live.onestreaming.com/alexandria'
p1373
sg23
V/logos/gr/mini/alexandria.gif
p1374
sg14
V\u0391\u039b\u0395\u039e\u0391\u039d\u0394\u03a1\u0395\u0399\u0391
p1375
sg25
V938
p1376
sg18
V\u03a1\u03ac\u03b4\u03b9\u03bf \u0391\u03bb\u03b5\u03be\u03ac\u03bd\u03b4\u03c1\u03b5\u03b9\u03b1 97,7
p1377
ssS'2019'
p1378
(dp1379
g23
V/logos/gr/mini/albishara.gif
p1380
sg14
VINTERNET RADIO
p1381
sg25
V2019
p1382
sg18
VRadio Al-Bishara 
p1383
ssS'2018'
p1384
(dp1385
g658
S'http://208.43.115.44:9632'
p1386
sg23
V/logos/gr/mini/silibre.gif
p1387
sg14
VINTERNET RADIO
p1388
sg25
V2018
p1389
sg18
VSilibre 
p1390
ssS'401'
p1391
(dp1392
g23
V/logos/gr/mini/motionfm.gif
p1393
sg14
VINTERNET RADIO
p1394
sg25
V401
p1395
sg18
VMotion Fm 
p1396
ssS'933'
p1397
(dp1398
g658
S'http://208.43.121.133:9088'
p1399
sg23
V/logos/gr/mini/nologo.gif
p1400
sg14
VINTERNET RADIO
p1401
sg25
V933
p1402
sg18
VMidnight Blues 
p1403
ssS'2014'
p1404
(dp1405
g23
V/logos/gr/mini/nologo.gif
p1406
sg14
V\u039b\u0397\u039c\u039d\u039f\u03a3
p1407
sg25
V2014
p1408
sg18
VFm 100 100
p1409
ssS'931'
p1410
(dp1411
g23
V/logos/gr/mini/freshwebradio.gif
p1412
sg14
VINTERNET RADIO
p1413
sg25
V931
p1414
sg18
VFresh Web Radio 
p1415
ssS'2016'
p1416
(dp1417
g23
V/logos/gr/mini/fradio.gif
p1418
sg14
V\u0391\u0398\u0397\u039d\u0391
p1419
sg25
V2016
p1420
sg18
VF Radio 
p1421
ssS'937'
p1422
(dp1423
g658
S'http://85.17.238.96:8050'
p1424
sg23
V/logos/gr/mini/ianosradio.gif
p1425
sg14
VINTERNET RADIO
p1426
sg25
V937
p1427
sg18
VIanos Radio 
p1428
ssS'2010'
p1429
(dp1430
g658
S'http://free.freeshoutcast.com:6768'
p1431
sg23
V/logos/gr/mini/nologo.gif
p1432
sg14
V\u03a7\u0391\u039d\u0399\u0391
p1433
sg25
V2010
p1434
sg18
VHip Hop Radio 107,3
p1435
ssS'409'
p1436
(dp1437
g848
S'http://live.onestreaming.com/club937'
p1438
sg23
V/logos/gr/mini/clubfm.gif
p1439
sg14
V\u0399\u0395\u03a1\u0391\u03a0\u0395\u03a4\u03a1\u0391
p1440
sg25
V409
p1441
sg18
VClub FM 93,7
p1442
ssS'2012'
p1443
(dp1444
g658
S'http://live.radio-sense.com:8035'
p1445
sg23
V/logos/gr/mini/radiosensecy.gif
p1446
sg14
V\u039b\u0395\u03a5\u039a\u03a9\u03a3\u0399\u0391
p1447
sg25
V2012
p1448
sg18
VRadio Sense 
p1449
ssS'1955'
p1450
(dp1451
g23
V/logos/gr/mini/nologo.gif
p1452
sg14
VINTERNET RADIO
p1453
sg25
V1955
p1454
sg18
VSeal Radio 
p1455
ssS'1954'
p1456
(dp1457
g658
S'http://www.cancelled.gr:8015/cancelled.mp3'
p1458
sg23
V/logos/gr/mini/cancelled.gif
p1459
sg14
V\u0391\u0398\u0397\u039d\u0391
p1460
sg25
V1954
p1461
sg18
VRadio Cancelled  
p1462
ssS'1957'
p1463
(dp1464
g658
S'http://s1.viastreaming.net:7370'
p1465
sg23
V/logos/gr/mini/skordo.gif
p1466
sg14
V\u0398\u0395\u03a3\u03a3\u0391\u039b\u039f\u039d\u0399\u039a\u0397
p1467
sg25
V1957
p1468
sg18
VSkordo Radio 
p1469
ssS'1956'
p1470
(dp1471
g658
S'http://159.253.149.12:8188'
p1472
sg23
V/logos/gr/mini/solidradio.gif
p1473
sg14
VINTERNET RADIO
p1474
sg25
V1956
p1475
sg18
VSolid Radio 
p1476
ssS'1951'
p1477
(dp1478
g658
S'http://147.102.216.3:8000/live'
p1479
sg23
V/logos/gr/mini/polytexneio.gif
p1480
sg14
VINTERNET RADIO
p1481
sg25
V1951
p1482
sg18
VPolyteXneio FM 
p1483
ssS'1950'
p1484
(dp1485
g658
S'http://188.40.131.14:6004'
p1486
sg23
V/logos/gr/mini/cosiradio.gif
p1487
sg14
VINTERNET RADIO
p1488
sg25
V1950
p1489
sg18
VCosiRadio Int'l Station 
p1490
ssS'1953'
p1491
(dp1492
g23
V/logos/gr/mini/nologo.gif
p1493
sg14
VINTERNET RADIO
p1494
sg25
V1953
p1495
sg18
VPiratis Radio 
p1496
ssS'1952'
p1497
(dp1498
g23
V/logos/gr/mini/mouspanintl.gif
p1499
sg14
V\u039a\u0391\u03a4\u0395\u03a1\u0399\u039d\u0397
p1500
sg25
V1952
p1501
sg18
V\u039c\u03bf\u03c5\u03c3\u03b9\u03ba\u03cc \u03a0\u03b1\u03bd\u03cc\u03c1\u03b1\u03bc\u03b1 Int'l Radio 
p1502
ssS'1958'
p1503
(dp1504
g23
V/logos/gr/mini/taelafakia.gif
p1505
sg14
V\u03a1\u039f\u0394\u039f\u03a3
p1506
sg25
V1958
p1507
sg18
VTa Elafakia 
p1508
ssS'379'
p1509
(dp1510
g848
S'http://eco.onestreaming.com:8226'
p1511
sg23
V/logos/gr/mini/topfmxanthi.gif
p1512
sg14
V\u039e\u0391\u039d\u0398\u0397
p1513
sg25
V379
p1514
sg18
VTop Fm 96,9
p1515
ssS'829'
p1516
(dp1517
g23
V/logos/gr/mini/sportfmrethymno.gif
p1518
sg14
V\u03a1\u0395\u0398\u03a5\u039c\u039d\u039f
p1519
sg25
V829
p1520
sg18
VSport Fm 103,3
p1521
ssS'824'
p1522
(dp1523
g23
V/logos/gr/mini/proinosfm.gif
p1524
sg14
V\u03a4\u03a1\u0399\u039a\u0391\u039b\u0391
p1525
sg25
V824
p1526
sg18
V\u03a0\u03c1\u03c9\u03b9\u03bd\u03cc\u03c2 Fm 105,3
p1527
ssS'827'
p1528
(dp1529
g23
V/logos/gr/mini/ermisradio.gif
p1530
sg14
V\u0396\u0391\u039a\u03a5\u039d\u0398\u039f\u03a3
p1531
sg25
V827
p1532
sg18
V\u0395\u03c1\u03bc\u03ae\u03c2 91,8
p1533
ssS'826'
p1534
(dp1535
g848
S'http://live.onestreaming.com/radiosiatistas'
p1536
sg23
V/logos/gr/mini/radiosiatistas.gif
p1537
sg14
V\u03a3\u0399\u0391\u03a4\u0399\u03a3\u03a4\u0391
p1538
sg25
V826
p1539
sg18
V\u03a1\u03ac\u03b4\u03b9\u03bf \u03a3\u03b9\u03ac\u03c4\u03b9\u03c3\u03c4\u03b1\u03c2 
p1540
ssS'821'
p1541
(dp1542
g848
S'http://live.onestreaming.com/nautilusradio'
p1543
sg23
V/logos/gr/mini/nautilus.gif
p1544
sg14
VINTERNET RADIO
p1545
sg25
V821
p1546
sg18
VNautilus Radio 
p1547
ssS'820'
p1548
(dp1549
g848
S'mmsh://a714.l649552713.c6495.g.lm.akamaistream.net/D/714/6495/v0001/reflector:52713'
p1550
sg23
V/logos/gr/mini/music892new.gif
p1551
sg14
V\u0391\u0398\u0397\u039d\u0391
p1552
sg25
V820
p1553
sg18
VMusic 89,2
p1554
ssS'376'
p1555
(dp1556
g848
S'http://live.onestreaming.com/latofm'
p1557
sg23
V/logos/gr/mini/latofm.gif
p1558
sg14
V\u0391\u0393.\u039d\u0399\u039a\u039f\u039b\u0391\u039f\u03a3
p1559
sg25
V376
p1560
sg18
V\u039b\u03b1\u03c4\u03ce Fm 103,3
p1561
ssS'708'
p1562
(dp1563
g848
S'http://live.onestreaming.com/ermionida'
p1564
sg23
V/logos/gr/mini/ermionidas.gif
p1565
sg14
V\u039a\u03a1\u0391\u039d\u0399\u0394\u0399
p1566
sg25
V708
p1567
sg18
V\u03a1\u03ac\u03b4\u03b9\u03bf \u0395\u03c1\u03bc\u03b9\u03bf\u03bd\u03af\u03b4\u03b1 104,3
p1568
ssS'1871'
p1569
(dp1570
S'url'
p1571
S'http://radio.e-pro.gr:9006'
p1572
sg23
V/logos/gr/mini/viva883.gif
p1573
sg14
V\u039a\u0391\u03a4\u0395\u03a1\u0399\u039d\u0397
p1574
sg25
V1871
p1575
sg18
VViva 88,3
p1576
ssS'700'
p1577
(dp1578
g1571
S'http://178.21.22.213:9650'
p1579
sg23
V/logos/gr/mini/smoothtraxx.gif
p1580
sg14
VINTERNET RADIO
p1581
sg25
V700
p1582
sg18
VSmooth Traxx 
p1583
ssS'392'
p1584
(dp1585
g1571
S'http://bestgreek.info:8104'
p1586
sg23
V/logos/gr/mini/a100.gif
p1587
sg14
V\u0391\u0398\u0397\u039d\u0391
p1588
sg25
V392
p1589
sg18
VA100 107,4
p1590
ssS'88'
p1591
(dp1592
g848
S'http://enleuko.live24.gr/enleuko877'
p1593
sg23
V/logos/gr/mini/enlefko.gif
p1594
sg14
V\u0391\u0398\u0397\u039d\u0391
p1595
sg25
V88
p1596
sg18
V\u0395\u03bd \u039b\u03b5\u03c5\u03ba\u03ce 87,7
p1597
ssS'89'
p1598
(dp1599
g1571
S'http://178.32.72.194:8060/rthes'
p1600
sg23
V/logos/gr/mini/radiothess.gif
p1601
sg14
V\u0398\u0395\u03a3\u03a3\u0391\u039b\u039f\u039d\u0399\u039a\u0397
p1602
sg25
V89
p1603
sg18
V\u03a1\u03ac\u03b4\u03b9\u03bf \u0398\u03b5\u03c3\u03c3\u03b1\u03bb\u03bf\u03bd\u03af\u03ba\u03b7 94,5
p1604
ssS'395'
p1605
(dp1606
g23
V/logos/gr/mini/atlantis.gif
p1607
sg14
V\u0391\u0398\u0397\u039d\u0391
p1608
sg25
V395
p1609
sg18
VAtlantis 105,2
p1610
ssS'82'
p1611
(dp1612
g848
S'http://diesi.live24.gr/diesi1013'
p1613
sg23
V/logos/gr/mini/diesi.gif
p1614
sg14
V\u0391\u0398\u0397\u039d\u0391
p1615
sg25
V82
p1616
sg18
V\u0394\u03af\u03b5\u03c3\u03b7 101,3
p1617
ssS'83'
p1618
(dp1619
g23
V/logos/gr/mini/melodia.gif
p1620
sg14
V\u0391\u0398\u0397\u039d\u0391
p1621
sg25
V83
p1622
sg18
V\u039c\u03b5\u03bb\u03c9\u03b4\u03af\u03b1 99,2
p1623
ssS'399'
p1624
(dp1625
g848
S'http://golive.onestreaming.com/thepopfm'
p1626
sg23
V/logos/gr/mini/thepopfm.gif
p1627
sg14
V\u039c\u03a5\u03a4\u0399\u039b\u0397\u039d\u0397
p1628
sg25
V399
p1629
sg18
VThe Pop Fm 98,6
p1630
ssS'81'
p1631
(dp1632
S'url'
p1633
S'http://sc2.greekstream.net:4008'
p1634
sg23
V/logos/gr/mini/stathmos.gif
p1635
sg14
VINTERNET RADIO
p1636
sg25
V81
p1637
sg18
V\u03a3\u03c4\u03b1\u03b8\u03bc\u03cc\u03c2 
p1638
ssS'935'
p1639
(dp1640
g1633
S'http://85.17.238.96:8050'
p1641
sg23
V/logos/gr/mini/radioart.gif
p1642
sg14
VINTERNET RADIO
p1643
sg25
V935
p1644
sg18
VRadio Art 1 
p1645
ssS'85'
p1646
(dp1647
g1633
S'http://149.5.240.22/WR-GR-WR71'
p1648
sg23
V/logos/gr/mini/nrjathens.gif
p1649
sg14
V\u0391\u0398\u0397\u039d\u0391
p1650
sg25
V85
p1651
sg18
VEnergy Athens 88,6
p1652
ssS'797'
p1653
(dp1654
g1633
S'http://live.waveradio.gr:8000/listen'
p1655
sg23
V/logos/gr/mini/waveradio.gif
p1656
sg14
VINTERNET RADIO
p1657
sg25
V797
p1658
sg18
VWave Radio 
p1659
ssS'796'
p1660
(dp1661
g23
V/logos/gr/mini/cgs.gif
p1662
sg14
VINTERNET RADIO
p1663
sg25
V796
p1664
sg18
V\u0395\u03ba\u03c0\u03b1\u03b9\u03b4\u03b5\u03c5\u03c4\u03ae\u03c1\u03b9\u03b1 \u039a\u03c9\u03c3\u03c4\u03ad\u03b1-\u0393\u03b5\u03af\u03c4\u03bf\u03bd\u03b1 
p1665
ssS'1710'
p1666
(dp1667
g848
S'http://hotsoft.ws:8086/talosfm?.wma'
p1668
sg23
V/logos/gr/mini/talosfm886.gif
p1669
sg14
V\u03a1\u0395\u0398\u03a5\u039c\u039d\u039f
p1670
sg25
V1710
p1671
sg18
V\u03a4\u03ac\u03bb\u03c9\u03c2 FM 88,6
p1672
ssS'793'
p1673
(dp1674
g1633
S'http://eco.onestreaming.com:8005/stream'
p1675
sg23
V/logos/gr/mini/loco.gif
p1676
sg14
V\u0391\u0398\u0397\u039d\u0391
p1677
sg25
V793
p1678
sg18
VLoco Radio 
p1679
ssS'792'
p1680
(dp1681
g23
V/logos/gr/mini/epigee.gif
p1682
sg14
VINTERNET RADIO
p1683
sg25
V792
p1684
sg18
VEpigee Radio 
p1685
ssS'791'
p1686
(dp1687
g1633
S'http://uk3-vn.mixstream.net:8258'
p1688
sg23
V/logos/gr/mini/kentrokardias.gif
p1689
sg14
V\u0397\u03a1\u0391\u039a\u039b\u0395\u0399\u039f
p1690
sg25
V791
p1691
sg18
V\u039a\u03ad\u03bd\u03c4\u03c1\u03bf \u039a\u03b1\u03c1\u03b4\u03b9\u03ac\u03c2 95
p1692
ssS'790'
p1693
(dp1694
g1633
S'http://sc2.greekstream.net:4010'
p1695
sg23
V/logos/gr/mini/coolfmeu.gif
p1696
sg14
VINTERNET RADIO
p1697
sg25
V790
p1698
sg18
VCool Radio 
p1699
ssS'799'
p1700
(dp1701
g848
S'http://live.onestreaming.com/nikolaou'
p1702
sg23
V/logos/gr/mini/nikolaou.gif
p1703
sg14
V\u0391\u0398\u0397\u039d\u0391
p1704
sg25
V799
p1705
sg18
V\u039d\u03b9\u03ba\u03bf\u03bb\u03ac\u03bf\u03c5 Radio 
p1706
ssS'7'
(dp1707
g848
S'http://golive.onestreaming.com/arionlaikos'
p1708
sg23
V/logos/gr/mini/arionlaikos.gif
p1709
sg14
V\u0391\u0398\u0397\u039d\u0391
p1710
sg25
V7
sg18
VArion \u039b\u03b1\u03ca\u03ba\u03cc\u03c2 
p1711
ssS'170'
p1712
(dp1713
g23
V/logos/gr/mini/powervolos.gif
p1714
sg14
V\u0392\u039f\u039b\u039f\u03a3
p1715
sg25
V170
p1716
sg18
VPower Fm 100,2
p1717
ssS'1655'
p1718
(dp1719
g1633
S'http://eco.onestreaming.com:8115'
p1720
sg23
V/logos/gr/mini/sradio.gif
p1721
sg14
VINTERNET RADIO
p1722
sg25
V1655
p1723
sg18
VSRadio 
p1724
ssS'1132'
p1725
(dp1726
g1633
S'http://www.elgr.info:8112'
p1727
sg23
V/logos/gr/mini/energykast.gif
p1728
sg14
V\u039a\u0391\u03a3\u03a4\u039f\u03a1\u0399\u0391
p1729
sg25
V1132
p1730
sg18
VEnergy 101
p1731
ssS'1136'
p1732
(dp1733
g23
V/logos/gr/mini/vivafm953.gif
p1734
sg14
V\u03a0\u03a4\u039f\u039bE\u039c\u0391\u0399\u0394\u0391
p1735
sg25
V1136
p1736
sg18
VViva FM 95,3
p1737
ssS'241'
p1738
(dp1739
g848
S'http://live.onestreaming.com/radioactive'
p1740
sg23
V/logos/gr/mini/radioactive.gif
p1741
sg14
V\u03a3\u0399\u03a6\u039d\u039f\u03a3
p1742
sg25
V241
p1743
sg18
VRadio Active 91,3
p1744
ssS'243'
p1745
(dp1746
g23
V/logos/gr/mini/spacefmcyclades.gif
p1747
sg14
V\u039d\u0391\u039e\u039f\u03a3
p1748
sg25
V243
p1749
sg18
VSpace Fm 107,5
p1750
ssS'249'
p1751
(dp1752
g23
V/logos/gr/mini/synorafm.gif
p1753
sg14
V\u039a\u0399\u039b\u039a\u0399\u03a3
p1754
sg25
V249
p1755
sg18
VSynora Fm 92,2
p1756
ssS'1430'
p1757
(dp1758
g848
S'http://live.onestreaming.com/aeolos'
p1759
sg23
V/logos/gr/mini/aeolos.gif
p1760
sg14
V\u039c\u03a5\u03a4\u0399\u039b\u0397\u039d\u0397
p1761
sg25
V1430
p1762
sg18
V\u0391\u03af\u03bf\u03bb\u03bf\u03c2 92,8
p1763
ssS'519'
p1764
(dp1765
g1633
S'http://s3.onweb.gr:8462'
p1766
sg23
V/logos/gr/mini/dreamfm.gif
p1767
sg14
V\u0391\u0398\u0397\u039d\u0391
p1768
sg25
V519
p1769
sg18
VDream Fm 103,5
p1770
ssS'518'
p1771
(dp1772
g23
V/logos/gr/mini/sunradio.gif
p1773
sg14
V\u0394\u03a1\u0391\u039c\u0391
p1774
sg25
V518
p1775
sg18
VSun Radio 97,1
p1776
ssS'511'
p1777
(dp1778
g23
V/logos/gr/mini/diktyo.gif
p1779
sg14
V\u03a3\u0395\u03a1\u03a1\u0395\u03a3
p1780
sg25
V511
p1781
sg18
V\u0394\u03af\u03ba\u03c4\u03c5\u03bf 102,4
p1782
ssS'510'
p1783
(dp1784
S'url'
p1785
S'http://s3.onweb.gr:8520'
p1786
sg23
V/logos/gr/mini/ayia942.gif
p1787
sg14
V\u039b\u0391\u03a1\u0399\u03a3\u0391
p1788
sg25
V510
p1789
sg18
V\u03a1\u03b1\u03b4\u03b9\u03bf\u03c6\u03c9\u03bd\u03af\u03b1 \u0391\u03b3\u03b9\u03ac\u03c2 94,2
p1790
ssS'512'
p1791
(dp1792
g1785
S'http://78.46.66.215:8002'
p1793
sg23
V/logos/gr/mini/nrgfm.gif
p1794
sg14
V\u03a7\u0391\u039b\u039a\u0399\u0394\u0391
p1795
sg25
V512
p1796
sg18
VNrg Fm 95
p1797
ssS'515'
p1798
(dp1799
g1785
S'http://live.duth.gr:8000/underground'
p1800
sg23
V/logos/gr/mini/undergroundradio.gif
p1801
sg14
V\u039e\u0391\u039d\u0398\u0397
p1802
sg25
V515
p1803
sg18
VUnderground Radio 100,3
p1804
ssS'514'
p1805
(dp1806
g23
V/logos/gr/mini/sagapo.gif
p1807
sg14
V\u0398\u0395\u03a3\u03a3\u0391\u039b\u039f\u039d\u0399\u039a\u0397
p1808
sg25
V514
p1809
sg18
V\u03a3'\u03b1\u03b3\u03b1\u03c0\u03ce 96,1
p1810
ssS'458'
p1811
(dp1812
g848
S'http://radio.greekstream.net/ekrixi'
p1813
sg23
V/logos/gr/mini/radioekriksi.gif
p1814
sg14
V\u0398\u0395\u03a3\u03a3\u0391\u039b\u039f\u039d\u0399\u039a\u0397
p1815
sg25
V458
p1816
sg18
V\u0388\u03ba\u03c1\u03b7\u03be\u03b7 Fm 99,7
p1817
ssS'459'
p1818
(dp1819
g23
V/logos/gr/mini/erotokritos.gif
p1820
sg14
V\u0397\u03a1\u0391\u039a\u039b\u0395\u0399\u039f
p1821
sg25
V459
p1822
sg18
VErotokritos Fm 87,9
p1823
ssS'451'
p1824
(dp1825
g23
V/logos/gr/mini/rythmosxan.gif
p1826
sg14
V\u039e\u0391\u039d\u0398\u0397
p1827
sg25
V451
p1828
sg18
V\u03a1\u03c5\u03b8\u03bc\u03cc\u03c2 106
p1829
ssS'629'
p1830
(dp1831
g1785
S'http://eco.onestreaming.com:8294'
p1832
sg23
V/logos/gr/mini/power926.gif
p1833
sg14
V\u039a\u039f\u0396\u0391\u039d\u0397
p1834
sg25
V629
p1835
sg18
VPower FM 92,6
p1836
ssS'453'
p1837
(dp1838
g848
S'http://stream.powerfm932.gr/powerfm932'
p1839
sg23
V/logos/gr/mini/powerfm.gif
p1840
sg14
V\u039b\u0391\u03a1\u0399\u03a3\u0391
p1841
sg25
V453
p1842
sg18
VPower Fm 93,2
p1843
ssS'454'
p1844
(dp1845
g848
S'http://live.onestreaming.com/rythmos943'
p1846
sg23
V/logos/gr/mini/rythmos943.gif
p1847
sg14
V\u0396\u0391\u039a\u03a5\u039d\u0398\u039f\u03a3
p1848
sg25
V454
p1849
sg18
V\u03a1\u03c5\u03b8\u03bc\u03cc\u03c2 94,3
p1850
ssS'456'
p1851
(dp1852
g23
V/logos/gr/mini/radioepidavros.gif
p1853
sg14
V\u0395\u03a0\u0399\u0394\u0391\u03a5\u03a1\u039f\u03a3
p1854
sg25
V456
p1855
sg18
V\u03a1\u03ac\u03b4\u03b9\u03bf \u0395\u03c0\u03af\u03b4\u03b1\u03c5\u03c1\u03bf\u03c2 93,8
p1856
ssS'457'
p1857
(dp1858
g1785
S'http://ola.isolservers.com:8300'
p1859
sg23
V/logos/gr/mini/olafm.gif
p1860
sg14
V\u0398\u0395\u03a3\u03a3\u0391\u039b\u039f\u039d\u0399\u039a\u0397
p1861
sg25
V457
p1862
sg18
VOla Fm 91,4
p1863
ssS'1876'
p1864
(dp1865
g1785
S'http://stream.greekradios.gr:8050'
p1866
sg23
V/logos/gr/mini/nologo.gif
p1867
sg14
V\u03a1\u039f\u0394\u039f\u03a3
p1868
sg25
V1876
p1869
sg18
V\u03a0\u03b1\u03bb\u03bc\u03cc\u03c2 99,5
p1870
ssS'1877'
p1871
(dp1872
g1785
S'http://208.43.121.133:8178'
p1873
sg23
V/logos/gr/mini/nologo.gif
p1874
sg14
VINTERNET RADIO
p1875
sg25
V1877
p1876
sg18
VStarwalkers Radio Classic 
p1877
ssS'1875'
p1878
(dp1879
g1785
S'http://stream.all-host.gr:9034'
p1880
sg23
V/logos/gr/mini/megalonisos898.gif
p1881
sg14
V\u03a1\u0395\u0398\u03a5\u039c\u039d\u039f
p1882
sg25
V1875
p1883
sg18
V\u03a1\u03ac\u03b4\u03b9\u03bf \u039c\u03b5\u03b3\u03b1\u03bb\u03cc\u03bd\u03b7\u03c3\u03bf\u03c2 89,8
p1884
ssS'1872'
p1885
(dp1886
g23
V/logos/gr/mini/meli106.gif
p1887
sg14
V\u039a\u039f\u0396\u0391\u039d\u0397
p1888
sg25
V1872
p1889
sg18
V\u03a1\u03ac\u03b4\u03b9\u03bf \u039c\u03ad\u03bb\u03b9 106
p1890
ssS'1873'
p1891
(dp1892
g1785
S'http://s6.onweb.gr:8078'
p1893
sg23
V/logos/gr/mini/lefkada884.gif
p1894
sg14
V\u039b\u0395\u03a5\u039a\u0391\u0394\u0391
p1895
sg25
V1873
p1896
sg18
V\u03a1\u03ac\u03b4\u03b9\u03bf \u039b\u03b5\u03c5\u03ba\u03ac\u03b4\u03b1 88,4
p1897
ssS'1870'
p1898
(dp1899
g848
S'http://golive.onestreaming.com/akousjazzin'
p1900
sg23
V/logos/gr/mini/akous_jazzin.gif
p1901
sg14
VINTERNET RADIO
p1902
sg25
V1870
p1903
sg18
VAkous. JazzIN 
p1904
ssS'178'
p1905
(dp1906
g23
V/logos/gr/mini/StigmaFm.gif
p1907
sg14
V\u0396\u0391\u039a\u03a5\u039d\u0398\u039f\u03a3
p1908
sg25
V178
p1909
sg18
V\u03a3\u03c4\u03af\u03b3\u03bc\u03b1 Radio 97,6
p1910
ssS'175'
p1911
(dp1912
g1785
S'http://shoutcast.24radio.gr:8036'
p1913
sg23
V/logos/gr/mini/kisskefalonias.gif
p1914
sg14
V\u039a\u0395\u03a6\u0391\u039b\u039b\u039f\u039d\u0399\u0391
p1915
sg25
V175
p1916
sg18
VKiss Fm 100,6
p1917
ssS'174'
p1918
(dp1919
g848
S'http://live.onestreaming.com/diavlosrodopis'
p1920
sg23
V/logos/gr/mini/diavlosrodopis.gif
p1921
sg14
V\u039a\u039f\u039c\u039f\u03a4H\u039d\u0397
p1922
sg25
V174
p1923
sg18
V\u0394\u03af\u03b1\u03c5\u03bb\u03bf\u03c2 \u03a1\u03bf\u03b4\u03cc\u03c0\u03b7\u03c2 92,4
p1924
ssS'173'
p1925
(dp1926
g1785
S'http://s1.onweb.gr:8422'
p1927
sg23
V/logos/gr/mini/popfm.gif
p1928
sg14
V\u039a\u0395\u03a1\u039a\u03a5\u03a1\u0391
p1929
sg25
V173
p1930
sg18
VPop Fm 102,1
p1931
ssS'172'
p1932
(dp1933
g848
S'http://broadcast.hol.gr/mojoradio'
p1934
sg23
V/logos/gr/mini/mojoradio.gif
p1935
sg14
V\u03a0\u0391\u03a4\u03a1\u0391
p1936
sg25
V172
p1937
sg18
VMojo Radio 107,7
p1938
ssS'1878'
p1939
(dp1940
g23
V/logos/gr/mini/studio359.gif
p1941
sg14
V\u03a7\u0391\u039d\u0399\u0391
p1942
sg25
V1878
p1943
sg18
VStudio 359 103
p1944
ssS'1879'
p1945
(dp1946
g23
V/logos/gr/mini/gold10.gif
p1947
sg14
V\u0392\u039f\u039b\u039f\u03a3
p1948
sg25
V1879
p1949
sg18
VGold10 Radio 
p1950
ssS'972'
p1951
(dp1952
g23
V/logos/gr/mini/aigaio958.gif
p1953
sg14
V\u03a3\u03a5\u03a1\u039f\u03a3
p1954
sg25
V972
p1955
sg18
V\u0391\u03b9\u03b3\u03b1\u03af\u03bf Live 95,8
p1956
ssS'183'
p1957
(dp1958
g1785
S'http://s5.onweb.gr:8020'
p1959
sg23
V/logos/gr/mini/primetime.gif
p1960
sg14
V\u03a3\u03a5\u03a1\u039f\u03a3
p1961
sg25
V183
p1962
sg18
VPrime Radio 100,3
p1963
ssS'654'
p1964
(dp1965
g848
S'http://hotsoft.ws:8086/mk'
p1966
sg23
V/logos/gr/mini/musikokanali.gif
p1967
sg14
V\u03a1\u0395\u0398\u03a5\u039c\u039d\u039f
p1968
sg25
V654
p1969
sg18
V\u039c\u03bf\u03c5\u03c3\u03b9\u03ba\u03cc \u039a\u03b1\u03bd\u03ac\u03bb\u03b9 101,3
p1970
ssS'182'
p1971
(dp1972
g848
S'http://eco.onestreaming.com:8012'
p1973
sg23
V/logos/gr/mini/feres.gif
p1974
sg14
V\u0391\u039b\u0395\u039e\u0391\u039d\u0394\u03a1\u039f\u03a5\u03a0\u039f\u039b\u0397
p1975
sg25
V182
p1976
sg18
VSferikos 99,3
p1977
ssS'657'
p1978
(dp1979
g1785
S'http://s6.onweb.gr:8010'
p1980
sg23
V/logos/gr/mini/palmosonair.gif
p1981
sg14
V\u0391\u0398\u0397\u039d\u0391
p1982
sg25
V657
p1983
sg18
V\u03a0\u03b1\u03bb\u03bc\u03cc\u03c2 105,4
p1984
ssS'180'
p1985
(dp1986
g23
V/logos/gr/mini/bestkos.gif
p1987
sg14
V\u039a\u03a9\u03a3
p1988
sg25
V180
p1989
sg18
VBest Radio 101,1
p1990
ssS'2'
(dp1991
g848
S'http://golive.onestreaming.com/athensparty'
p1992
sg23
V/logos/gr/mini/athensparty.gif
p1993
sg14
V\u0391\u0398\u0397\u039d\u0391
p1994
sg25
V2
sg18
VAthens Party 
p1995
ssS'652'
p1996
(dp1997
g23
V/logos/gr/mini/nologo.gif
p1998
sg14
V\u039a\u0391\u039b\u0391\u039c\u0391\u03a4\u0391
p1999
sg25
V652
p2000
sg18
V\u03a0\u03b1\u03bb\u03bc\u03cc\u03c2 90,5
p2001
ssS'653'
p2002
(dp2003
g1785
S'http://eco.onestreaming.com:8075'
p2004
sg23
V/logos/gr/mini/enimerosi.gif
p2005
sg14
V\u039a\u0391\u03a4\u0395\u03a1\u0399\u039d\u0397
p2006
sg25
V653
p2007
sg18
V\u0395\u03bd\u03b7\u03bc\u03ad\u03c1\u03c9\u03c3\u03b7 92,2
p2008
ssS'184'
p2009
(dp2010
g848
S'http://live.onestreaming.com/mixgrevena'
p2011
sg23
V/logos/gr/mini/mixgrevena.gif
p2012
sg14
V\u0393\u03a1\u0395\u0392\u0395\u039d\u0391
p2013
sg25
V184
p2014
sg18
VMix Fm 102,2
p2015
ssS'651'
p2016
(dp2017
g1785
S'http://188.40.131.14:8022'
p2018
sg23
V/logos/gr/mini/radioamfissa.gif
p2019
sg14
V\u0391\u039c\u03a6\u0399\u03a3\u03a3\u0391
p2020
sg25
V651
p2021
sg18
V\u03a1\u03ac\u03b4\u03b9\u03bf \u0391\u03bc\u03c6\u03b9\u03c3\u03c3\u03b1 104,4
p2022
ssS'658'
p2023
(dp2024
g1785
S'http://shout.streamwithq.gr:4052'
p2025
sg23
V/logos/gr/mini/ellinikos889.gif
p2026
sg14
V\u0391\u039b\u0395\u039e\u0391\u039d\u0394\u03a1\u039f\u03a5\u03a0\u039f\u039b\u0397
p2027
sg25
V658
p2028
sg18
V\u0395\u03bb\u03bb\u03b7\u03bd\u03b9\u03ba\u03cc\u03c2 88,9
p2029
ssS'659'
p2030
(dp2031
g1785
S'http://s5.onweb.gr:8498'
p2032
sg23
V/logos/gr/mini/radiofono108.gif
p2033
sg14
V\u039c\u03a5\u03a4\u0399\u039b\u0397\u039d\u0397
p2034
sg25
V659
p2035
sg18
V\u03a1\u03b1\u03b4\u03b9\u03cc\u03c6\u03c9\u03bd\u03bf 108
p2036
ssS'185'
p2037
(dp2038
g848
S'http://live.onestreaming.com/lefkada'
p2039
sg23
V/logos/gr/mini/lefkada.gif
p2040
sg14
V\u039b\u0395\u03a5\u039a\u0391\u0394\u0391
p2041
sg25
V185
p2042
sg18
VStudio \u039b\u03b5\u03c5\u03ba\u03ac\u03c4\u03b1\u03c2 90,5
p2043
ssS'1918'
p2044
(dp2045
g23
V/logos/gr/mini/radioheaven.gif
p2046
sg14
VINTERNET RADIO
p2047
sg25
V1918
p2048
sg18
VRadio Heaven 
p2049
ssS'1911'
p2050
(dp2051
g23
V/logos/gr/mini/kissne89.gif
p2052
sg14
V\u039a\u0391\u039b\u0391\u039c\u0391\u03a4\u0391
p2053
sg25
V1911
p2054
sg18
VKiss FM 89
p2055
ssS'1910'
p2056
(dp2057
g1785
S'http://eco.onestreaming.com:8142'
p2058
sg23
V/logos/gr/mini/mini1071.gif
p2059
sg14
V\u039a\u03a1\u0395\u03a3\u03a4\u0395\u039d\u0391
p2060
sg25
V1910
p2061
sg18
VMini FM 107,1
p2062
ssS'1915'
p2063
(dp2064
g1785
S'http://78.159.111.125:8042'
p2065
sg23
V/logos/gr/mini/tranceathens.gif
p2066
sg14
VINTERNET RADIO
p2067
sg25
V1915
p2068
sg18
VTrance Athens 
p2069
ssS'1917'
p2070
(dp2071
g23
V/logos/gr/mini/alldaydj.gif
p2072
sg14
VINTERNET RADIO
p2073
sg25
V1917
p2074
sg18
VAllDay DJ 
p2075
ssS'1916'
p2076
(dp2077
g23
V/logos/gr/mini/midnightradio.gif
p2078
sg14
VINTERNET RADIO
p2079
sg25
V1916
p2080
sg18
VMidnight Radio 
p2081
ssS'869'
p2082
(dp2083
g1785
S'http://eco.onestreaming.com:8286'
p2084
sg23
V/logos/gr/mini/lakkasouli.gif
p2085
sg14
VINTERNET RADIO
p2086
sg25
V869
p2087
sg18
V\u039b\u0391\u039a\u039a\u0391 \u03a3\u039f\u03a5\u039b\u0399 Radio 
p2088
ssS'12'
p2089
(dp2090
g1785
S'http://shout.streamwithq.gr:4044'
p2091
sg23
V/logos/gr/mini/flyfm.gif
p2092
sg14
V\u03a1\u0395\u0398\u03a5\u039c\u039d\u039f
p2093
sg25
V12
p2094
sg18
VFly Fm 95,9
p2095
ssS'15'
p2096
(dp2097
g1785
S'http://s1.onweb.gr:8056'
p2098
sg23
V/logos/gr/mini/starsparti.gif
p2099
sg14
V\u03a3\u03a0\u0391\u03a1\u03a4\u0397
p2100
sg25
V15
p2101
sg18
VRadio Star 94,1
p2102
ssS'861'
p2103
(dp2104
g23
V/logos/gr/mini/musicmania.gif
p2105
sg14
V\u0398\u0395\u03a3\u03a3\u0391\u039b\u039f\u039d\u0399\u039a\u0397
p2106
sg25
V861
p2107
sg18
VMusic Mania 
p2108
ssS'862'
p2109
(dp2110
g1785
S'http://208.43.121.133:8036'
p2111
sg23
V/logos/gr/mini/wasteland.gif
p2112
sg14
VINTERNET RADIO
p2113
sg25
V862
p2114
sg18
VWasteland 
p2115
ssS'867'
p2116
(dp2117
g848
S'http://live.onestreaming.com/poligiros'
p2118
sg23
V/logos/gr/mini/poligiros.gif
p2119
sg14
V\u03a0\u039f\u039b\u03a5\u0393\u03a5\u03a1\u039f\u03a3
p2120
sg25
V867
p2121
sg18
V\u0394\u03b7\u03bc\u03bf\u03c4\u03b9\u03ba\u03cc \u03a1\u03b1\u03b4\u03b9\u03cc\u03c6\u03c9\u03bd\u03bf \u03a0\u03bf\u03bb\u03cd\u03b3\u03c5\u03c1\u03bf\u03c5 90,8
p2122
ssS'2024'
p2123
(dp2124
g1785
S'http://94.229.74.195:8004'
p2125
sg23
V/logos/gr/mini/legrec.gif
p2126
sg14
VINTERNET RADIO
p2127
sg25
V2024
p2128
sg18
VLe Grec 
p2129
ssS'2025'
p2130
(dp2131
g1785
S'http://46.167.172.118:8800'
p2132
sg23
V/logos/gr/mini/eroradio.gif
p2133
sg14
VINTERNET RADIO
p2134
sg25
V2025
p2135
sg18
VE.R.O.radio 
p2136
ssS'2026'
p2137
(dp2138
g1785
S'http://173.193.219.163:8616/stream'
p2139
sg23
V/logos/gr/mini/satisfactory.gif
p2140
sg14
VINTERNET RADIO
p2141
sg25
V2026
p2142
sg18
VSatisfactory 
p2143
ssS'2027'
p2144
(dp2145
g1785
S'http://176.9.39.43:7000'
p2146
sg23
V/logos/gr/mini/memorieswr.gif
p2147
sg14
V\u039b\u0397\u039c\u039d\u039f\u03a3
p2148
sg25
V2027
p2149
sg18
VMemories Web Radio 
p2150
ssS'2020'
p2151
(dp2152
g1785
S'http://188.40.75.77:9200'
p2153
sg23
V/logos/gr/mini/ebeeries.gif
p2154
sg14
VINTERNET RADIO
p2155
sg25
V2020
p2156
sg18
V\u039c\u03bf\u03c5\u03c3\u03b9\u03ba\u03ad\u03c2 Ebeer\u03af\u03b5\u03c2 
p2157
ssS'2021'
p2158
(dp2159
g1785
S'http://eco.onestreaming.com:8274'
p2160
sg23
V/logos/gr/mini/revivalradio.gif
p2161
sg14
V\u0398\u0395\u03a3\u03a3\u0391\u039b\u039f\u039d\u0399\u039a\u0397
p2162
sg25
V2021
p2163
sg18
VRevival 
p2164
ssS'2022'
p2165
(dp2166
g1785
S'http://s3.onweb.gr:8014'
p2167
sg23
V/logos/gr/mini/nologo.gif
p2168
sg14
VINTERNET RADIO
p2169
sg25
V2022
p2170
sg18
VOpen Radio 
p2171
ssS'2023'
p2172
(dp2173
g23
V/logos/gr/mini/nologo.gif
p2174
sg14
VINTERNET RADIO
p2175
sg25
V2023
p2176
sg18
V\u0391.\u039c.\u0395.\u0391 Greek 
p2177
ssS'2028'
p2178
(dp2179
g1785
S'http://178.21.169.118:8002/stream'
p2180
sg23
V/logos/gr/mini/mansta.gif
p2181
sg14
VINTERNET RADIO
p2182
sg25
V2028
p2183
sg18
VMansta Radio 
p2184
ssS'2029'
p2185
(dp2186
g1785
S'http://eco.onestreaming.com:8284'
p2187
sg23
V/logos/gr/mini/wmusicradio.gif
p2188
sg14
VINTERNET RADIO
p2189
sg25
V2029
p2190
sg18
VW Music Radio 
p2191
ssS'883'
p2192
(dp2193
g23
V/logos/gr/mini/diveradio.gif
p2194
sg14
VINTERNET RADIO
p2195
sg25
V883
p2196
sg18
VDive Radio 
p2197
ssS'885'
p2198
(dp2199
g1785
S'http://78.46.46.214:7048'
p2200
sg23
V/logos/gr/mini/musicartclub.gif
p2201
sg14
V\u0398\u0395\u03a3\u03a3\u0391\u039b\u039f\u039d\u0399\u039a\u0397
p2202
sg25
V885
p2203
sg18
VMusic Art Club 
p2204
ssS'889'
p2205
(dp2206
g1785
S'http://www.tuningradio.gr:8000'
p2207
sg23
V/logos/gr/mini/tuningradio.gif
p2208
sg14
V\u0398\u0395\u03a3\u03a3\u0391\u039b\u039f\u039d\u0399\u039a\u0397
p2209
sg25
V889
p2210
sg18
VTuning Radio 
p2211
ssS'888'
p2212
(dp2213
g1785
S'http://s6.onweb.gr:8006'
p2214
sg23
V/logos/gr/mini/xronosfm.gif
p2215
sg14
V\u039a\u039f\u039c\u039f\u03a4H\u039d\u0397
p2216
sg25
V888
p2217
sg18
V\u03a7\u03c1\u03cc\u03bd\u03bf\u03c2 87,5
p2218
ssS'1968'
p2219
(dp2220
g1785
S'http://184.154.10.83:8390'
p2221
sg23
V/logos/gr/mini/dmrr.gif
p2222
sg14
VINTERNET RADIO
p2223
sg25
V1968
p2224
sg18
VDepressive Metal Rock Radio 
p2225
ssS'1969'
p2226
(dp2227
g1785
S'http://208.116.16.246:8222'
p2228
sg23
V/logos/gr/mini/playradiogr.gif
p2229
sg14
VINTERNET RADIO
p2230
sg25
V1969
p2231
sg18
VPlay Radio 
p2232
ssS'929'
p2233
(dp2234
g23
V/logos/gr/mini/netcruiseradio.gif
p2235
sg14
VINTERNET RADIO
p2236
sg25
V929
p2237
sg18
VNetcruise Radio 
p2238
ssS'1965'
p2239
(dp2240
g848
S'http://ss-wms-8.streamsolutions.co.uk/tligradio_gr'
p2241
sg23
V/logos/gr/mini/tlig.gif
p2242
sg14
VINTERNET RADIO
p2243
sg25
V1965
p2244
sg18
V\u0391\u03bb\u03b7\u03b8\u03b9\u03bd\u03ae \u0395\u03bd \u0398\u03b5\u03ce \u0396\u03c9\u03ae 
p2245
ssS'1966'
p2246
(dp2247
g23
V/logos/gr/mini/lagada.gif
p2248
sg14
V\u0398\u0395\u03a3\u03a3\u0391\u039b\u039f\u039d\u0399\u039a\u0397
p2249
sg25
V1966
p2250
sg18
V\u03a1\u03ac\u03b4\u03b9\u03bf \u039b\u03b1\u03b3\u03ba\u03b1\u03b4\u03ac 100,6
p2251
ssS'1967'
p2252
(dp2253
g1785
S'http://eco.onestreaming.com:8213'
p2254
sg23
V/logos/gr/mini/super995.gif
p2255
sg14
V\u03a7\u0391\u039b\u039a\u0399\u0394\u0399\u039a\u0397
p2256
sg25
V1967
p2257
sg18
VSuper Radio 99,5
p2258
ssS'1960'
p2259
(dp2260
g1785
S'http://68.168.103.13:8280'
p2261
sg23
V/logos/gr/mini/bfmiradio.gif
p2262
sg14
V\u0395\u0394\u0395\u03a3\u03a3\u0391
p2263
sg25
V1960
p2264
sg18
VB.F.M. iRadio 
p2265
ssS'809'
p2266
(dp2267
g1785
S'http://a839.l14625156838.c146251.e.lm.akamaistream.net/D/839/146251/v0001/reflector:56838'
p2268
sg23
V/logos/gr/mini/offradio.gif
p2269
sg14
V\u0398\u0395\u03a3\u03a3\u0391\u039b\u039f\u039d\u0399\u039a\u0397
p2270
sg25
V809
p2271
sg18
VOFF Radio 
p2272
ssS'1962'
p2273
(dp2274
g23
V/logos/gr/mini/involved.gif
p2275
sg14
V\u03a0\u0395\u0399\u03a1\u0391\u0399\u0391\u03a3
p2276
sg25
V1962
p2277
sg18
VInvolved Radio 
p2278
ssS'1963'
p2279
(dp2280
g1785
S'http://176.9.39.43:7008'
p2281
sg23
V/logos/gr/mini/melodiesweb.gif
p2282
sg14
V\u0391\u0398\u0397\u039d\u0391
p2283
sg25
V1963
p2284
sg18
V\u039c\u03b5\u03bb\u03c9\u03b4\u03af\u03b5\u03c2 Web Radio 
p2285
ssS'201'
p2286
(dp2287
g848
S'http://live.onestreaming.com/radionetlamia'
p2288
sg23
V/logos/gr/mini/radionetlamia.gif
p2289
sg14
V\u039b\u0391\u039c\u0399\u0391
p2290
sg25
V201
p2291
sg18
VRadio Net 101,9
p2292
ssS'203'
p2293
(dp2294
g848
S'http://dromos898.live24.gr/dromos898'
p2295
sg23
V/logos/gr/mini/dromosfm.gif
p2296
sg14
V\u0391\u0398\u0397\u039d\u0391
p2297
sg25
V203
p2298
sg18
V\u0394\u03c1\u03cc\u03bc\u03bf\u03c2 89,8
p2299
ssS'202'
p2300
(dp2301
g848
S'http://legacy-100-ams.servers.mediacdn.com/radiojukebox?95430816eded9c5d097e7456816bc09c'
p2302
sg23
V/logos/gr/mini/jukebox.gif
p2303
sg14
VINTERNET RADIO
p2304
sg25
V202
p2305
sg18
VJukeBox 
p2306
ssS'771'
p2307
(dp2308
g23
V/logos/gr/mini/danceradio.gif
p2309
sg14
VINTERNET RADIO
p2310
sg25
V771
p2311
sg18
VDance Radio - ChillOut Channel 
p2312
ssS'204'
p2313
(dp2314
g1785
S'http://eco.caststream.net:8044'
p2315
sg23
V/logos/gr/mini/peiraios.gif
p2316
sg14
V\u0391\u0398\u0397\u039d\u0391
p2317
sg25
V204
p2318
sg18
V\u03a0\u03b5\u03b9\u03c1\u03b1\u03ca\u03ba\u03ae \u0395\u03ba\u03ba\u03bb\u03b7\u03c3\u03af\u03b1 91,2
p2319
ssS'207'
p2320
(dp2321
g23
V/logos/gr/mini/starfmdm.gif
p2322
sg14
V\u0393\u03a1\u0395\u0392\u0395\u039d\u0391
p2323
sg25
V207
p2324
sg18
VStar Fm 93,3
p2325
ssS'206'
p2326
(dp2327
g1785
S'http://eco.onestreaming.com:8052'
p2328
sg23
V/logos/gr/mini/athletic.gif
p2329
sg14
V\u0397\u03a1\u0391\u039a\u039b\u0395\u0399\u039f
p2330
sg25
V206
p2331
sg18
VAthletic 104,2
p2332
ssS'209'
p2333
(dp2334
g1785
S'http://147.27.23.40:8000'
p2335
sg23
V/logos/gr/mini/radioentasi.gif
p2336
sg14
V\u03a7\u0391\u039d\u0399\u0391
p2337
sg25
V209
p2338
sg18
VRadio \u0395\u03bd\u03c4\u03b1\u03c3\u03b7 93,5
p2339
ssS'208'
p2340
(dp2341
g1785
S'http://eco.onestreaming.com:8081'
p2342
sg23
V/logos/gr/mini/liberofm.gif
p2343
sg14
V\u0398\u0395\u03a3\u03a3\u0391\u039b\u039f\u039d\u0399\u039a\u0397
p2344
sg25
V208
p2345
sg18
VLibero 107,4
p2346
ssS'779'
p2347
(dp2348
g1785
S'http://eco.onestreaming.com:8171'
p2349
sg23
V/logos/gr/mini/venusfm.gif
p2350
sg14
V\u0391\u039c\u0391\u039b\u0399\u0391\u0394\u0391
p2351
sg25
V779
p2352
sg18
VVenus 105,1
p2353
ssS'77'
p2354
(dp2355
g23
V/logos/gr/mini/anampa.gif
p2356
sg14
VINTERNET RADIO
p2357
sg25
V77
p2358
sg18
V\u03a1\u03b1\u03b4\u03b9\u03cc\u03c6\u03c9\u03bd\u03bf \u0391\u03a0\u0395 - \u039c\u03a0\u0395 
p2359
ssS'76'
p2360
(dp2361
g1785
S'http://eco.onestreaming.com:8033'
p2362
sg23
V/logos/gr/mini/livefm.gif
p2363
sg14
V\u03a7\u0391\u039b\u039a\u0399\u0394\u0391
p2364
sg25
V76
p2365
sg18
VLive fm 89,6
p2366
ssS'73'
p2367
(dp2368
g23
V/logos/gr/mini/metalzone.gif
p2369
sg14
VINTERNET RADIO
p2370
sg25
V73
p2371
sg18
VMetal Zone 
p2372
ssS'72'
p2373
(dp2374
g23
V/logos/gr/mini/nologo.gif
p2375
sg14
V\u03a7\u0391\u039b\u039a\u0399\u0394\u0399\u039a\u0397
p2376
sg25
V72
p2377
sg18
V\u0395\u03bb\u03bb\u03b7\u03bd\u03bf\u03c1\u03b8\u03cc\u03b4\u03bf\u03be\u03b7 \u03a0\u03b1\u03c1\u03b1\u03b4\u03bf\u03c3\u03b7 \u03ba \u0396\u03c9\u03ae 106
p2378
ssS'70'
p2379
(dp2380
g848
S'http://live.onestreaming.com/planetradio'
p2381
sg23
V/logos/gr/mini/planetradio.gif
p2382
sg14
V\u0399\u0395\u03a1\u0391\u03a0\u0395\u03a4\u03a1\u0391
p2383
sg25
V70
p2384
sg18
VRadio Planet 90,6
p2385
ssS'655'
p2386
(dp2387
g848
S'http://broadcast.hol.gr/cityfm'
p2388
sg23
V/logos/gr/mini/cityfm1038.gif
p2389
sg14
V\u039a\u0391\u039b\u0391\u039c\u0391\u03a4\u0391
p2390
sg25
V655
p2391
sg18
VCity Fm 103,8
p2392
ssS'1769'
p2393
(dp2394
g23
V/logos/gr/mini/extremeradiogr.gif
p2395
sg14
VINTERNET RADIO
p2396
sg25
V1769
p2397
sg18
VExtreme Radio 
p2398
ssS'359'
p2399
(dp2400
g1785
S'http://iradio.phaseradio.gr:8035/phaseradio'
p2401
sg23
V/logos/gr/mini/phaseradio.gif
p2402
sg14
V\u039b\u0391\u039c\u0399\u0391
p2403
sg25
V359
p2404
sg18
VPhase Radio 87,7
p2405
ssS'1762'
p2406
(dp2407
g23
V/logos/gr/mini/klikfm1062.gif
p2408
sg14
V\u03a1\u039f\u0394\u039f\u03a3
p2409
sg25
V1762
p2410
sg18
V\u039a\u039b\u0399\u039a FM 106,2
p2411
ssS'1763'
p2412
(dp2413
g1785
S'http://188.121.60.170:6002'
p2414
sg23
V/logos/gr/mini/gagaradio.gif
p2415
sg14
V\u039a\u0395\u03a1\u039a\u03a5\u03a1\u0391
p2416
sg25
V1763
p2417
sg18
VGaga Radio 
p2418
ssS'1760'
p2419
(dp2420
g848
S'http://live.onestreaming.com/mouspalmos945'
p2421
sg23
V/logos/gr/mini/mouspalmos945.gif
p2422
sg14
V\u039d\u0395\u0391\u03a0\u039f\u039b\u0397
p2423
sg25
V1760
p2424
sg18
V\u039c\u03bf\u03c5\u03c3\u03b9\u03ba\u03cc\u03c2 \u03a0\u03b1\u03bb\u03bc\u03cc\u03c2 94,5
p2425
ssS'1761'
p2426
(dp2427
g848
S'http://live.onestreaming.com/diastasis'
p2428
sg23
V/logos/gr/mini/diastasis.gif
p2429
sg14
VINTERNET RADIO
p2430
sg25
V1761
p2431
sg18
V\u0394\u03b9\u03ac\u03c3\u03c4\u03b1\u03c3\u03b9\u03c2 
p2432
ssS'1766'
p2433
(dp2434
g848
S'http://live.onestreaming.com/sky913fm'
p2435
sg23
V/logos/gr/mini/sky913fm.gif
p2436
sg14
V\u03a1\u0395\u0398\u03a5\u039c\u039d\u039f
p2437
sg25
V1766
p2438
sg18
VSky FM 91,3
p2439
ssS'1767'
p2440
(dp2441
g23
V/logos/gr/mini/radiomora.gif
p2442
sg14
VINTERNET RADIO
p2443
sg25
V1767
p2444
sg18
VRadio Mora 
p2445
ssS'1764'
p2446
(dp2447
g23
V/logos/gr/mini/mandra.gif
p2448
sg14
VINTERNET RADIO
p2449
sg25
V1764
p2450
sg18
VMandra Radio 
p2451
ssS'1765'
p2452
(dp2453
g23
V/logos/gr/mini/oscar909.gif
p2454
sg14
V\u039b\u0391\u039c\u0399\u0391
p2455
sg25
V1765
p2456
sg18
VOscar FM 90,9
p2457
ssS'216'
p2458
(dp2459
g23
V/logos/gr/mini/ant1kerkyra.gif
p2460
sg14
V\u039a\u0395\u03a1\u039a\u03a5\u03a1\u0391
p2461
sg25
V216
p2462
sg18
VAntenna \u039a\u03ad\u03c1\u03ba\u03c5\u03c1\u03b1 92,6
p2463
ssS'1789'
p2464
(dp2465
g848
S'http://netradio.live24.gr/heart939'
p2466
sg23
V/logos/gr/mini/heart939.gif
p2467
sg14
V\u03a7\u0391\u039b\u039a\u0399\u0394\u0391
p2468
sg25
V1789
p2469
sg18
VHeart 93,9
p2470
ssS'667'
p2471
(dp2472
g1785
S'http://relay4.mindradio.gr:80/live'
p2473
sg23
V/logos/gr/mini/mindradio.gif
p2474
sg14
VINTERNET RADIO
p2475
sg25
V667
p2476
sg18
VMind Radio Conn-X 
p2477
ssS'665'
p2478
(dp2479
g848
S'http://broadcast.hol.gr/kanali20'
p2480
sg23
V/logos/gr/mini/kanali20.gif
p2481
sg14
V\u039a\u0391\u039b\u0391\u039c\u0391\u03a4\u0391
p2482
sg25
V665
p2483
sg18
V\u039a\u03b1\u03bd\u03ac\u03bb\u03b9 20 107,5
p2484
ssS'664'
p2485
(dp2486
g1785
S'http://s1.onweb.gr:8022'
p2487
sg23
V/logos/gr/mini/anatolikos.gif
p2488
sg14
V\u0391\u03a1\u0393\u039f\u03a3
p2489
sg25
V664
p2490
sg18
V\u0391\u03bd\u03b1\u03c4\u03bf\u03bb\u03b9\u03ba\u03cc\u03c2 Fm 95,8
p2491
ssS'662'
p2492
(dp2493
g1785
S'http://208.43.121.133:8850'
p2494
sg23
V/logos/gr/mini/paradiseradio.gif
p2495
sg14
V\u0391\u0398\u0397\u039d\u0391
p2496
sg25
V662
p2497
sg18
VParadise Radio 104,6
p2498
ssS'661'
p2499
(dp2500
g848
S'http://101fm.dyndns.tv:8002'
p2501
sg23
V/logos/gr/mini/radio1serres.gif
p2502
sg14
V\u03a3\u0395\u03a1\u03a1\u0395\u03a3
p2503
sg25
V661
p2504
sg18
VRadio 1 101
p2505
ssS'660'
p2506
(dp2507
g23
V/logos/gr/mini/aquarius.gif
p2508
sg14
V\u03a0\u03a5\u03a1\u0393\u039f\u03a3
p2509
sg25
V660
p2510
sg18
VAquarius Fm 105,5
p2511
ssS'769'
p2512
(dp2513
g23
V/logos/gr/mini/uplifted.gif
p2514
sg14
VINTERNET RADIO
p2515
sg25
V769
p2516
sg18
VUpLifted 
p2517
ssS'692'
p2518
(dp2519
g848
S'http://groove.wavestreamer.com:4396'
p2520
sg23
V/logos/gr/mini/radio996.gif
p2521
sg14
V\u03a7\u0391\u039d\u0399\u0391
p2522
sg25
V692
p2523
sg18
V99,6 Radio 
p2524
ssS'693'
p2525
(dp2526
g23
V/logos/gr/mini/dertifmdode.gif
p2527
sg14
V\u03a1\u039f\u0394\u039f\u03a3
p2528
sg25
V693
p2529
sg18
VDerti Fm 104,9
p2530
ssS'691'
p2531
(dp2532
g848
S'http://live.onestreaming.com/lampsifmcrete'
p2533
sg23
V/logos/gr/mini/lampsifmcrete.gif
p2534
sg14
V\u0397\u03a1\u0391\u039a\u039b\u0395\u0399\u039f
p2535
sg25
V691
p2536
sg18
VLampsi Fm 92,9
p2537
ssS'697'
p2538
(dp2539
g1785
S'http://208.43.115.44:9578'
p2540
sg23
V/logos/gr/mini/astrosradio.gif
p2541
sg14
VINTERNET RADIO
p2542
sg25
V697
p2543
sg18
VAstros Radio 
p2544
ssS'694'
p2545
(dp2546
g23
V/logos/gr/mini/fm100.gif
p2547
sg14
V\u0398\u0395\u03a3\u03a3\u0391\u039b\u039f\u039d\u0399\u039a\u0397
p2548
sg25
V694
p2549
sg18
VFM100 100
p2550
ssS'695'
p2551
(dp2552
g23
V/logos/gr/mini/vox1033.gif
p2553
sg14
V\u03a0\u03a5\u03a1\u0393\u039f\u03a3
p2554
sg25
V695
p2555
sg18
VVox 103,3
p2556
ssS'699'
p2557
(dp2558
g1785
S'http://www.gointernet.gr:8007'
p2559
sg23
V/logos/gr/mini/dolceradio.gif
p2560
sg14
V\u0392\u039f\u039b\u039f\u03a3
p2561
sg25
V699
p2562
sg18
VDolce Radio 89,5
p2563
ssS'1780'
p2564
(dp2565
g23
V/logos/gr/mini/classicalradio.gif
p2566
sg14
VINTERNET RADIO
p2567
sg25
V1780
p2568
sg18
VClassical Radio 
p2569
ssS'540'
p2570
(dp2571
g1785
S'http://stream.greekradios.gr:2042'
p2572
sg23
V/logos/gr/mini/velvet968.gif
p2573
sg14
V\u0398\u0395\u03a3\u03a3\u0391\u039b\u039f\u039d\u0399\u039a\u0397
p2574
sg25
V540
p2575
sg18
VVelvet 96,8
p2576
ssS'546'
p2577
(dp2578
g848
S'http://live.onestreaming.com/novamusic'
p2579
sg23
V/logos/gr/mini/novamusic.gif
p2580
sg14
V\u039e\u0391\u039d\u0398\u0397
p2581
sg25
V546
p2582
sg18
VNova Radio 93,1
p2583
ssS'547'
p2584
(dp2585
g848
S'http://live.onestreaming.com/radiokimata'
p2586
sg23
V/logos/gr/mini/radiokimatare.gif
p2587
sg14
V\u03a1\u0395\u0398\u03a5\u039c\u039d\u039f
p2588
sg25
V547
p2589
sg18
V\u03a1\u03b1\u03b4\u03b9\u03bf\u03ba\u03cd\u03bc\u03b1\u03c4\u03b1 102,6
p2590
ssS'544'
p2591
(dp2592
g1785
S'http://eco.onestreaming.com:8185'
p2593
sg23
V/logos/gr/mini/drt.gif
p2594
sg14
V\u03a4\u03a1\u0399\u03a0\u039f\u039b\u0397
p2595
sg25
V544
p2596
sg18
V\u0394\u03b7\u03bc\u03bf\u03c4\u03b9\u03ba\u03cc \u03a4\u03c1\u03af\u03c0\u03bf\u03bb\u03b7\u03c2 91,5
p2597
ssS'545'
p2598
(dp2599
g848
S'http://wm3.greekstream.net/kalamariafm?.wma'
p2600
sg23
V/logos/gr/mini/kalamariafm.gif
p2601
sg14
V\u0398\u0395\u03a3\u03a3\u0391\u039b\u039f\u039d\u0399\u039a\u0397
p2602
sg25
V545
p2603
sg18
V\u039a\u03b1\u03bb\u03b1\u03bc\u03b1\u03c1\u03b9\u03ac FM 101,7
p2604
ssS'8'
(dp2605
g1785
S'http://eco.onestreaming.com:8211'
p2606
sg23
V/logos/gr/mini/arionkids.gif
p2607
sg14
V\u0391\u0398\u0397\u039d\u0391
p2608
sg25
V8
sg18
VArion Kids 
p2609
ssS'1466'
p2610
(dp2611
g23
V/logos/gr/mini/enallaxintradio.gif
p2612
sg14
VINTERNET RADIO
p2613
sg25
V1466
p2614
sg18
VEnallax Radio 
p2615
ssS'11'
p2616
(dp2617
g1785
S'http://eco.onestreaming.com:8103'
p2618
sg23
V/logos/gr/mini/kissavos.gif
p2619
sg14
V\u039b\u0391\u03a1\u0399\u03a3\u0391
p2620
sg25
V11
p2621
sg18
V\u03a1\u03b1\u03b4\u03b9\u03bf\u03c6\u03c9\u03bd\u03af\u03b1 \u039a\u03b9\u03c3\u03c3\u03ac\u03b2\u03bf\u03c5 97,8
p2622
ssS'993'
p2623
(dp2624
g848
S'http://shout.streamwithq.gr:4038'
p2625
sg23
V/logos/gr/mini/nologo.gif
p2626
sg14
V\u039b\u0397\u039c\u039d\u039f\u03a3
p2627
sg25
V993
p2628
sg18
V\u03a1\u03ac\u03b4\u03b9\u03bf A\u03bb\u03c6\u03b1 96
p2629
ssS'120'
p2630
(dp2631
g848
S'http://a1933.l3271921932.c32719.g.lm.akamaistream.net/D/1933/32719/v0001/reflector:21932'
p2632
sg23
V/logos/gr/mini/trito.gif
p2633
sg14
V\u0398\u0395\u03a3\u03a3\u0391\u039b\u039f\u039d\u0399\u039a\u0397
p2634
sg25
V120
p2635
sg18
V\u0395\u03a1\u03913 \u0393' \u03a0\u03c1\u03cc\u03b3\u03c1\u03b1\u03bc\u03bc\u03b1 
p2636
ssS'123'
p2637
(dp2638
g1785
S'http://eco.onestreaming.com:8237/live'
p2639
sg23
V/logos/gr/mini/radio984.gif
p2640
sg14
V\u0397\u03a1\u0391\u039a\u039b\u0395\u0399\u039f
p2641
sg25
V123
p2642
sg18
VRadio 984 
p2643
ssS'124'
p2644
(dp2645
g23
V/logos/gr/mini/radiokriti.gif
p2646
sg14
V\u0397\u03a1\u0391\u039a\u039b\u0395\u0399\u039f
p2647
sg25
V124
p2648
sg18
V\u03a1\u03ac\u03b4\u03b9\u03bf \u039a\u03c1\u03ae\u03c4\u03b7 101,5
p2649
ssS'1786'
p2650
(dp2651
g848
S'http://stream.athenswinder.com:8000/athenswinder'
p2652
sg23
V/logos/gr/mini/athenswinder.gif
p2653
sg14
VINTERNET RADIO
p2654
sg25
V1786
p2655
sg18
VAthens Winder Radio 
p2656
ssS'126'
p2657
(dp2658
g1785
S'http://s1.onweb.gr:8800'
p2659
sg23
V/logos/gr/mini/star888.gif
p2660
sg14
V\u039a\u0395\u03a1\u039a\u03a5\u03a1\u0391
p2661
sg25
V126
p2662
sg18
VStar Fm \u039a\u03ad\u03c1\u03ba\u03c5\u03c1\u03b1 88,8
p2663
ssS'1829'
p2664
(dp2665
g23
V/logos/gr/mini/leukadanews.gif
p2666
sg14
V\u039b\u0395\u03a5\u039a\u0391\u0394\u0391
p2667
sg25
V1829
p2668
sg18
V\u039b\u03b5\u03c5\u03ba\u03ac\u03b4\u03b1 News 
p2669
ssS'1828'
p2670
(dp2671
g23
V/logos/gr/mini/radioyet.gif
p2672
sg14
VINTERNET RADIO
p2673
sg25
V1828
p2674
sg18
VRadio YET 
p2675
ssS'1824'
p2676
(dp2677
g23
V/logos/gr/mini/globalgr.gif
p2678
sg14
V\u03a4\u03a1\u0399\u03a0\u039f\u039b\u0397
p2679
sg25
V1824
p2680
sg18
VGlobal Radio 
p2681
ssS'1827'
p2682
(dp2683
g848
S'http://starradio.no-ip.biz:2380'
p2684
sg23
V/logos/gr/mini/starsymi.gif
p2685
sg14
V\u03a3\u03a5\u039c\u0397
p2686
sg25
V1827
p2687
sg18
VStar Radio 106,7
p2688
ssS'1826'
p2689
(dp2690
g1785
S'http://69.175.39.146:8348'
p2691
sg23
V/logos/gr/mini/manaellada.gif
p2692
sg14
VINTERNET RADIO
p2693
sg25
V1826
p2694
sg18
V\u039c\u03ac\u03bd\u03b1 \u0395\u03bb\u03bb\u03ac\u03b4\u03b1 
p2695
ssS'1821'
p2696
(dp2697
g23
V/logos/gr/mini/musiclovers.gif
p2698
sg14
VINTERNET RADIO
p2699
sg25
V1821
p2700
sg18
VMusic Lovers 
p2701
ssS'1820'
p2702
(dp2703
g23
V/logos/gr/mini/athensfm.gif
p2704
sg14
V\u0391\u0398\u0397\u039d\u0391
p2705
sg25
V1820
p2706
sg18
VAthens FM 
p2707
ssS'1823'
p2708
(dp2709
g1785
S'http://uk1-vn.mixstream.net:9876'
p2710
sg23
V/logos/gr/mini/akroama978.gif
p2711
sg14
V\u039a\u0391\u0392\u0391\u039b\u0391
p2712
sg25
V1823
p2713
sg18
V\u0391\u03ba\u03c1\u03cc\u03b1\u03bc\u03b1 97,8
p2714
ssS'1822'
p2715
(dp2716
g23
V/logos/gr/mini/athens111.gif
p2717
sg14
VINTERNET RADIO
p2718
sg25
V1822
p2719
sg18
VAthens 111 FM 
p2720
ssS'414'
p2721
(dp2722
g1785
S'http://eu02.egihosting.com:9108'
p2723
sg23
V/logos/gr/mini/heatfm.gif
p2724
sg14
V\u0391\u039b\u0395\u039e\u0391\u039d\u0394\u03a1\u039f\u03a5\u03a0\u039f\u039b\u0397
p2725
sg25
V414
p2726
sg18
VHeat Radio 88,3
p2727
ssS'415'
p2728
(dp2729
g1571
S'http://stokokkino.gr:8000/stream'
p2730
sg23
V/logos/gr/mini/kokkino.gif
p2731
sg14
V\u0391\u0398\u0397\u039d\u0391
p2732
sg25
V415
p2733
sg18
VSto Kokkino 105,5
p2734
ssS'417'
p2735
(dp2736
g23
V/logos/gr/mini/capitalradio.gif
p2737
sg14
V\u03a1\u0395\u0398\u03a5\u039c\u039d\u039f
p2738
sg25
V417
p2739
sg18
VCapital Radio 90,7
p2740
ssS'412'
p2741
(dp2742
g848
S'http://live.onestreaming.com/radioelassona'
p2743
sg23
V/logos/gr/mini/elassona.gif
p2744
sg14
V\u0395\u039b\u0391\u03a3\u03a3O\u039d\u0391
p2745
sg25
V412
p2746
sg18
VRadio \u0395\u03bb\u03b1\u03c3\u03c3\u03ce\u03bd\u03b1 88,4
p2747
ssS'413'
p2748
(dp2749
g1785
S'http://rso.isolservers.com:8200'
p2750
sg23
V/logos/gr/mini/rso.gif
p2751
sg14
V\u0398\u0395\u03a3\u03a3\u0391\u039b\u039f\u039d\u0399\u039a\u0397
p2752
sg25
V413
p2753
sg18
VRSO 91,7
p2754
ssS'1384'
p2755
(dp2756
g1785
S'http://eco.onestreaming.com:8264'
p2757
sg23
V/logos/gr/mini/imf894.gif
p2758
sg14
V\u039b\u0391\u039c\u0399\u0391
p2759
sg25
V1384
p2760
sg18
V\u0399.\u039c. \u03a6\u03b8\u03b9\u03ce\u03c4\u03b9\u03b4\u03b1\u03c2 89,4
p2761
ssS'498'
p2762
(dp2763
g23
V/logos/gr/mini/radiomastixa.gif
p2764
sg14
V\u03a7\u0399\u039f\u03a3
p2765
sg25
V498
p2766
sg18
VRadio Mastixa 107,7
p2767
ssS'923'
p2768
(dp2769
g23
V/logos/gr/mini/siriosfm.gif
p2770
sg14
V\u039b\u0399\u0392\u0391\u0394\u0395\u0399\u0391
p2771
sg25
V923
p2772
sg18
V\u03a3\u03b5\u03af\u03c1\u03b9\u03bf\u03c2 FM 
p2773
ssS'924'
p2774
(dp2775
g1785
S'http://109.169.26.78:9294'
p2776
sg23
V/logos/gr/mini/moodradiio.gif
p2777
sg14
VINTERNET RADIO
p2778
sg25
V924
p2779
sg18
VMood Radio 
p2780
ssS'136'
p2781
(dp2782
g1785
S'http://rockradio.gr:1111'
p2783
sg23
V/logos/gr/mini/rockradio.gif
p2784
sg14
V\u0398\u0395\u03a3\u03a3\u0391\u039b\u039f\u039d\u0399\u039a\u0397
p2785
sg25
V136
p2786
sg18
VRock Radio 104,7
p2787
ssS'313'
p2788
(dp2789
g1785
S'http://s1.onweb.gr:8856'
p2790
sg23
V/logos/gr/mini/kosmos100.gif
p2791
sg14
V\u03a7\u0391\u039b\u039a\u0399\u0394\u0391
p2792
sg25
V313
p2793
sg18
V\u03a1\u03ac\u03b4\u03b9\u03bf \u039a\u03cc\u03c3\u03bc\u03bf\u03c2 100
p2794
ssS'312'
p2795
(dp2796
g1785
S'http://stream2.proradio.gr:8004/anemos'
p2797
sg23
V/logos/gr/mini/agriniofm937.gif
p2798
sg14
V\u0391\u0393\u03a1\u0399\u039d\u0399\u039f
p2799
sg25
V312
p2800
sg18
V\u0391\u03b3\u03c1\u03af\u03bd\u03b9\u03bf FM 93,7
p2801
ssS'311'
p2802
(dp2803
g1785
S'http://193.164.131.52:8000'
p2804
sg23
V/logos/gr/mini/pirateradio.gif
p2805
sg14
V\u03a7\u0399\u039f\u03a3
p2806
sg25
V311
p2807
sg18
VPirate Radio 91
p2808
ssS'310'
p2809
(dp2810
g1785
S'http://s1.onweb.gr:8838'
p2811
sg23
V/logos/gr/mini/maxfm.gif
p2812
sg14
V\u0391\u039b\u0395\u039e\u0391\u039d\u0394\u03a1\u039f\u03a5\u03a0\u039f\u039b\u0397
p2813
sg25
V310
p2814
sg18
VMaximum FM 93,6
p2815
ssS'316'
p2816
(dp2817
g23
V/logos/gr/mini/alitheia.gif
p2818
sg14
V\u03a7\u0399\u039f\u03a3
p2819
sg25
V316
p2820
sg18
VA\u03bb\u03ae\u03b8\u03b5\u03b9\u03b1 95,7
p2821
ssS'314'
p2822
(dp2823
g1785
S'http://s3.onweb.gr:8032'
p2824
sg23
V/logos/gr/mini/dcode.gif
p2825
sg14
V\u03a7\u0391\u039d\u0399\u0391
p2826
sg25
V314
p2827
sg18
VD-Code 96,2
p2828
ssS'1920'
p2829
(dp2830
g848
S'http://live.onestreaming.com/just964'
p2831
sg23
V/logos/gr/mini/justr964.gif
p2832
sg14
V\u039a\u039f\u03a1\u0399\u039d\u0398\u039f\u03a3
p2833
sg25
V1920
p2834
sg18
VJust Radio 96,4
p2835
ssS'1922'
p2836
(dp2837
g23
V/logos/gr/mini/nologo.gif
p2838
sg14
V\u039a\u039f\u03a1\u0399\u039d\u0398\u039f\u03a3
p2839
sg25
V1922
p2840
sg18
VNovel 91,8
p2841
ssS'1923'
p2842
(dp2843
g23
V/logos/gr/mini/virgin1045.gif
p2844
sg14
V\u03a1\u039f\u0394\u039f\u03a3
p2845
sg25
V1923
p2846
sg18
VVirgin 104,5
p2847
ssS'1926'
p2848
(dp2849
g23
V/logos/gr/mini/facegreek.gif
p2850
sg14
VINTERNET RADIO
p2851
sg25
V1926
p2852
sg18
VFaceGreek WebRadio 
p2853
ssS'1929'
p2854
(dp2855
g1785
S'http://208.43.81.168:8739/stream'
p2856
sg23
V/logos/gr/mini/mwordr.gif
p2857
sg14
VINTERNET RADIO
p2858
sg25
V1929
p2859
sg18
VM-Word Web Radio 
p2860
ssS'832'
p2861
(dp2862
g848
S'http://live.onestreaming.com/greek4u'
p2863
sg23
V/logos/gr/mini/greek4u.gif
p2864
sg14
VDUSSELDORF
p2865
sg25
V832
p2866
sg18
VGR4U 
p2867
ssS'830'
p2868
(dp2869
g848
S'http://live.onestreaming.com/radiosamos'
p2870
sg23
V/logos/gr/mini/radiosamos.gif
p2871
sg14
V\u03a3\u0391\u039c\u039f\u03a3
p2872
sg25
V830
p2873
sg18
V\u03a1\u03ac\u03b4\u03b9\u03bf \u03a3\u03ac\u03bc\u03bf\u03c2 102
p2874
ssS'831'
p2875
(dp2876
g848
S'http://live.onestreaming.com/anemosfm'
p2877
sg23
V/logos/gr/mini/anemosfm.gif
p2878
sg14
V\u03a3\u0391\u039c\u039f\u03a3
p2879
sg25
V831
p2880
sg18
V\u0391\u03bd\u03b5\u03bc\u03bf\u03c2 95,6
p2881
ssS'836'
p2882
(dp2883
g848
S'http://live.onestreaming.com/blackman'
p2884
sg23
V/logos/gr/mini/blackman.gif
p2885
sg14
VINTERNET RADIO
p2886
sg25
V836
p2887
sg18
VBlackMan 
p2888
ssS'838'
p2889
(dp2890
g1785
S'http://eco.onestreaming.com:8324'
p2891
sg23
V/logos/gr/mini/rodonfm.gif
p2892
sg14
V\u03a3\u0395\u03a1\u03a1\u0395\u03a3
p2893
sg25
V838
p2894
sg18
V\u03a1\u03cc\u03b4\u03bf\u03bd Fm 95
p2895
ssS'839'
p2896
(dp2897
g1785
S'http://s3.onweb.gr:8524'
p2898
sg23
V/logos/gr/mini/international.gif
p2899
sg14
V\u0399\u03a9\u0391\u039d\u039d\u0399\u039d\u0391
p2900
sg25
V839
p2901
sg18
VInternational 107,5
p2902
ssS'3'
(dp2903
g848
S'http://golive.onestreaming.com/velvetfm'
p2904
sg23
V/logos/gr/mini/velvet.gif
p2905
sg14
V\u0391\u0398\u0397\u039d\u0391
p2906
sg25
V3
sg18
VVelvet.Fm 
p2907
ssS'360'
p2908
(dp2909
g848
S'http://62.1.195.86:2281'
p2910
sg23
V/logos/gr/mini/xiaki.gif
p2911
sg14
V\u03a7\u0399\u039f\u03a3
p2912
sg25
V360
p2913
sg18
V\u03a7\u03b9\u03b1\u03ba\u03ae \u03a6\u03c9\u03bd\u03ae 90
p2914
ssS'26'
p2915
(dp2916
g1785
S'http://eco.onestreaming.com:8093'
p2917
sg23
V/logos/gr/mini/shaker.gif
p2918
sg14
V\u0398\u0395\u03a3\u03a3\u0391\u039b\u039f\u039d\u0399\u039a\u0397
p2919
sg25
V26
p2920
sg18
VShaker Radio 
p2921
ssS'446'
p2922
(dp2923
g23
V/logos/gr/mini/horizon.gif
p2924
sg14
V\u03a4\u03a1\u0399\u03a0\u039f\u039b\u0397
p2925
sg25
V446
p2926
sg18
VHorizon 96,5
p2927
ssS'1831'
p2928
(dp2929
g23
V/logos/gr/mini/avrilissia.gif
p2930
sg14
V\u0391\u0398\u0397\u039d\u0391
p2931
sg25
V1831
p2932
sg18
V\u03a1\u03b1\u03b4\u03b9\u03cc\u03c6\u03c9\u03bd\u03bf \u0386\u03bd\u03c9 \u0392\u03c1\u03b9\u03bb\u03b7\u03c3\u03c3\u03af\u03c9\u03bd 
p2933
ssS'389'
p2934
(dp2935
g848
S'http://plaisioradio.live24.gr/plaisioradio'
p2936
sg23
V/logos/gr/mini/plaisioradio.gif
p2937
sg14
VINTERNET RADIO
p2938
sg25
V389
p2939
sg18
VPlaisio Radio 
p2940
ssS'785'
p2941
(dp2942
g1785
S'http://s5.onweb.gr:8030'
p2943
sg23
V/logos/gr/mini/nrgdramas.gif
p2944
sg14
V\u0394\u03a1\u0391\u039c\u0391
p2945
sg25
V785
p2946
sg18
VEnergy Radio 88,9
p2947
ssS'786'
p2948
(dp2949
g1785
S'http://shout.streamwithq.gr:4064'
p2950
sg23
V/logos/gr/mini/gavdosfm.gif
p2951
sg14
V\u0393\u0391Y\u0394\u039f\u03a3
p2952
sg25
V786
p2953
sg18
V\u0393\u03b1\u03cd\u03b4\u03bf\u03c2 Fm 88,8
p2954
ssS'787'
p2955
(dp2956
g1785
S'http://s6.onweb.gr:8042'
p2957
sg23
V/logos/gr/mini/tichero.gif
p2958
sg14
V\u0391\u039b\u0395\u039e\u0391\u039d\u0394\u03a1\u039f\u03a5\u03a0\u039f\u039b\u0397
p2959
sg25
V787
p2960
sg18
V926FM (\u0394\u0397\u039c\u039f\u03a3 \u03a3\u039f\u03a5\u03a6\u039b\u0399\u039f\u03a5) 92,6
p2961
ssS'780'
p2962
(dp2963
g1785
S'http://shout.plusradio.gr:8120'
p2964
sg23
V/logos/gr/mini/plusradio.gif
p2965
sg14
V\u0398\u0395\u03a3\u03a3\u0391\u039b\u039f\u039d\u0399\u039a\u0397
p2966
sg25
V780
p2967
sg18
VPlus Radio 102,6
p2968
ssS'781'
p2969
(dp2970
g23
V/logos/gr/mini/eugreeka.gif
p2971
sg14
VINTERNET RADIO
p2972
sg25
V781
p2973
sg18
VEugreeka Radio 
p2974
ssS'788'
p2975
(dp2976
g23
V/logos/gr/mini/max925.gif
p2977
sg14
V\u0397\u03a1\u0391\u039a\u039b\u0395\u0399\u039f
p2978
sg25
V788
p2979
sg18
VMax Fm 92,5
p2980
ssS'61'
p2981
(dp2982
g1785
S'http://uk3-vn.mixstream.net:8256'
p2983
sg23
V/logos/gr/mini/metroradio.gif
p2984
sg14
V\u0397\u03a1\u0391\u039a\u039b\u0395\u0399\u039f
p2985
sg25
V61
p2986
sg18
VMetro Radio 89,2
p2987
ssS'62'
p2988
(dp2989
g23
V/logos/gr/mini/radiopoint.gif
p2990
sg14
VINTERNET RADIO
p2991
sg25
V62
p2992
sg18
VRadio Point 
p2993
ssS'67'
p2994
(dp2995
g848
S'http://live.onestreaming.com/methorios'
p2996
sg23
V/logos/gr/mini/methorios.gif
p2997
sg14
V\u039f\u03a1\u0395\u03a3\u03a4\u0399\u0391\u0394\u0391
p2998
sg25
V67
p2999
sg18
V\u039c\u03b5\u03b8\u03cc\u03c1\u03b9\u03bf\u03c2 96
p3000
ssS'68'
p3001
(dp3002
g1785
S'http://eco.onestreaming.com:8298'
p3003
sg23
V/logos/gr/mini/capital977.gif
p3004
sg14
V\u039a\u0391\u03a4\u0395\u03a1\u0399\u039d\u0397
p3005
sg25
V68
p3006
sg18
VCapital 97,7
p3007
ssS'256'
p3008
(dp3009
g1785
S'http://46.4.65.194:8011'
p3010
sg23
V/logos/gr/mini/stylefm.gif
p3011
sg14
V\u0391\u03a1\u0393\u039f\u03a3
p3012
sg25
V256
p3013
sg18
VStyle Fm 89,6
p3014
ssS'1172'
p3015
(dp3016
g848
S'http://live.onestreaming.com/soundelectronic'
p3017
sg23
V/logos/gr/mini/soundelectronic.gif
p3018
sg14
VINTERNET RADIO
p3019
sg25
V1172
p3020
sg18
VSound Electronic 
p3021
ssS'731'
p3022
(dp3023
g848
S'http://radiogamma.live24.gr/radiogamma'
p3024
sg23
V/logos/gr/mini/radiogamma.gif
p3025
sg14
V\u03a0\u0391\u03a4\u03a1\u0391
p3026
sg25
V731
p3027
sg18
V\u03a1\u03ac\u03b4\u03b9\u03bf \u0393\u03ac\u03bc\u03bc\u03b1 94
p3028
ssS'730'
p3029
(dp3030
g23
V/logos/gr/mini/vimafm.gif
p3031
sg14
V\u0399\u03a9\u0391\u039d\u039d\u0399\u039d\u0391
p3032
sg25
V730
p3033
sg18
V\u0392\u03ae\u03bc\u03b1 Fm 90,1
p3034
ssS'733'
p3035
(dp3036
g23
V/logos/gr/mini/stoxosfm.gif
p3037
sg14
V\u0398\u0391\u03a3\u039f\u03a3
p3038
sg25
V733
p3039
sg18
V\u03a3\u03c4\u03cc\u03c7\u03bf\u03c2 Fm 98,9
p3040
ssS'404'
p3041
(dp3042
g1785
S'http://eco.onestreaming.com:8189'
p3043
sg23
V/logos/gr/mini/rythmos988.gif
p3044
sg14
V\u039b\u0391\u03a1\u0399\u03a3\u0391
p3045
sg25
V404
p3046
sg18
V\u03a1\u03c5\u03b8\u03bc\u03cc\u03c2 98,8
p3047
ssS'737'
p3048
(dp3049
g1785
S'http://95.211.4.241:8004'
p3050
sg23
V/logos/gr/mini/bravo.gif
p3051
sg14
V\u0396\u0391\u039a\u03a5\u039d\u0398\u039f\u03a3
p3052
sg25
V737
p3053
sg18
VBravo 89,6
p3054
ssS'736'
p3055
(dp3056
g1785
S'http://94.23.159.115:8088'
p3057
sg23
V/logos/gr/mini/safari1047.gif
p3058
sg14
V\u0399\u03a9\u0391\u039d\u039d\u0399\u039d\u0391
p3059
sg25
V736
p3060
sg18
VSafari 104,7
p3061
ssS'1032'
p3062
(dp3063
g848
S'http://legacy-100-ams.servers.mediacdn.com/metrovolos882'
p3064
sg23
V/logos/gr/mini/metrofmvolos.gif
p3065
sg14
V\u0392\u039f\u039b\u039f\u03a3
p3066
sg25
V1032
p3067
sg18
V\u039c\u03b5\u03c4\u03c1\u03cc FM 88,2
p3068
ssS'504'
p3069
(dp3070
g1785
S'http://78.46.37.77:8001/stream'
p3071
sg23
V/logos/gr/mini/radioevros.gif
p3072
sg14
V\u039f\u03a1\u0395\u03a3\u03a4\u0399\u0391\u0394\u0391
p3073
sg25
V504
p3074
sg18
VRadio Evros 97,1
p3075
ssS'1031'
p3076
(dp3077
g1785
S'http://eco.onestreaming.com:8019'
p3078
sg23
V/logos/gr/mini/monaxikidiakonia.gif
p3079
sg14
V\u0392\u039f\u039b\u039f\u03a3
p3080
sg25
V1031
p3081
sg18
V\u039c\u03bf\u03bd\u03b1\u03c7\u03b9\u03ba\u03ae \u0394\u03b9\u03b1\u03ba\u03bf\u03bd\u03af\u03b1 87,5
p3082
ssS'503'
p3083
(dp3084
g23
V/logos/gr/mini/loungemotion.gif
p3085
sg14
VINTERNET RADIO
p3086
sg25
V503
p3087
sg18
VLounge MotionFm 
p3088
ssS'501'
p3089
(dp3090
g1785
S'http://eco.onestreaming.com:8129'
p3091
sg23
V/logos/gr/mini/melodiafm.gif
p3092
sg14
V\u039b\u0391\u039c\u0399\u0391
p3093
sg25
V501
p3094
sg18
V\u039c\u03b5\u03bb\u03c9\u03b4\u03af\u03b1 Fm 88
p3095
ssS'630'
p3096
(dp3097
g1785
S'http://95.211.4.241:8006'
p3098
sg23
V/logos/gr/mini/islandfm.gif
p3099
sg14
V\u0396\u0391\u039a\u03a5\u039d\u0398\u039f\u03a3
p3100
sg25
V630
p3101
sg18
VIsland Fm 88,6
p3102
ssS'631'
p3103
(dp3104
g848
S'http://live.onestreaming.com/city93'
p3105
sg23
V/logos/gr/mini/city93.gif
p3106
sg14
V\u039a\u03a9\u03a3
p3107
sg25
V631
p3108
sg18
VCity 93
p3109
ssS'1211'
p3110
(dp3111
g848
S'http://live.onestreaming.com/hitfm1035'
p3112
sg23
V/logos/gr/mini/hitfm1035.gif
p3113
sg14
V\u03a7\u0391\u039b\u039a\u0399\u0394\u0391
p3114
sg25
V1211
p3115
sg18
VHit FM 103,5
p3116
ssS'469'
p3117
(dp3118
g1785
S'http://live-stream.all-host.gr:8316'
p3119
sg23
V/logos/gr/mini/ixosfm.gif
p3120
sg14
V\u03a1\u0395\u0398\u03a5\u039c\u039d\u039f
p3121
sg25
V469
p3122
sg18
V\u0389\u03c7\u03bf\u03c2 Fm 94,2
p3123
ssS'468'
p3124
(dp3125
g848
S'http://derti.live24.gr/derty1000'
p3126
sg23
V/logos/gr/mini/derti.gif
p3127
sg14
V\u0391\u0398\u0397\u039d\u0391
p3128
sg25
V468
p3129
sg18
VDerti 98,6
p3130
ssS'636'
p3131
(dp3132
g1785
S'http://eco.onestreaming.com:8010'
p3133
sg23
V/logos/gr/mini/thrakifm.gif
p3134
sg14
V\u0391\u039b\u0395\u039e\u0391\u039d\u0394\u03a1\u039f\u03a5\u03a0\u039f\u039b\u0397
p3135
sg25
V636
p3136
sg18
V\u0398\u03c1\u03ac\u03ba\u03b7 Fm 99,8
p3137
ssS'1215'
p3138
(dp3139
g1785
S'http://s3.onweb.gr:8464'
p3140
sg23
V/logos/gr/mini/rythmos946.gif
p3141
sg14
V\u039b\u0391\u039c\u0399\u0391
p3142
sg25
V1215
p3143
sg18
V\u03a1\u03c5\u03b8\u03bc\u03cc\u03c2 94,6
p3144
ssS'465'
p3145
(dp3146
g23
V/logos/gr/mini/rsa.gif
p3147
sg14
V\u0391\u039c\u0391\u039b\u0399\u0391\u0394\u0391
p3148
sg25
V465
p3149
sg18
VRSA 91,1
p3150
ssS'1218'
p3151
(dp3152
g1785
S'http://radio.radionova.gr:8000/lamia-fm-1'
p3153
sg23
V/logos/gr/mini/lamiafm1.gif
p3154
sg14
V\u039b\u0391\u039c\u0399\u0391
p3155
sg25
V1218
p3156
sg18
V\u039b\u03b1\u03bc\u03af\u03b1 FM 1 96,2
p3157
ssS'927'
p3158
(dp3159
g1785
S'http://psychoradio.servemp3.com'
p3160
sg23
V/logos/gr/mini/psychoradio.gif
p3161
sg14
VINTERNET RADIO
p3162
sg25
V927
p3163
sg18
VPsycho Radio 
p3164
ssS'460'
p3165
(dp3166
g23
V/logos/gr/mini/Hersonissos.gif
p3167
sg14
V\u0397\u03a1\u0391\u039a\u039b\u0395\u0399\u039f
p3168
sg25
V460
p3169
sg18
VRadio Hersonissos 97,2
p3170
ssS'1861'
p3171
(dp3172
g23
V/logos/gr/mini/inathensrock.gif
p3173
sg14
VINTERNET RADIO
p3174
sg25
V1861
p3175
sg18
VIn Athens Rock Radio 
p3176
ssS'2015'
p3177
(dp3178
g23
V/logos/gr/mini/mirror.gif
p3179
sg14
VINTERNET RADIO
p3180
sg25
V2015
p3181
sg18
VMirror Radio 
p3182
ssS'1862'
p3183
(dp3184
g23
V/logos/gr/mini/buzz.gif
p3185
sg14
VINTERNET RADIO
p3186
sg25
V1862
p3187
sg18
VBUZZ Radio 
p3188
ssS'169'
p3189
(dp3190
g848
S'http://live.onestreaming.com/paradiseradio'
p3191
sg23
V/logos/gr/mini/paradise.gif
p3192
sg14
V\u039e\u0391\u039d\u0398\u0397
p3193
sg25
V169
p3194
sg18
VParadise 90,3
p3195
ssS'1866'
p3196
(dp3197
g1785
S'http://live.onestreaming.com/ellinadikofm'
p3198
sg23
V/logos/gr/mini/ellinadikofm.gif
p3199
sg14
VINTERNET RADIO
p3200
sg25
V1866
p3201
sg18
V\u0395\u03bb\u03bb\u03b7\u03bd\u03ac\u03b4\u03b9\u03ba\u03bf FM 
p3202
ssS'1869'
p3203
(dp3204
g1785
S'http://eco.onestreaming.com:8059/stream'
p3205
sg23
V/logos/gr/mini/akous_myclassic.gif
p3206
sg14
VINTERNET RADIO
p3207
sg25
V1869
p3208
sg18
VAkous. My Classic 
p3209
ssS'2017'
p3210
(dp3211
g1785
S'http://95.211.7.35:8000'
p3212
sg23
V/logos/gr/mini/sykofantis.gif
p3213
sg14
VINTERNET RADIO
p3214
sg25
V2017
p3215
sg18
V\u03a3\u03c5\u03ba\u03bf\u03c6\u03ac\u03bd\u03c4\u03b7\u03c2 \u039c\u03c0\u03b1\u03c3\u03c4\u03bf\u03cd\u03bd\u03b9 
p3216
ssS'960'
p3217
(dp3218
g1785
S'http://eco.onestreaming.com:8166'
p3219
sg23
V/logos/gr/mini/entexnosfm.gif
p3220
sg14
V\u03a0\u0391\u03a4\u03a1\u0391
p3221
sg25
V960
p3222
sg18
V\u03a1\u03ac\u03b4\u03b9\u03bf \u0395\u03bd\u03c4\u03b5\u03c7\u03bd\u03bf\u03c2 
p3223
ssS'961'
p3224
(dp3225
g23
V/logos/gr/mini/melodia1027.gif
p3226
sg14
V\u03a1\u0395\u0398\u03a5\u039c\u039d\u039f
p3227
sg25
V961
p3228
sg18
V\u039c\u03b5\u03bb\u03c9\u03b4\u03af\u03b1 102,7
p3229
ssS'962'
p3230
(dp3231
g23
V/logos/gr/mini/loveioan.gif
p3232
sg14
V\u0399\u03a9\u0391\u039d\u039d\u0399\u039d\u0391
p3233
sg25
V962
p3234
sg18
VLove Radio 97,2
p3235
ssS'963'
p3236
(dp3237
g848
S'http://hotfm.live24.gr/shock'
p3238
sg23
V/logos/gr/mini/hotfmathens.gif
p3239
sg14
V\u0391\u0398\u0397\u039d\u0391
p3240
sg25
V963
p3241
sg18
VHot Fm 
p3242
ssS'2011'
p3243
(dp3244
g1785
S'http://eco.onestreaming.com:8300'
p3245
sg23
V/logos/gr/mini/erotiaris.gif
p3246
sg14
VINTERNET RADIO
p3247
sg25
V2011
p3248
sg18
V\u0395\u03c1\u03c9\u03c4\u03b9\u03ac\u03c1\u03b7\u03c2 
p3249
ssS'936'
p3250
(dp3251
g1785
S'http://85.17.238.96:8060'
p3252
sg23
V/logos/gr/mini/radioart.gif
p3253
sg14
VINTERNET RADIO
p3254
sg25
V936
p3255
sg18
VRadio Art 2 
p3256
ssS'1104'
p3257
(dp3258
g1785
S'http://5.9.15.53:9996'
p3259
sg23
V/logos/gr/mini/rockarolla.gif
p3260
sg14
V\u0398\u0395\u03a3\u03a3\u0391\u039b\u039f\u039d\u0399\u039a\u0397
p3261
sg25
V1104
p3262
sg18
VRockarolla Radio 
p3263
ssS'2013'
p3264
(dp3265
g848
S'http://live.onestreaming.com/apopsi'
p3266
sg23
V/logos/gr/mini/apopsi.gif
p3267
sg14
V\u039a\u0391\u039b\u0391\u039c\u0391\u03a4\u0391
p3268
sg25
V2013
p3269
sg18
V\u03a1\u03ac\u03b4\u03b9\u03bf \u0391\u03c0\u03bf\u03c8\u03b7 
p3270
ssS'408'
p3271
(dp3272
g23
V/logos/gr/mini/zizanio.gif
p3273
sg14
V\u0391\u03a1\u0393\u039f\u03a3\u03a4\u039f\u039b\u0399
p3274
sg25
V408
p3275
sg18
V\u0396\u03b9\u03b6\u03ac\u03bd\u03b9\u03bf 89,2
p3276
ssS'1841'
p3277
(dp3278
g1785
S'http://85.17.30.90:8044'
p3279
sg23
V/logos/gr/mini/star957.gif
p3280
sg14
V\u0399\u03a9\u0391\u039d\u039d\u0399\u039d\u0391
p3281
sg25
V1841
p3282
sg18
VStar 95,7
p3283
ssS'1108'
p3284
(dp3285
g1785
S'http://eco.onestreaming.com:8105'
p3286
sg23
V/logos/gr/mini/original944.gif
p3287
sg14
V\u03a7\u0391\u039d\u0399\u0391
p3288
sg25
V1108
p3289
sg18
VOriginal 94,4
p3290
ssS'1840'
p3291
(dp3292
g1785
S'http://eco.onestreaming.com:8014/live'
p3293
sg23
V/logos/gr/mini/bleepradio.gif
p3294
sg14
VINTERNET RADIO
p3295
sg25
V1840
p3296
sg18
VBleep Radio 
p3297
ssS'35'
p3298
(dp3299
g1785
S'http://s5.onweb.gr:8504'
p3300
sg23
V/logos/gr/mini/farosfm.gif
p3301
sg14
V\u03a3\u03a5\u03a1\u039f\u03a3
p3302
sg25
V35
p3303
sg18
V\u03a6\u03ac\u03c1\u03bf\u03c2 Fm 104
p3304
ssS'1895'
p3305
(dp3306
g1785
S'http://174.36.237.66:9878'
p3307
sg23
V/logos/gr/mini/extremeradionet.gif
p3308
sg14
VINTERNET RADIO
p3309
sg25
V1895
p3310
sg18
VExtreme Radio 
p3311
ssS'678'
p3312
(dp3313
g23
V/logos/gr/mini/danceradio.gif
p3314
sg14
VINTERNET RADIO
p3315
sg25
V678
p3316
sg18
VDance Radio 
p3317
ssS'1091'
p3318
(dp3319
g1785
S'http://radio.radionova.gr:8000/kritorama'
p3320
sg23
V/logos/gr/mini/kritorama.gif
p3321
sg14
V\u0397\u03a1\u0391\u039a\u039b\u0395\u0399\u039f
p3322
sg25
V1091
p3323
sg18
V\u039a\u03c1\u03b7\u03c4\u03cc\u03c1\u03b1\u03bc\u03b1 FM 97,9
p3324
ssS'1814'
p3325
(dp3326
g1785
S'http://www.ghostradio.gr/world-128'
p3327
sg23
V/logos/gr/mini/ghost.gif
p3328
sg14
VINTERNET RADIO
p3329
sg25
V1814
p3330
sg18
VGhost Radio 
p3331
ssS'1817'
p3332
(dp3333
g23
V/logos/gr/mini/nexus.gif
p3334
sg14
VINTERNET RADIO
p3335
sg25
V1817
p3336
sg18
VNexus Productions Radio 
p3337
ssS'1810'
p3338
(dp3339
g1785
S'http://sc.greekstream.net:4024'
p3340
sg23
V/logos/gr/mini/camelot.gif
p3341
sg14
V\u039a\u03a5\u0398\u0397\u03a1\u0391
p3342
sg25
V1810
p3343
sg18
VCamelot 100,8
p3344
ssS'1811'
p3345
(dp3346
g1785
S'http://85.17.174.142:10300'
p3347
sg23
V/logos/gr/mini/mouspan1008new.gif
p3348
sg14
V\u039a\u0391\u03a4\u0395\u03a1\u0399\u039d\u0397
p3349
sg25
V1811
p3350
sg18
V\u039c\u03bf\u03c5\u03c3\u03b9\u03ba\u03cc \u03a0\u03b1\u03bd\u03cc\u03c1\u03b1\u03bc\u03b1 100,8
p3351
ssS'1812'
p3352
(dp3353
g1571
S'http://85.25.139.27:9100'
p3354
sg23
V/logos/gr/mini/oxygono1066.gif
p3355
sg14
V\u039b\u0391\u03a1\u0399\u03a3\u0391
p3356
sg25
V1812
p3357
sg18
V\u039f\u039e\u03a5\u0393\u039f\u039d\u039f 106+6 106,6
p3358
ssS'1813'
p3359
(dp3360
g1785
S'http://s1.onweb.gr:8828'
p3361
sg23
V/logos/gr/mini/energeia1064.gif
p3362
sg14
V\u039a\u039f\u03a1\u0399\u039d\u0398\u039f\u03a3
p3363
sg25
V1813
p3364
sg18
V\u03a1\u0391\u0394\u0399\u039f \u0395\u039d\u0395\u03a1\u0393\u0395\u0399\u0391 106,4
p3365
ssS'876'
p3366
(dp3367
g23
V/logos/gr/mini/ixoslarisa.gif
p3368
sg14
V\u039b\u0391\u03a1\u0399\u03a3\u0391
p3369
sg25
V876
p3370
sg18
V\u0397\u03c7\u03bf\u03c2 91
p3371
ssS'877'
p3372
(dp3373
g848
S'http://50.7.243.50:8127'
p3374
sg23
V/logos/gr/mini/energy934.gif
p3375
sg14
V\u03a0\u03a1\u0395\u0392\u0395\u0396\u0391
p3376
sg25
V877
p3377
sg18
VEnergy 93,4
p3378
ssS'874'
p3379
(dp3380
g1785
S'http://eco.onestreaming.com:8400'
p3381
sg23
V/logos/gr/mini/yparxo.gif
p3382
sg14
V\u0391\u039b\u0395\u039e\u0391\u039d\u0394\u03a1\u039f\u03a5\u03a0\u039f\u039b\u0397
p3383
sg25
V874
p3384
sg18
V\u03a5\u03c0\u03ac\u03c1\u03c7\u03c9 101,4
p3385
ssS'875'
p3386
(dp3387
g1785
S'http://s5.onweb.gr:8502'
p3388
sg23
V/logos/gr/mini/diavloskarditsas.gif
p3389
sg14
V\u039a\u0391\u03a1\u0394\u0399\u03a4\u03a3\u0391
p3390
sg25
V875
p3391
sg18
V\u0394\u03af\u03b1\u03c5\u03bb\u03bf\u03c2 \u039a\u03b1\u03c1\u03b4\u03af\u03c4\u03c3\u03b1\u03c2 
p3392
ssS'872'
p3393
(dp3394
g848
S'http://live.onestreaming.com/erk'
p3395
sg23
V/logos/gr/mini/erk.gif
p3396
sg14
V\u039a\u0395\u03a6\u0391\u039b\u039b\u039f\u039d\u0399\u0391
p3397
sg25
V872
p3398
sg18
V\u0395\u03bb\u03b5\u03cd\u03b8\u03b5\u03c1\u03b7 \u03a1\u03b1\u03b4\u03b9\u03bf\u03c6\u03c9\u03bd\u03af\u03b1 \u039a\u03b5\u03c6\u03b1\u03bb\u03bb\u03bf\u03bd\u03b9\u03ac 93,9
p3399
ssS'873'
p3400
(dp3401
g1785
S'http://eco.onestreaming.com:8131'
p3402
sg23
V/logos/gr/mini/statusradio.gif
p3403
sg14
V\u0391\u039b\u0395\u039e\u0391\u039d\u0394\u03a1\u039f\u03a5\u03a0\u039f\u039b\u0397
p3404
sg25
V873
p3405
sg18
VStatus 94,2
p3406
ssS'871'
p3407
(dp3408
g1785
S'http://eco.onestreaming.com:8152/stream'
p3409
sg23
V/logos/gr/mini/actionradio.gif
p3410
sg14
V\u039a\u039f\u039d\u0399\u03a4\u03a3\u0391
p3411
sg25
V871
p3412
sg18
VAction Radio 98,2
p3413
ssS'1893'
p3414
(dp3415
g23
V/logos/gr/mini/nologo.gif
p3416
sg14
VINTERNET RADIO
p3417
sg25
V1893
p3418
sg18
VMAXRADIO 
p3419
ssS'890'
p3420
(dp3421
g23
V/logos/gr/mini/nologo.gif
p3422
sg14
V\u0391\u0398\u0397\u039d\u0391
p3423
sg25
V890
p3424
sg18
VAstro Fm 99,8
p3425
ssS'894'
p3426
(dp3427
g1785
S'http://eco.onestreaming.com:8266'
p3428
sg23
V/logos/gr/mini/hxoioan.gif
p3429
sg14
V\u0399\u03a9\u0391\u039d\u039d\u0399\u039d\u0391
p3430
sg25
V894
p3431
sg18
VHxo Fm 102,7
p3432
ssS'647'
p3433
(dp3434
g1785
S'http://s4.onweb.gr:8468'
p3435
sg23
V/logos/gr/mini/radiolehovo.gif
p3436
sg14
V\u03a6\u039b\u03a9\u03a1\u0399\u039d\u0391
p3437
sg25
V647
p3438
sg18
V\u03a1\u03ac\u03b4\u03b9\u03bf \u039b\u03ad\u03c7\u03bf\u03b2\u03bf 97,1
p3439
ssS'897'
p3440
(dp3441
g848
S'http://golive.onestreaming.com/astraradio'
p3442
sg23
V/logos/gr/mini/astraradio.gif
p3443
sg14
V\u039c\u03a5\u03a4\u0399\u039b\u0397\u039d\u0397
p3444
sg25
V897
p3445
sg18
VAstra Radio 93,2
p3446
ssS'899'
p3447
(dp3448
g848
S'http://live.onestreaming.com/magiafm'
p3449
sg23
V/logos/gr/mini/magiafm.gif
p3450
sg14
V\u0391\u03a3\u03a4\u0391\u039a\u039f\u03a3
p3451
sg25
V899
p3452
sg18
VMagia Fm 
p3453
ssS'436'
p3454
(dp3455
g848
S'http://live.onestreaming.com/xylokastro'
p3456
sg23
V/logos/gr/mini/XylokastroLife.gif
p3457
sg14
V\u039e\u03a5\u039b\u039f\u039a\u0391\u03a3\u03a4\u03a1\u039f
p3458
sg25
V436
p3459
sg18
VLife Fm 103,1
p3460
ssS'1978'
p3461
(dp3462
g1785
S'http://208.43.121.133:9538'
p3463
sg23
V/logos/gr/mini/dmradioath.gif
p3464
sg14
VINTERNET RADIO
p3465
sg25
V1978
p3466
sg18
VDM Radio 
p3467
ssS'1977'
p3468
(dp3469
g23
V/logos/gr/mini/derfm.gif
p3470
sg14
VINTERNET RADIO
p3471
sg25
V1977
p3472
sg18
VDER Fm 
p3473
ssS'1976'
p3474
(dp3475
g23
V/logos/gr/mini/ant1grev.gif
p3476
sg14
V\u0393\u03a1\u0395\u0392\u0395\u039d\u0391
p3477
sg25
V1976
p3478
sg18
VAnt1 94
p3479
ssS'1975'
p3480
(dp3481
g23
V/logos/gr/mini/akradio.gif
p3482
sg14
VINTERNET RADIO
p3483
sg25
V1975
p3484
sg18
VAK Radio 
p3485
ssS'1974'
p3486
(dp3487
g1785
S'http://stream.myip.gr:8034'
p3488
sg23
V/logos/gr/mini/capitalkavala.gif
p3489
sg14
V\u039a\u0391\u0392\u0391\u039b\u0391
p3490
sg25
V1974
p3491
sg18
VCapital FM 107
p3492
ssS'1973'
p3493
(dp3494
g23
V/logos/gr/mini/nostalgia.gif
p3495
sg14
VINTERNET RADIO
p3496
sg25
V1973
p3497
sg18
V\u03a1\u03ac\u03b4\u03b9\u03bf \u039d\u03bf\u03c3\u03c4\u03b1\u03bb\u03b3\u03af\u03b1 
p3498
ssS'1972'
p3499
(dp3500
g23
V/logos/gr/mini/radiosoul.gif
p3501
sg14
VINTERNET RADIO
p3502
sg25
V1972
p3503
sg18
VRadio Soul 
p3504
ssS'1970'
p3505
(dp3506
g1785
S'http://99.198.118.250:8138/live'
p3507
sg23
V/logos/gr/mini/evolutiongr.gif
p3508
sg14
VINTERNET RADIO
p3509
sg25
V1970
p3510
sg18
VEvolution Radio 
p3511
ssS'357'
p3512
(dp3513
g1785
S'http://s1.onweb.gr:8820'
p3514
sg23
V/logos/gr/mini/neoradiofono.gif
p3515
sg14
V\u039a\u0395\u03a1\u039a\u03a5\u03a1\u0391
p3516
sg25
V357
p3517
sg18
V\u039d\u03ad\u03bf \u03a1\u03b1\u03b4\u03b9\u03cc\u03c6\u03c9\u03bd\u03bf 97,9
p3518
ssS'951'
p3519
(dp3520
g23
V/logos/gr/mini/libido.gif
p3521
sg14
VINTERNET RADIO
p3522
sg25
V951
p3523
sg18
VLibido Radio 
p3524
ssS'355'
p3525
(dp3526
g23
V/logos/gr/mini/maxcrete.gif
p3527
sg14
V\u03a7\u0391\u039d\u0399\u0391
p3528
sg25
V355
p3529
sg18
VMax Fm 100,2
p3530
ssS'808'
p3531
(dp3532
g23
V/logos/gr/mini/best947.gif
p3533
sg14
V\u0397\u03a1\u0391\u039a\u039b\u0395\u0399\u039f
p3534
sg25
V808
p3535
sg18
VBest 94,7
p3536
ssS'47'
p3537
(dp3538
g1785
S'http://s1.onweb.gr:8852'
p3539
sg23
V/logos/gr/mini/kritikos.gif
p3540
sg14
V\u0397\u03a1\u0391\u039a\u039b\u0395\u0399\u039f
p3541
sg25
V47
p3542
sg18
V\u039a\u03c1\u03b7\u03c4\u03b9\u03ba\u03cc\u03c2 88,7
p3543
ssS'801'
p3544
(dp3545
g23
V/logos/gr/mini/anagennisi.gif
p3546
sg14
VINTERNET RADIO
p3547
sg25
V801
p3548
sg18
VRadio \u0391\u03bd\u03b1\u03b3\u03ad\u03bd\u03bd\u03b7\u03c3\u03b7 
p3549
ssS'800'
p3550
(dp3551
g848
S'http://live.onestreaming.com/rythmos1044'
p3552
sg23
V/logos/gr/mini/rythmos1044.gif
p3553
sg14
V\u039a\u039f\u0396\u0391\u039d\u0397
p3554
sg25
V800
p3555
sg18
V\u03a1\u03c5\u03b8\u03bc\u03cc\u03c2 104,4
p3556
ssS'953'
p3557
(dp3558
g23
V/logos/gr/mini/notos949.gif
p3559
sg14
V\u03a3\u03a0\u0391\u03a1\u03a4\u0397
p3560
sg25
V953
p3561
sg18
V\u039d\u03cc\u03c4\u03bf\u03c2 94,9
p3562
ssS'805'
p3563
(dp3564
g1785
S'http://99.198.118.250:8022'
p3565
sg23
V/logos/gr/mini/musicbox.gif
p3566
sg14
V\u03a7\u0391\u039d\u0399\u0391
p3567
sg25
V805
p3568
sg18
VMusic Box 106,5
p3569
ssS'358'
p3570
(dp3571
g23
V/logos/gr/mini/samosfm.gif
p3572
sg14
V\u03a3\u0391\u039c\u039f\u03a3
p3573
sg25
V358
p3574
sg18
V\u03a3\u03ac\u03bc\u03bf\u03c2 Fm 97,3
p3575
ssS'1788'
p3576
(dp3577
g1785
S'http://boulevart.com.gr:8000'
p3578
sg23
V/logos/gr/mini/cookierock.gif
p3579
sg14
VINTERNET RADIO
p3580
sg25
V1788
p3581
sg18
VCookie Rock 
p3582
ssS'217'
p3583
(dp3584
g848
S'http://live.onestreaming.com/arhagelos'
p3585
sg23
V/logos/gr/mini/arhagelos.gif
p3586
sg14
V\u03a1\u039f\u0394\u039f\u03a3
p3587
sg25
V217
p3588
sg18
V\u0391\u03c1\u03c7\u03ac\u03b3\u03b3\u03b5\u03bb\u03bf\u03c2 94,1
p3589
ssS'214'
p3590
(dp3591
g848
S'http://ant1.live24.gr/ant1?b30cfd71ea09d00f53b8757c20491e34'
p3592
sg23
V/logos/gr/mini/ant1radio.gif
p3593
sg14
V\u0391\u0398\u0397\u039d\u0391
p3594
sg25
V214
p3595
sg18
VAnt1 Radio 97,2
p3596
ssS'215'
p3597
(dp3598
g848
S'http://rythmos.live24.gr/rythmos'
p3599
sg23
V/logos/gr/mini/rythmos.gif
p3600
sg14
V\u0391\u0398\u0397\u039d\u0391
p3601
sg25
V215
p3602
sg18
V\u03a1\u03c5\u03b8\u03bc\u03cc\u03c2 94,9
p3603
ssS'213'
p3604
(dp3605
g1785
S'http://78.46.66.215:8005'
p3606
sg23
V/logos/gr/mini/sokfm.gif
p3607
sg14
V\u03a7\u0391\u039b\u039a\u0399\u0394\u0391
p3608
sg25
V213
p3609
sg18
VSok Fm 104,8
p3610
ssS'210'
p3611
(dp3612
g23
V/logos/gr/mini/starfmlamia.gif
p3613
sg14
V\u039b\u0391\u039c\u0399\u0391
p3614
sg25
V210
p3615
sg18
VStar Fm \u039b\u03b1\u03bc\u03af\u03b1 97,1
p3616
ssS'762'
p3617
(dp3618
g1785
S'http://imagine.1stepstream.com:8000/live'
p3619
sg23
V/logos/gr/mini/imagine.gif
p3620
sg14
V\u0398\u0395\u03a3\u03a3\u0391\u039b\u039f\u039d\u0399\u039a\u0397
p3621
sg25
V762
p3622
sg18
VImagine 89,7
p3623
ssS'763'
p3624
(dp3625
g1785
S'http://topmelody1.selfip.net:8000'
p3626
sg23
V/logos/gr/mini/topmelody.gif
p3627
sg14
V\u03a3\u0391\u039d\u03a4\u039f\u03a1\u0399\u039d\u0397
p3628
sg25
V763
p3629
sg18
VTop Melody 104,9
p3630
ssS'1783'
p3631
(dp3632
g23
V/logos/gr/mini/radiopatrida1004.gif
p3633
sg14
V\u039a\u039f\u039c\u039f\u03a4H\u039d\u0397
p3634
sg25
V1783
p3635
sg18
V\u03a1\u03ac\u03b4\u03b9\u03bf \u03a0\u03b1\u03c4\u03c1\u03af\u03b4\u03b1 100,4
p3636
ssS'767'
p3637
(dp3638
g1785
S'http://eco.onestreaming.com:8123'
p3639
sg23
V/logos/gr/mini/mousikoelas.gif
p3640
sg14
V\u0395\u039b\u0391\u03a3\u03a3O\u039d\u0391
p3641
sg25
V767
p3642
sg18
V\u039c\u03bf\u03c5\u03c3\u03b9\u03ba\u03cc \u039a\u03b1\u03bd\u03ac\u03bb\u03b9 \u0395\u03bb\u03b1\u03c3\u03c3\u03cc\u03bd\u03b1\u03c2 107,3
p3643
ssS'218'
p3644
(dp3645
g1785
S'http://75.125.224.82:8000'
p3646
sg23
V/logos/gr/mini/mangoradio.gif
p3647
sg14
VINTERNET RADIO
p3648
sg25
V218
p3649
sg18
VMango Radio Urban 
p3650
ssS'219'
p3651
(dp3652
g848
S'http://live.onestreaming.com/christianity'
p3653
sg23
V/logos/gr/mini/christianity.gif
p3654
sg14
V\u0391\u0398\u0397\u039d\u0391
p3655
sg25
V219
p3656
sg18
V\u03a7\u03c1\u03b9\u03c3\u03c4\u03b9\u03b1\u03bd\u03b9\u03c3\u03bc\u03cc\u03c2 
p3657
ssS'1777'
p3658
(dp3659
g23
V/logos/gr/mini/mesogeios957.gif
p3660
sg14
V\u039a\u0391\u039b\u0391\u039c\u0391\u03a4\u0391
p3661
sg25
V1777
p3662
sg18
V\u039c\u03b5\u03c3\u03cc\u03b3\u03b5\u03b9\u03bf\u03c2 95,7
p3663
ssS'1776'
p3664
(dp3665
g23
V/logos/gr/mini/freeangel918.gif
p3666
sg14
V\u0391\u0398\u0397\u039d\u0391
p3667
sg25
V1776
p3668
sg18
Vfree Angel 91,8
p3669
ssS'1771'
p3670
(dp3671
g23
V/logos/gr/mini/kimawkma.gif
p3672
sg14
VINTERNET RADIO
p3673
sg25
V1771
p3674
sg18
VRADIO KIMA : WKMA 
p3675
ssS'1770'
p3676
(dp3677
g848
S'http://live.onestreaming.com/imargol1052'
p3678
sg23
V/logos/gr/mini/imargol1052.gif
p3679
sg14
V\u039d\u0391\u03a5\u03a0\u039b\u0399\u039f
p3680
sg25
V1770
p3681
sg18
V\u0399.\u039c. \u0391\u03c1\u03b3\u03bf\u03bb\u03af\u03b4\u03bf\u03c2 105,2
p3682
ssS'1237'
p3683
(dp3684
g1785
S'http://shout.streamwithq.gr:4138'
p3685
sg23
V/logos/gr/mini/alithiafm.gif
p3686
sg14
V\u039a\u0391\u039b\u03a5\u039c\u039d\u039f\u03a3
p3687
sg25
V1237
p3688
sg18
V\u0391\u03bb\u03ae\u0398\u03b5\u03b9\u03b1 Fm 96,3
p3689
ssS'1772'
p3690
(dp3691
g1785
S'http://188.40.131.14:9978'
p3692
sg23
V/logos/gr/mini/magicagrin.gif
p3693
sg14
V\u0391\u0393\u03a1\u0399\u039d\u0399\u039f
p3694
sg25
V1772
p3695
sg18
VMagic FM \u0391\u03b3\u03c1\u03af\u03bd\u03b9\u03bf 
p3696
ssS'1075'
p3697
(dp3698
g23
V/logos/gr/mini/lefkimmi.gif
p3699
sg14
V\u039a\u0395\u03a1\u039a\u03a5\u03a1\u0391
p3700
sg25
V1075
p3701
sg18
V\u03a1\u03ac\u03b4\u03b9\u03bf \u039b\u03b5\u03c5\u03ba\u03af\u03bc\u03bc\u03b7 105,5
p3702
ssS'1779'
p3703
(dp3704
g23
V/logos/gr/mini/skiathos964.gif
p3705
sg14
V\u03a3\u039a\u0399\u0391\u0398\u039f\u03a3
p3706
sg25
V1779
p3707
sg18
V\u0394\u03b7\u03bc\u03bf\u03c4\u03b9\u03ba\u03cc \u03a1\u03b1\u03b4\u03b9\u03cc\u03c6\u03c9\u03bd\u03bf \u03a3\u03ba\u03b9\u03ac\u03b8\u03bf\u03c5 96,4
p3708
ssS'1778'
p3709
(dp3710
g23
V/logos/gr/mini/realfmthess.gif
p3711
sg14
V\u0398\u0395\u03a3\u03a3\u0391\u039b\u039f\u039d\u0399\u039a\u0397
p3712
sg25
V1778
p3713
sg18
VReal Fm 107,1
p3714
ssS'289'
p3715
(dp3716
g1785
S'http://shoutcast.24radio.gr:8064'
p3717
sg23
V/logos/gr/mini/cool907.gif
p3718
sg14
V\u0391\u03a1\u0393\u039f\u03a3
p3719
sg25
V289
p3720
sg18
VCool Fm 90,7
p3721
ssS'4'
(dp3722
g1785
S'http://eco.onestreaming.com:8346'
p3723
sg23
V/logos/gr/mini/eurovisionfm.gif
p3724
sg14
V\u0391\u0398\u0397\u039d\u0391
p3725
sg25
V4
sg18
VEurovision.Fm 
p3726
ssS'1443'
p3727
(dp3728
g848
S'http://live.onestreaming.com/koziani'
p3729
sg23
V/logos/gr/mini/koziani.gif
p3730
sg14
V\u039a\u039f\u0396\u0391\u039d\u0397
p3731
sg25
V1443
p3732
sg18
VInternet Radio Koziani 
p3733
ssS'282'
p3734
(dp3735
g848
S'http://orange.live24.gr/orange9320'
p3736
sg23
V/logos/gr/mini/happy932.gif
p3737
sg14
V\u0391\u0398\u0397\u039d\u0391
p3738
sg25
V282
p3739
sg18
VHappy Radio 93,2
p3740
ssS'287'
p3741
(dp3742
g848
S'http://loveradio.live24.gr/loveradio-1000'
p3743
sg23
V/logos/gr/mini/loveradio.gif
p3744
sg14
V\u0391\u0398\u0397\u039d\u0391
p3745
sg25
V287
p3746
sg18
VLove Radio 97,5
p3747
ssS'1090'
p3748
(dp3749
g848
S'http://drs953.live24.gr/drs953?59c9e54a76f8bfebbc640262fc16b7a7'
p3750
sg23
V/logos/gr/mini/drs953.gif
p3751
sg14
V\u0397\u03a1\u0391\u039a\u039b\u0395\u0399\u039f
p3752
sg25
V1090
p3753
sg18
VDRS 95,3
p3754
ssS'679'
p3755
(dp3756
g23
V/logos/gr/mini/lydiafm.gif
p3757
sg14
V\u0398\u0395\u03a3\u03a3\u0391\u039b\u039f\u039d\u0399\u039a\u0397
p3758
sg25
V679
p3759
sg18
V\u039b\u03c5\u03b4\u03af\u03b1 FM 94,2
p3760
ssS'675'
p3761
(dp3762
g1785
S'http://webradio.musicheaven.gr:9850'
p3763
sg23
V/logos/gr/mini/musicheaven.gif
p3764
sg14
VINTERNET RADIO
p3765
sg25
V675
p3766
sg18
VMusic Heaven 
p3767
ssS'677'
p3768
(dp3769
g23
V/logos/gr/mini/danceradio.gif
p3770
sg14
VINTERNET RADIO
p3771
sg25
V677
p3772
sg18
VDance Radio - Tech House 
p3773
ssS'671'
p3774
(dp3775
g1785
S'http://radio1.discomaniaradio.com:7030'
p3776
sg23
V/logos/gr/mini/discomania.gif
p3777
sg14
VINTERNET RADIO
p3778
sg25
V671
p3779
sg18
VDiscomania 
p3780
ssS'269'
p3781
(dp3782
g23
V/logos/gr/mini/relaxfm882.gif
p3783
sg14
V\u03a0\u0391\u03a4\u03a1\u0391
p3784
sg25
V269
p3785
sg18
VRelax Fm 88,2
p3786
ssS'58'
p3787
(dp3788
g1785
S'http://eco.onestreaming.com:8219/stream'
p3789
sg23
V/logos/gr/mini/epontos.gif
p3790
sg14
VINTERNET RADIO
p3791
sg25
V58
p3792
sg18
Ve-Pontos 
p3793
ssS'55'
p3794
(dp3795
g23
V/logos/gr/mini/typosfm.gif
p3796
sg14
V\u0392\u0395\u03a1\u039f\u0399\u0391
p3797
sg25
V55
p3798
sg18
V\u03a1\u03ac\u03b4\u03b9\u03bf \u03a4\u03cd\u03c0\u03bf\u03c2 99,7
p3799
ssS'54'
p3800
(dp3801
g1785
S'http://s1.onweb.gr:8088'
p3802
sg23
V/logos/gr/mini/radiopolis.gif
p3803
sg14
V\u039b\u0391\u03a1\u0399\u03a3\u0391
p3804
sg25
V54
p3805
sg18
V\u03a1\u03ac\u03b4\u03b9\u03bf \u03a0\u03cc\u03bb\u03b9\u03c2 99,4
p3806
ssS'56'
p3807
(dp3808
g23
V/logos/gr/mini/doggradio.gif
p3809
sg14
VINTERNET RADIO
p3810
sg25
V56
p3811
sg18
VDoggradio 
p3812
ssS'50'
p3813
(dp3814
g848
S'http://prismavirus.live24.gr/prismavirus1000'
p3815
sg23
V/logos/gr/mini/prismavirus.gif
p3816
sg14
V\u039e\u03a5\u039b\u039f\u039a\u0391\u03a3\u03a4\u03a1\u039f
p3817
sg25
V50
p3818
sg18
V\u03a0\u03c1\u03af\u03c3\u03bc\u03b1 93,8
p3819
ssS'53'
p3820
(dp3821
g848
S'http://media15.internet.gr/dreamfm'
p3822
sg23
V/logos/gr/mini/nologo.gif
p3823
sg14
V\u0397\u03a1\u0391\u039a\u039b\u0395\u0399\u039f
p3824
sg25
V53
p3825
sg18
VDream FM 91
p3826
ssS'52'
p3827
(dp3828
g1785
S'http://155.207.18.114:8000/1431med'
p3829
sg23
V/logos/gr/mini/1431.gif
p3830
sg14
V\u0398\u0395\u03a3\u03a3\u0391\u039b\u039f\u039d\u0399\u039a\u0397
p3831
sg25
V52
p3832
sg18
V1431 AM 1431
p3833
ssS'536'
p3834
(dp3835
g1785
S'http://eco.onestreaming.com:8334'
p3836
sg23
V/logos/gr/mini/polis.gif
p3837
sg14
V\u0391\u039b\u0395\u039e\u0391\u039d\u0394\u03a1\u039f\u03a5\u03a0\u039f\u039b\u0397
p3838
sg25
V536
p3839
sg18
VPolis 102,6
p3840
ssS'535'
p3841
(dp3842
g1785
S'http://s1.onweb.gr:8098'
p3843
sg23
V/logos/gr/mini/parosfm.gif
p3844
sg14
V\u03a0\u0391\u03a1\u039f\u03a3 - \u0391\u039d\u03a4\u0399\u03a0\u0391\u03a1\u039f\u03a3
p3845
sg25
V535
p3846
sg18
V\u03a0\u03ac\u03c1\u03bf\u03c2 Fm 98,5
p3847
ssS'534'
p3848
(dp3849
g848
S'mmsh://a1251.l4434923250.c44349.g.lm.akamaistream.net/D/1251/44349/v0001/reflector:23250'
p3850
sg23
V/logos/gr/mini/freedomfm.gif
p3851
sg14
V\u0391\u0398\u0397\u039d\u0391
p3852
sg25
V534
p3853
sg18
VFreedom Fm 
p3854
ssS'533'
p3855
(dp3856
g848
S'http://live.onestreaming.com/elpar'
p3857
sg23
V/logos/gr/mini/elpar.gif
p3858
sg14
V\u0391\u0398\u0397\u039d\u0391
p3859
sg25
V533
p3860
sg18
V\u0395\u03bb\u03bb\u03b7\u03bd\u03b9\u03ba\u03cc \u03a0\u03b1\u03c1\u03b1\u03b4\u03bf\u03c3\u03b9\u03b1\u03ba\u03cc 
p3861
ssS'532'
p3862
(dp3863
g1785
S'http://eco.onestreaming.com:8336'
p3864
sg23
V/logos/gr/mini/99fm.gif
p3865
sg14
V\u0398\u0395\u03a3\u03a3\u0391\u039b\u039f\u039d\u0399\u039a\u0397
p3866
sg25
V532
p3867
sg18
V99fm / Radio 1 
p3868
ssS'530'
p3869
(dp3870
g1785
S'http://eco.onestreaming.com:8173'
p3871
sg23
V/logos/gr/mini/cityfm.gif
p3872
sg14
V\u0397\u03a1\u0391\u039a\u039b\u0395\u0399\u039f
p3873
sg25
V530
p3874
sg18
VCity Fm 100
p3875
ssS'539'
p3876
(dp3877
g848
S'http://a1202.l7083147201.c70831.g.lm.akamaistream.net/D/1202/70831/v0001/reflector:47201'
p3878
sg23
V/logos/gr/mini/palmos965.gif
p3879
sg14
V\u0398\u0395\u03a3\u03a3\u0391\u039b\u039f\u039d\u0399\u039a\u0397
p3880
sg25
V539
p3881
sg18
V\u03a0\u03b1\u03bb\u03bc\u03cc\u03c2 96,5
p3882
ssS'538'
p3883
(dp3884
g23
V/logos/gr/mini/hijack.gif
p3885
sg14
VINTERNET RADIO
p3886
sg25
V538
p3887
sg18
VHiJack 
p3888
ssS'775'
p3889
(dp3890
g848
S'http://live.onestreaming.com/orthodoxia'
p3891
sg23
V/logos/gr/mini/orthodoxia.gif
p3892
sg14
V\u03a3\u0399\u0391\u03a4\u0399\u03a3\u03a4\u0391
p3893
sg25
V775
p3894
sg18
V\u039f\u03c1\u03b8\u03bf\u03b4\u03bf\u03be\u03af\u03b1 \u03ba\u03b1\u03b9 \u03a0\u03b1\u03c1\u03ac\u03b4\u03bf\u03c3\u03b7 103
p3895
ssS'988'
p3896
(dp3897
g23
V/logos/gr/mini/cosmicradio.gif
p3898
sg14
V\u039a\u0391\u039b\u0391\u039c\u0391\u03a4\u0391
p3899
sg25
V988
p3900
sg18
VCosmic Radio 102,6
p3901
ssS'980'
p3902
(dp3903
g1785
S'http://live.radioalphaomega.com:4006'
p3904
sg23
V/logos/gr/mini/nologo.gif
p3905
sg14
V\u03a7\u0399\u039f\u03a3
p3906
sg25
V980
p3907
sg18
V\u03a1\u03ac\u03b4\u03b9\u03bf \u0391-\u03a9 90,4
p3908
ssS'981'
p3909
(dp3910
g23
V/logos/gr/mini/nologo.gif
p3911
sg14
V\u039a\u03a9\u03a3
p3912
sg25
V981
p3913
sg18
V\u03a1\u03ac\u03b4\u03b9\u03bf \u039a\u03c9\u03c2 98
p3914
ssS'777'
p3915
(dp3916
g1785
S'http://s6.onweb.gr:8056'
p3917
sg23
V/logos/gr/mini/faros927.gif
p3918
sg14
V\u0399\u03a9\u0391\u039d\u039d\u0399\u039d\u0391
p3919
sg25
V777
p3920
sg18
V\u03a1\u03ac\u03b4\u03b9\u03bf \u03a6\u03ac\u03c1\u03bf\u03c2 92,7
p3921
ssS'115'
p3922
(dp3923
g1785
S'http://live.duth.gr:8000/omorfipoli-hifi'
p3924
sg23
V/logos/gr/mini/omorfipoli.gif
p3925
sg14
V\u039e\u0391\u039d\u0398\u0397
p3926
sg25
V115
p3927
sg18
VOmorfi Poli 89,9
p3928
ssS'252'
p3929
(dp3930
g1785
S'http://eco.onestreaming.com:8272'
p3931
sg23
V/logos/gr/mini/flyradio.gif
p3932
sg14
V\u03a3\u03a0\u0391\u03a1\u03a4\u0397
p3933
sg25
V252
p3934
sg18
VFly Radio 89,7
p3935
ssS'117'
p3936
(dp3937
g23
V/logos/gr/mini/nologo.gif
p3938
sg14
V\u0392\u039f\u039b\u039f\u03a3
p3939
sg25
V117
p3940
sg18
VAstra 97,3
p3941
ssS'116'
p3942
(dp3943
g848
S'http://m1.onweb.gr/1055rock'
p3944
sg23
V/logos/gr/mini/rock1055.gif
p3945
sg14
V\u0398\u0395\u03a3\u03a3\u0391\u039b\u039f\u039d\u0399\u039a\u0397
p3946
sg25
V116
p3947
sg18
V1055 Rock 105,5
p3948
ssS'111'
p3949
(dp3950
g23
V/logos/gr/mini/ecclesia.gif
p3951
sg14
V\u0391\u0398\u0397\u039d\u0391
p3952
sg25
V111
p3953
sg18
V\u0395\u03ba\u03ba\u03bb\u03b7\u03c3\u03af\u03b1 \u03c4\u03b7\u03c2 \u0395\u03bb\u03bb\u03ac\u03b4\u03bf\u03c2 89,5
p3954
ssS'110'
p3955
(dp3956
g1785
S'http://streamx1.greekradios.gr:8000'
p3957
sg23
V/logos/gr/mini/metropolis.gif
p3958
sg14
V\u0398\u0395\u03a3\u03a3\u0391\u039b\u039f\u039d\u0399\u039a\u0397
p3959
sg25
V110
p3960
sg18
VMetropolis 95,5
p3961
ssS'113'
p3962
(dp3963
g848
S'http://a1232.l3271935231.c32719.g.lm.akamaistream.net/D/1232/32719/v0001/reflector:35231'
p3964
sg23
V/logos/gr/mini/erakosmos.gif
p3965
sg14
V\u0391\u0398\u0397\u039d\u0391
p3966
sg25
V113
p3967
sg18
V\u0395\u03a1\u0391 \u039a\u03cc\u03c3\u03bc\u03bf\u03c2 93,6
p3968
ssS'112'
p3969
(dp3970
g848
S'http://a1367.l3271923366.c32719.g.lm.akamaistream.net/D/1367/32719/v0001/reflector:23366'
p3971
sg23
V/logos/gr/mini/erafilia.gif
p3972
sg14
V\u0391\u0398\u0397\u039d\u0391
p3973
sg25
V112
p3974
sg18
V\u0395\u03a1\u0391 \u03a6\u03b9\u03bb\u03af\u03b1 
p3975
ssS'205'
p3976
(dp3977
g1785
S'http://eco.onestreaming.com:8099'
p3978
sg23
V/logos/gr/mini/radioastro.gif
p3979
sg14
V\u03a1\u0395\u0398\u03a5\u039c\u039d\u039f
p3980
sg25
V205
p3981
sg18
VAstro Fm 96,4
p3982
ssS'118'
p3983
(dp3984
g848
S'http://a1758.l3271933757.c32719.g.lm.akamaistream.net/D/1758/32719/v0001/reflector:33757'
p3985
sg23
V/logos/gr/mini/102fm.gif
p3986
sg14
V\u0398\u0395\u03a3\u03a3\u0391\u039b\u039f\u039d\u0399\u039a\u0397
p3987
sg25
V118
p3988
sg18
V\u0395\u03a1\u03913 \u0391\u0384 \u03a0\u03c1\u03cc\u03b3\u03c1\u03b1\u03bc\u03bc\u03b1 102
p3989
ssS'770'
p3990
(dp3991
g848
S'http://live.onestreaming.com/radioionia'
p3992
sg23
V/logos/gr/mini/radioionia.gif
p3993
sg14
V\u03a3\u0391\u039c\u039f\u03a3
p3994
sg25
V770
p3995
sg18
V\u03a1\u03ac\u03b4\u03b9\u03bf \u0399\u03c9\u03bd\u03af\u03b1 105,2
p3996
ssS'1858'
p3997
(dp3998
g1785
S'http://citycom.serverroom.us:6762'
p3999
sg23
V/logos/gr/mini/clubsradio.gif
p4000
sg14
VINTERNET RADIO
p4001
sg25
V1858
p4002
sg18
VClub's Radio 
p4003
ssS'1859'
p4004
(dp4005
g23
V/logos/gr/mini/inathensdance.gif
p4006
sg14
VINTERNET RADIO
p4007
sg25
V1859
p4008
sg18
VIn Athens Dance Radio 
p4009
ssS'1850'
p4010
(dp4011
g23
V/logos/gr/mini/genesisfm.gif
p4012
sg14
VINTERNET RADIO
p4013
sg25
V1850
p4014
sg18
VGenesis FM 
p4015
ssS'1852'
p4016
(dp4017
g1785
S'http://85.17.30.90:9996'
p4018
sg23
V/logos/gr/mini/navagiagr.gif
p4019
sg14
VINTERNET RADIO
p4020
sg25
V1852
p4021
sg18
VNavagia.gr 
p4022
ssS'1853'
p4023
(dp4024
g23
V/logos/gr/mini/alina.gif
p4025
sg14
VINTERNET RADIO
p4026
sg25
V1853
p4027
sg18
VAlina Radio 
p4028
ssS'1854'
p4029
(dp4030
g23
V/logos/gr/mini/cooradio.gif
p4031
sg14
VINTERNET RADIO
p4032
sg25
V1854
p4033
sg18
VCooRadio 
p4034
ssS'1855'
p4035
(dp4036
g1785
S'http://radio.zbutsam.net:30570'
p4037
sg23
V/logos/gr/mini/zbutsam.gif
p4038
sg14
VINTERNET RADIO
p4039
sg25
V1855
p4040
sg18
VZbutsam 
p4041
ssS'1856'
p4042
(dp4043
g23
V/logos/gr/mini/radiomaniagr.gif
p4044
sg14
VINTERNET RADIO
p4045
sg25
V1856
p4046
sg18
VRadio Mania 
p4047
ssS'1857'
p4048
(dp4049
g1785
S'http://87.117.198.140:8018'
p4050
sg23
V/logos/gr/mini/westradiogr.gif
p4051
sg14
VINTERNET RADIO
p4052
sg25
V1857
p4053
sg18
VWest Radio 
p4054
ssS'919'
p4055
(dp4056
g23
V/logos/gr/mini/happydreamradio.gif
p4057
sg14
VINTERNET RADIO
p4058
sg25
V919
p4059
sg18
Vhappy dream radio 
p4060
ssS'420'
p4061
(dp4062
g14
V\u0391\u0398\u0397\u039d\u0391
p4063
sg16
S'athensdeejay'
p4064
sg18
VAthens DeeJay 95,2
p4065
sg20
S'http://91.132.6.21:8001'
p4066
sg22
g4066
sg23
V/logos/gr/mini/deejay.gif
p4067
sg25
V420
p4068
ssS'422'
p4069
(dp4070
g848
S'http://live.onestreaming.com/radiovelika'
p4071
sg23
V/logos/gr/mini/radiovelika.gif
p4072
sg14
V\u039b\u0391\u03a1\u0399\u03a3\u0391
p4073
sg25
V422
p4074
sg18
VRadio \u0392\u03b5\u03bb\u03af\u03ba\u03b1 92,2
p4075
ssS'911'
p4076
(dp4077
g848
S'http://live.onestreaming.com/mesogios'
p4078
sg23
V/logos/gr/mini/mesogios.gif
p4079
sg14
V\u039d\u0391\u039e\u039f\u03a3
p4080
sg25
V911
p4081
sg18
V\u039c\u03b5\u03c3\u03cc\u03b3\u03b5\u03b9\u03bf\u03c2 105,4
p4082
ssS'424'
p4083
(dp4084
g1785
S'http://208.43.81.168:8748'
p4085
sg23
V/logos/gr/mini/ioanninadj.gif
p4086
sg14
V\u0399\u03a9\u0391\u039d\u039d\u0399\u039d\u0391
p4087
sg25
V424
p4088
sg18
V\u0399\u03c9\u03ac\u03bd\u03bd\u03b9\u03bd\u03b1 Deejay 89,6
p4089
ssS'427'
p4090
(dp4091
g14
V\u03a0\u0391\u03a4\u03a1\u0391
p4092
sg260
S'smartfm'
p4093
sg18
VSmart Fm 100,7
p4094
sg263
S'http://smartfm.serverroom.us:8030'
p4095
sg265
g4095
sg23
V/logos/gr/mini/smartfm.gif
p4096
sg25
V427
p4097
ssS'912'
p4098
(dp4099
g1633
S'http://eco.onestreaming.com:8215'
p4100
sg23
V/logos/gr/mini/geramanis.gif
p4101
sg14
VINTERNET RADIO
p4102
sg25
V912
p4103
sg18
V\u03a0\u03ac\u03bd\u03bf\u03c2 \u0393\u03b5\u03c1\u03b1\u03bc\u03ac\u03bd\u03b7\u03c2 
p4104
ssS'309'
p4105
(dp4106
g1785
S'http://s1.onweb.gr:8028'
p4107
sg23
V/logos/gr/mini/kymaradio.gif
p4108
sg14
V\u039a\u0395\u03a1\u039a\u03a5\u03a1\u0391
p4109
sg25
V309
p4110
sg18
V\u039a\u03cd\u03bc\u03b1 Fm 90,3
p4111
ssS'302'
p4112
(dp4113
g1785
S'http://78.129.159.205:8048'
p4114
sg23
V/logos/gr/mini/impatron.gif
p4115
sg14
V\u03a0\u0391\u03a4\u03a1\u0391
p4116
sg25
V302
p4117
sg18
V\u0399.\u039c\u03b7\u03c4\u03c1\u03cc\u03c0\u03bf\u03bb\u03b9\u03c2 \u03a0\u03b1\u03c4\u03c1\u03ce\u03bd 88,4
p4118
ssS'952'
p4119
(dp4120
g848
S'http://live.onestreaming.com/alpha981'
p4121
sg23
V/logos/gr/mini/alpha981.gif
p4122
sg14
V\u03a0\u03a1\u0395\u0392\u0395\u0396\u0391
p4123
sg25
V952
p4124
sg18
VAlpha 98,1
p4125
ssS'1932'
p4126
(dp4127
g23
V/logos/gr/mini/sevdasgr.gif
p4128
sg14
VINTERNET RADIO
p4129
sg25
V1932
p4130
sg18
V\u03a3\u03b5\u03b2\u03bd\u03c4\u03ac\u03c2 FM 
p4131
ssS'1931'
p4132
(dp4133
g1785
S'http://s3.viastreaming.net:8670'
p4134
sg23
V/logos/gr/mini/sfinagr.gif
p4135
sg14
VINTERNET RADIO
p4136
sg25
V1931
p4137
sg18
V\u03a3\u03c6\u03ae\u03bd\u03b1 Radio 
p4138
ssS'1216'
p4139
(dp4140
g1785
S'http://s7.onweb.gr:8554'
p4141
sg23
V/logos/gr/mini/palmos95.gif
p4142
sg14
V\u039b\u0391\u039c\u0399\u0391
p4143
sg25
V1216
p4144
sg18
V\u03a0\u03b1\u03bb\u03bc\u03cc\u03c2 95
p4145
ssS'1937'
p4146
(dp4147
g1785
S'http://75.126.64.105:8152'
p4148
sg23
V/logos/gr/mini/rcity1028.gif
p4149
sg14
V\u039a\u0391\u03a4\u0395\u03a1\u0399\u039d\u0397
p4150
sg25
V1937
p4151
sg18
VRadio City 102,8
p4152
ssS'1936'
p4153
(dp4154
g1785
S'http://s8.onweb.gr:8706'
p4155
sg23
V/logos/gr/mini/fresh929.gif
p4156
sg14
V\u039a\u039f\u0396\u0391\u039d\u0397
p4157
sg25
V1936
p4158
sg18
VFresh FM 92,9
p4159
ssS'1935'
p4160
(dp4161
g23
V/logos/gr/mini/forbeaten.gif
p4162
sg14
VINTERNET RADIO
p4163
sg25
V1935
p4164
sg18
VForbeaten 
p4165
ssS'1939'
p4166
(dp4167
g23
V/logos/gr/mini/biscuitgr.gif
p4168
sg14
VINTERNET RADIO
p4169
sg25
V1939
p4170
sg18
VBiscuit Radio  
p4171
ssS'138'
p4172
(dp4173
g23
V/logos/gr/mini/noiselamia.gif
p4174
sg14
V\u039b\u0391\u039c\u0399\u0391
p4175
sg25
V138
p4176
sg18
VNoise Fm 100,5
p4177
ssS'847'
p4178
(dp4179
g23
V/logos/gr/mini/pluslive.gif
p4180
sg14
VINTERNET RADIO
p4181
sg25
V847
p4182
sg18
VPlus Live 
p4183
ssS'845'
p4184
(dp4185
g1785
S'http://46.4.65.194:8017'
p4186
sg23
V/logos/gr/mini/electrocaine.gif
p4187
sg14
VINTERNET RADIO
p4188
sg25
V845
p4189
sg18
VElectrocaine 
p4190
ssS'843'
p4191
(dp4192
g23
V/logos/gr/mini/radiopieria.gif
p4193
sg14
V\u039a\u0391\u03a4\u0395\u03a1\u0399\u039d\u0397
p4194
sg25
V843
p4195
sg18
V\u03a1\u03ac\u03b4\u03b9\u03bf \u03a0\u03b9\u03b5\u03c1\u03af\u03b1 104,2
p4196
ssS'842'
p4197
(dp4198
g848
S'http://s5.onweb.gr:8418'
p4199
sg23
V/logos/gr/mini/sohos.gif
p4200
sg14
V\u0398\u0395\u03a3\u03a3\u0391\u039b\u039f\u039d\u0399\u039a\u0397
p4201
sg25
V842
p4202
sg18
V\u03a3\u03bf\u03c7\u03cc\u03c2 Fm 88,7
p4203
ssS'841'
p4204
(dp4205
g848
S'http://sentrafm.live24.gr/sentrafm'
p4206
sg23
V/logos/gr/mini/sendrafm.gif
p4207
sg14
V\u0391\u0398\u0397\u039d\u0391
p4208
sg25
V841
p4209
sg18
VSentra Fm 103,3
p4210
ssS'848'
p4211
(dp4212
g1785
S'http://178.33.248.236:8006'
p4213
sg23
V/logos/gr/mini/funradio.gif
p4214
sg14
VINTERNET RADIO
p4215
sg25
V848
p4216
sg18
VFun Radio 
p4217
ssS'1986'
p4218
(dp4219
g1785
S'http://streamyourdream.org:8000/perfect'
p4220
sg23
V/logos/gr/mini/perfect1033.gif
p4221
sg14
V\u0392\u039f\u039b\u039f\u03a3
p4222
sg25
V1986
p4223
sg18
VPerfect Radio 103,3
p4224
ssS'1987'
p4225
(dp4226
g23
V/logos/gr/mini/myvita.gif
p4227
sg14
V\u0397\u03a1\u0391\u039a\u039b\u0395\u0399\u039f
p4228
sg25
V1987
p4229
sg18
VMyVita Radio 
p4230
ssS'1982'
p4231
(dp4232
g1785
S'http://208.43.115.44:8138'
p4233
sg23
V/logos/gr/mini/cannibal.gif
p4234
sg14
VINTERNET RADIO
p4235
sg25
V1982
p4236
sg18
VCannibal Radio 
p4237
ssS'1983'
p4238
(dp4239
g1785
S'http://stream.radiojar.com/trollradio-gr.mp3'
p4240
sg23
V/logos/gr/mini/troll.gif
p4241
sg14
V\u0391\u0398\u0397\u039d\u0391
p4242
sg25
V1983
p4243
sg18
VTroll Radio 
p4244
ssS'1980'
p4245
(dp4246
g848
S'http://live.onestreaming.com/antonisradio'
p4247
sg23
V/logos/gr/mini/antonisradio.gif
p4248
sg14
VINTERNET RADIO
p4249
sg25
V1980
p4250
sg18
VAntonis Radio 
p4251
ssS'1981'
p4252
(dp4253
g23
V/logos/gr/mini/melodiatrikala.gif
p4254
sg14
V\u03a4\u03a1\u0399\u039a\u0391\u039b\u0391
p4255
sg25
V1981
p4256
sg18
V\u03a1\u03ac\u03b4\u03b9\u03bf \u039c\u03b5\u03bb\u03c9\u03b4\u03af\u03b1 95,6
p4257
ssS'181'
p4258
(dp4259
g848
S'http://golive.onestreaming.com/ydrogeios'
p4260
sg23
V/logos/gr/mini/ydrogeios.gif
p4261
sg14
V\u0397\u03a1\u0391\u039a\u039b\u0395\u0399\u039f
p4262
sg25
V181
p4263
sg18
V\u03a5\u03b4\u03c1\u03cc\u03b3\u03b5\u03b9\u03bf\u03c2 106,9
p4264
ssS'1988'
p4265
(dp4266
g1785
S'http://s1.viastreaming.net:7430'
p4267
sg23
V/logos/gr/mini/nologo.gif
p4268
sg14
V\u0398\u0395\u03a3\u03a3\u0391\u039b\u039f\u039d\u0399\u039a\u0397
p4269
sg25
V1988
p4270
sg18
VCafe \u0388\u03bd\u03c4\u03b5\u03c7\u03bd\u03bf\u03bd 
p4271
ssS'1989'
p4272
(dp4273
g1785
S'http://s1.onweb.gr:8432'
p4274
sg23
V/logos/gr/mini/iak.gif
p4275
sg14
V\u0397\u03a1\u0391\u039a\u039b\u0395\u0399\u039f
p4276
sg25
V1989
p4277
sg18
V\u0399\u03b5\u03c1\u03ac \u0391\u03c1\u03c7\u03b9\u03b5\u03c0\u03b9\u03c3\u03ba\u03bf\u03c0\u03ae \u039a\u03c1\u03ae\u03c4\u03b7\u03c2 99,7
p4278
ssS'752'
p4279
(dp4280
g23
V/logos/gr/mini/studioe.gif
p4281
sg14
V\u0399\u03a9\u0391\u039d\u039d\u0399\u039d\u0391
p4282
sg25
V752
p4283
sg18
VStudio E 103
p4284
ssS'757'
p4285
(dp4286
g848
S'http://live.onestreaming.com/jetaime'
p4287
sg23
V/logos/gr/mini/jetaime.gif
p4288
sg14
V\u0391\u0398\u0397\u039d\u0391
p4289
sg25
V757
p4290
sg18
VAM Je t'aime 93,4
p4291
ssS'754'
p4292
(dp4293
g848
S'http://live.onestreaming.com/ant1santorinis'
p4294
sg23
V/logos/gr/mini/ant1santorinis.gif
p4295
sg14
V\u03a3\u0391\u039d\u03a4\u039f\u03a1\u0399\u039d\u0397
p4296
sg25
V754
p4297
sg18
VRadio Faros 105,9
p4298
ssS'759'
p4299
(dp4300
g1785
S'http://s3.onweb.gr:8436'
p4301
sg23
V/logos/gr/mini/radiodeth.gif
p4302
sg14
V\u0398\u0395\u03a3\u03a3\u0391\u039b\u039f\u039d\u0399\u039a\u0397
p4303
sg25
V759
p4304
sg18
V\u03a1\u03ac\u03b4\u03b9\u03bf \u0394\u0395\u0398 104,9
p4305
ssS'509'
p4306
(dp4307
g848
S'http://live.onestreaming.com/style100'
p4308
sg23
V/logos/gr/mini/style100.gif
p4309
sg14
V\u03a3H\u03a4\u0395\u0399\u0391
p4310
sg25
V509
p4311
sg18
VStyle 100
p4312
ssS'739'
p4313
(dp4314
g1785
S'http://188.40.131.14:9988'
p4315
sg23
V/logos/gr/mini/mesologgi.gif
p4316
sg14
V\u039c\u0395\u03a3\u039f\u039b\u039f\u0393\u0393\u0399
p4317
sg25
V739
p4318
sg18
V\u03a1\u03b1\u03b4\u03b9\u03cc\u03c6\u03c9\u03bd\u03bf \u039c\u03b5\u03c3\u03bf\u03bb\u03bf\u03b3\u03b3\u03af\u03bf\u03c5 92
p4319
ssS'1593'
p4320
(dp4321
g848
S'http://stream-push2.live24.gr/metrofm1012xalkida'
p4322
sg23
V/logos/gr/mini/metro1012.gif
p4323
sg14
V\u03a7\u0391\u039b\u039a\u0399\u0394\u0391
p4324
sg25
V1593
p4325
sg18
VMetro FM 101,2
p4326
ssS'226'
p4327
(dp4328
g1785
S'http://shout.streamwithq.gr:4168'
p4329
sg23
V/logos/gr/mini/radiopreveza.gif
p4330
sg14
V\u03a0\u03a1\u0395\u0392\u0395\u0396\u0391
p4331
sg25
V226
p4332
sg18
V\u03a1\u03ac\u03b4\u03b9\u03bf \u03a0\u03c1\u03ad\u03b2\u03b5\u03b6\u03b1 93
p4333
ssS'224'
p4334
(dp4335
g23
V/logos/gr/mini/noizeradio.gif
p4336
sg14
V\u03a3\u0395\u03a1\u03a1\u0395\u03a3
p4337
sg25
V224
p4338
sg18
VNoize Radio 93,5
p4339
ssS'222'
p4340
(dp4341
g23
V/logos/gr/mini/radiodrama.gif
p4342
sg14
V\u0394\u03a1\u0391\u039c\u0391
p4343
sg25
V222
p4344
sg18
V\u03a1\u03ac\u03b4\u03b9\u03bf \u0394\u03c1\u03ac\u03bc\u03b1 99,1
p4345
ssS'221'
p4346
(dp4347
g848
S'http://golive.onestreaming.com/sport103'
p4348
sg23
V/logos/gr/mini/sport103.gif
p4349
sg14
V\u0398\u0395\u03a3\u03a3\u0391\u039b\u039f\u039d\u0399\u039a\u0397
p4350
sg25
V221
p4351
sg18
VSport 103
p4352
ssS'220'
p4353
(dp4354
S'url'
p4355
S'http://sc2.greekstream.net:4012'
p4356
sg23
V/logos/gr/mini/ekfrasi.gif
p4357
sg14
V\u0398\u0395\u03a3\u03a3\u0391\u039b\u039f\u039d\u0399\u039a\u0397
p4358
sg25
V220
p4359
sg18
V\u03a1\u03ac\u03b4\u03b9\u03bf \u0388\u03ba\u03c6\u03c1\u03b1\u03c3\u03b7 92,4
p4360
ssS'505'
p4361
(dp4362
g23
V/logos/gr/mini/fasmafm.gif
p4363
sg14
V\u03a0\u03a4\u039f\u039bE\u039c\u0391\u0399\u0394\u0391
p4364
sg25
V505
p4365
sg18
V\u03a6\u03ac\u03c3\u03bc\u03b1 103
p4366
ssS'114'
p4367
(dp4368
g848
S'http://kissfm.live24.gr/kiss2111'
p4369
sg23
V/logos/gr/mini/kissfm.gif
p4370
sg14
V\u0391\u0398\u0397\u039d\u0391
p4371
sg25
V114
p4372
sg18
VKiss Fm 92,9
p4373
ssS'1182'
p4374
(dp4375
g4355
S'http://eco.onestreaming.com:8054'
p4376
sg23
V/logos/gr/mini/nowradio.gif
p4377
sg14
V\u0398\u0395\u03a3\u03a3\u0391\u039b\u039f\u039d\u0399\u039a\u0397
p4378
sg25
V1182
p4379
sg18
VNow Radio 
p4380
ssS'1028'
p4381
(dp4382
g4355
S'http://85.17.30.90:8078'
p4383
sg23
V/logos/gr/mini/river1066.gif
p4384
sg14
V\u039b\u0391\u03a1\u0399\u03a3\u0391
p4385
sg25
V1028
p4386
sg18
VRiver FM 106,6
p4387
ssS'726'
p4388
(dp4389
g4355
S'http://174.36.237.66:9450'
p4390
sg23
V/logos/gr/mini/nologo.gif
p4391
sg14
V\u0399\u03a9\u0391\u039d\u039d\u0399\u039d\u0391
p4392
sg25
V726
p4393
sg18
V\u03a1\u03ac\u03b4\u03b9\u03bf \u0397\u03c0\u03b5\u03b9\u03c1\u03bf\u03c2 94,5
p4394
ssS'727'
p4395
(dp4396
g4355
S'http://70.38.101.150:8012'
p4397
sg23
V/logos/gr/mini/feverkoz.gif
p4398
sg14
V\u039a\u039f\u0396\u0391\u039d\u0397
p4399
sg25
V727
p4400
sg18
VFever Radio 106,3
p4401
ssS'725'
p4402
(dp4403
g23
V/logos/gr/mini/nologo.gif
p4404
sg14
V\u039b\u0391\u03a1\u0399\u03a3\u0391
p4405
sg25
V725
p4406
sg18
VBest Fm 93,3
p4407
ssS'722'
p4408
(dp4409
g848
S'http://vimafm.live24.gr/vimafm'
p4410
sg23
V/logos/gr/mini/vimafm995.gif
p4411
sg14
V\u0391\u0398\u0397\u039d\u0391
p4412
sg25
V722
p4413
sg18
V\u0392\u03b7\u03bc\u03b1 Fm 99,5
p4414
ssS'728'
p4415
(dp4416
g23
V/logos/gr/mini/tripradio.gif
p4417
sg14
VINTERNET RADIO
p4418
sg25
V728
p4419
sg18
VTrip Radio 
p4420
ssS'1165'
p4421
(dp4422
g23
V/logos/gr/mini/wave974.gif
p4423
sg14
V\u03a0\u0391\u03a4\u03a1\u0391
p4424
sg25
V1165
p4425
sg18
VWave 97,4
p4426
ssS'1160'
p4427
(dp4428
g848
S'http://legacy-100-ams.servers.mediacdn.com/maxfm93-4-patra'
p4429
sg23
V/logos/gr/mini/maxfm934.gif
p4430
sg14
V\u03a0\u0391\u03a4\u03a1\u0391
p4431
sg25
V1160
p4432
sg18
VMax FM 93,4
p4433
ssS'1207'
p4434
(dp4435
g23
V/logos/gr/mini/psradio.gif
p4436
sg14
VINTERNET RADIO
p4437
sg25
V1207
p4438
sg18
VPs Radio 
p4439
ssS'1203'
p4440
(dp4441
g848
S'http://live.onestreaming.com/notesserres'
p4442
sg23
V/logos/gr/mini/notesserres.gif
p4443
sg14
V\u03a3\u0395\u03a1\u03a1\u0395\u03a3
p4444
sg25
V1203
p4445
sg18
VN\u03cc\u03c4\u03b5\u03c2 FM 106
p4446
ssS'633'
p4447
(dp4448
g848
S'http://live.onestreaming.com/politia'
p4449
sg23
V/logos/gr/mini/politia.gif
p4450
sg14
V\u03a3\u03a0\u0391\u03a1\u03a4\u0397
p4451
sg25
V633
p4452
sg18
V\u03a0\u03bf\u03bb\u03b9\u03c4\u03b5\u03af\u03b1 90,7
p4453
ssS'1899'
p4454
(dp4455
g4355
S'http://99.198.118.250:8008/live'
p4456
sg23
V/logos/gr/mini/mustathens.gif
p4457
sg14
VINTERNET RADIO
p4458
sg25
V1899
p4459
sg18
VRadio Must Athens 
p4460
ssS'634'
p4461
(dp4462
g848
S'http://live.onestreaming.com/avanti'
p4463
sg23
V/logos/gr/mini/avantiradio.gif
p4464
sg14
V\u03a3\u039a\u0399\u0391\u0398\u039f\u03a3
p4465
sg25
V634
p4466
sg18
VAvanti Fm 98,3
p4467
ssS'1896'
p4468
(dp4469
g23
V/logos/gr/mini/nologo.gif
p4470
sg14
VINTERNET RADIO
p4471
sg25
V1896
p4472
sg18
VSteezy Radio 
p4473
ssS'1897'
p4474
(dp4475
g4355
S'http://eco.onestreaming.com:8125'
p4476
sg23
V/logos/gr/mini/milos108.gif
p4477
sg14
V\u039c\u0397\u039b\u039f\u03a3
p4478
sg25
V1897
p4479
sg18
V\u039c\u03ae\u03bb\u03bf\u03c2 108 108
p4480
ssS'1890'
p4481
(dp4482
g23
V/logos/gr/mini/radiofasi.gif
p4483
sg14
V\u0398\u0395\u03a3\u03a3\u0391\u039b\u039f\u039d\u0399\u039a\u0397
p4484
sg25
V1890
p4485
sg18
V\u03a1\u03ac\u03b4\u03b9\u03bf \u03a6\u03ac\u03c3\u03b7 
p4486
ssS'1891'
p4487
(dp4488
g4355
S'http://www.iek-akmi.gr:9998'
p4489
sg23
V/logos/gr/mini/iekakmi.gif
p4490
sg14
V\u0391\u0398\u0397\u039d\u0391
p4491
sg25
V1891
p4492
sg18
V\u0391\u039a\u039c\u0397 Radio 
p4493
ssS'1892'
p4494
(dp4495
g4355
S'http://94.100.18.210:8022'
p4496
sg23
V/logos/gr/mini/flippin.gif
p4497
sg14
VINTERNET RADIO
p4498
sg25
V1892
p4499
sg18
VFlippinradio 
p4500
ssS'635'
p4501
(dp4502
g848
S'http://live.onestreaming.com/toxotis'
p4503
sg23
V/logos/gr/mini/toxotisfm.gif
p4504
sg14
V\u0393\u0399\u0391\u039d\u039d\u0399\u03a4\u03a3\u0391
p4505
sg25
V635
p4506
sg18
V\u03a4\u03bf\u03be\u03cc\u03c4\u03b7\u03c2 96,3
p4507
ssS'958'
p4508
(dp4509
g848
S'http://live.onestreaming.com/super88'
p4510
sg23
V/logos/gr/mini/super88.gif
p4511
sg14
V\u039e\u0391\u039d\u0398\u0397
p4512
sg25
V958
p4513
sg18
VSuper 88
p4514
ssS'48'
p4515
(dp4516
g4355
S'http://activeradio.gr:8000/activemp3'
p4517
sg23
V/logos/gr/mini/activeradio.gif
p4518
sg14
VINTERNET RADIO
p4519
sg25
V48
p4520
sg18
VActive Radio 
p4521
ssS'2003'
p4522
(dp4523
g23
V/logos/gr/mini/radioparis.gif
p4524
sg14
V\u03a1\u039f\u0394\u039f\u03a3
p4525
sg25
V2003
p4526
sg18
VRadio Paris 
p4527
ssS'46'
p4528
(dp4529
S'url'
p4530
S'http://s1.onweb.gr:8860'
p4531
sg23
V/logos/gr/mini/stylidafm.gif
p4532
sg14
V\u039b\u0391\u039c\u0399\u0391
p4533
sg25
V46
p4534
sg18
VStylida Fm 94,1
p4535
ssS'950'
p4536
(dp4537
g23
V/logos/gr/mini/ixoxromma.gif
p4538
sg14
VINTERNET RADIO
p4539
sg25
V950
p4540
sg18
V\u03a7\u03c1\u03ce\u03bc\u03b1\u03c4\u03b1 \u0388\u03c1\u03c9\u03c4\u03bf\u03c2 
p4541
ssS'44'
p4542
(dp4543
g4530
S'http://s1.onweb.gr:8096'
p4544
sg23
V/logos/gr/mini/936.gif
p4545
sg14
V\u039a\u03a5\u03a0\u0391\u03a1\u0399\u03a3\u03a3\u0399\u0391
p4546
sg25
V44
p4547
sg18
V\u03a1\u03ac\u03b4\u03b9\u03bf \u039a\u03c5\u03c0\u03b1\u03c1\u03b9\u03c3\u03c3\u03af\u03b1 93,6
p4548
ssS'45'
p4549
(dp4550
g481
S'http://legacy-100-ams.servers.mediacdn.com/enaplus'
p4551
sg23
V/logos/gr/mini/chroma985.gif
p4552
sg14
V\u039b\u0391\u039c\u0399\u0391
p4553
sg25
V45
p4554
sg18
V\u03a7\u03c1\u03ce\u03bc\u03b1 98,5
p4555
ssS'955'
p4556
(dp4557
g848
S'http://live.onestreaming.com/makistia'
p4558
sg23
V/logos/gr/mini/makistia.gif
p4559
sg14
V\u03a0\u03a5\u03a1\u0393\u039f\u03a3
p4560
sg25
V955
p4561
sg18
V\u03a1\u03ac\u03b4\u03b9\u03bf \u039c\u03b1\u03ba\u03b9\u03c3\u03c4\u03af\u03b1 98,6
p4562
ssS'954'
p4563
(dp4564
g23
V/logos/gr/mini/star884.gif
p4565
sg14
V\u0397\u03a1\u0391\u039a\u039b\u0395\u0399\u039f
p4566
sg25
V954
p4567
sg18
VStar 88,4
p4568
ssS'1112'
p4569
(dp4570
g23
V/logos/gr/mini/diavlosdramas.gif
p4571
sg14
V\u0394\u03a1\u0391\u039c\u0391
p4572
sg25
V1112
p4573
sg18
V\u0394\u03af\u03b1\u03c5\u03bb\u03bf\u03c2 \u0394\u03c1\u03ac\u03bc\u03b1\u03c2 93
p4574
ssS'5'
(dp4575
g848
S'http://golive.onestreaming.com/arion2'
p4576
sg23
V/logos/gr/mini/arion_2.gif
p4577
sg14
V\u0391\u0398\u0397\u039d\u0391
p4578
sg25
V5
sg18
VArion 2 
p4579
ssS'1713'
p4580
(dp4581
g23
V/logos/gr/mini/romeos.gif
p4582
sg14
V\u0399\u03a9\u0391\u039d\u039d\u0399\u039d\u0391
p4583
sg25
V1713
p4584
sg18
V\u03a1\u03ac\u03b4\u03b9\u03bf \u03a1\u03c9\u03bc\u03b1\u03af\u03bf\u03c2 94
p4585
ssS'489'
p4586
(dp4587
g848
S'http://live.onestreaming.com/deltaradio'
p4588
sg23
V/logos/gr/mini/deltaradio.gif
p4589
sg14
V\u0398\u0395\u03a3\u03a3\u0391\u039b\u039f\u039d\u0399\u039a\u0397
p4590
sg25
V489
p4591
sg18
VIEK Delta Radio 
p4592
ssS'488'
p4593
(dp4594
g23
V/logos/gr/mini/knossosfm.gif
p4595
sg14
V\u0397\u03a1\u0391\u039a\u039b\u0395\u0399\u039f
p4596
sg25
V488
p4597
sg18
V\u039a\u03bd\u03c9\u03c3\u03c3\u03cc\u03c2 Fm 100,6
p4598
ssS'484'
p4599
(dp4600
g848
S'http://mediaserver.mad.tv:33333/madradio'
p4601
sg23
V/logos/gr/mini/madradio.gif
p4602
sg14
V\u0391\u0398\u0397\u039d\u0391
p4603
sg25
V484
p4604
sg18
VMad Radio 106,2
p4605
ssS'482'
p4606
(dp4607
S'url'
p4608
S'http://s3.onweb.gr:8438'
p4609
sg23
V/logos/gr/mini/radioclub.gif
p4610
sg14
V\u03a4\u03a1\u0399\u039a\u0391\u039b\u0391
p4611
sg25
V482
p4612
sg18
V\u039b\u03ad\u03c3\u03c7\u03b7 97,6
p4613
ssS'480'
p4614
(dp4615
g4608
S'http://46.4.65.194:8025'
p4616
sg23
V/logos/gr/mini/star929.gif
p4617
sg14
V\u039d\u0391\u03a5\u03a0\u039b\u0399\u039f
p4618
sg25
V480
p4619
sg18
VStar Fm 92,9
p4620
ssS'1807'
p4621
(dp4622
g23
V/logos/gr/mini/nologo.gif
p4623
sg14
V\u0397\u03a1\u0391\u039a\u039b\u0395\u0399\u039f
p4624
sg25
V1807
p4625
sg18
VYouRadio 89
p4626
ssS'1806'
p4627
(dp4628
g4608
S'http://stream.myip.gr:8020'
p4629
sg23
V/logos/gr/mini/cosmos896.gif
p4630
sg14
V\u039a\u0391\u0392\u0391\u039b\u0391
p4631
sg25
V1806
p4632
sg18
VCosmos Fm 92,6
p4633
ssS'1805'
p4634
(dp4635
g4608
S'http://www.streamyourdream.org:8000/urbanradio'
p4636
sg23
V/logos/gr/mini/urbanradiogr.gif
p4637
sg14
VINTERNET RADIO
p4638
sg25
V1805
p4639
sg18
VUrban Radio 
p4640
ssS'1804'
p4641
(dp4642
g4608
S'http://listen.radionomy.com/midnight-events-radio.m3u'
p4643
sg23
V/logos/gr/mini/midnightevents.gif
p4644
sg14
VINTERNET RADIO
p4645
sg25
V1804
p4646
sg18
VMidnight Events Radio 
p4647
ssS'1803'
p4648
(dp4649
g4608
S'http://eco.onestreaming.com:8079'
p4650
sg23
V/logos/gr/mini/bangee.gif
p4651
sg14
V\u039b\u0391\u03a1\u0399\u03a3\u0391
p4652
sg25
V1803
p4653
sg18
VBangee 
p4654
ssS'1802'
p4655
(dp4656
g848
S'http://s3.onweb.gr:8454'
p4657
sg23
V/logos/gr/mini/superfm896.gif
p4658
sg14
V\u03a7\u0391\u039d\u0399\u0391
p4659
sg25
V1802
p4660
sg18
VSuper FM 89,6
p4661
ssS'1801'
p4662
(dp4663
g23
V/logos/gr/mini/sportfmvolos.gif
p4664
sg14
V\u0392\u039f\u039b\u039f\u03a3
p4665
sg25
V1801
p4666
sg18
VSport FM 89,5
p4667
ssS'1860'
p4668
(dp4669
g23
V/logos/gr/mini/inathensgreek.gif
p4670
sg14
VINTERNET RADIO
p4671
sg25
V1860
p4672
sg18
VIn Athens Greek Radio 
p4673
ssS'1714'
p4674
(dp4675
g848
S'http://live.camstreams.com/misconfig.wmv'
p4676
sg23
V/logos/gr/mini/sfinakiafm.gif
p4677
sg14
V
sg25
V1714
p4678
sg18
V\u03a3\u03c6\u03b7\u03bd\u03ac\u03ba\u03b9\u03b1 FM 97,3
p4679
ssS'1809'
p4680
(dp4681
g848
S'http://legacy-100-ams.servers.mediacdn.com/mea-limnos'
p4682
sg23
V/logos/gr/mini/nologo.gif
p4683
sg14
V\u039b\u0397\u039c\u039d\u039f\u03a3
p4684
sg25
V1809
p4685
sg18
V\u039c.\u0395.\u0391.\u03a3 \u03a1\u03ac\u03b4\u03b9\u03bf \u039b\u03ae\u03bc\u03bd\u03bf\u03c2 98
p4686
ssS'1808'
p4687
(dp4688
g23
V/logos/gr/mini/nologo.gif
p4689
sg14
V\u0395\u039b\u0391\u03a3\u03a3O\u039d\u0391
p4690
sg25
V1808
p4691
sg18
V\u0397 \u03a6\u03c9\u03bd\u03ae \u03c4\u03b7\u03c2 \u0395\u03bb\u03b1\u03c3\u03c3\u03cc\u03bd\u03b1\u03c2 
p4692
ssS'472'
p4693
(dp4694
g848
S'http://live.onestreaming.com/bestmytilini'
p4695
sg23
V/logos/gr/mini/bestmytilini.gif
p4696
sg14
V\u039c\u03a5\u03a4\u0399\u039b\u0397\u039d\u0397
p4697
sg25
V472
p4698
sg18
VBest Fm 98,1
p4699
ssS'473'
p4700
(dp4701
g23
V/logos/gr/mini/topfmioannina.gif
p4702
sg14
V\u0399\u03a9\u0391\u039d\u039d\u0399\u039d\u0391
p4703
sg25
V473
p4704
sg18
VTop Fm 
p4705
ssS'2000'
p4706
(dp4707
g4608
S'http://72.55.146.84:8020'
p4708
sg23
V/logos/gr/mini/sierakozani.gif
p4709
sg14
V\u03a3\u0399\u0391\u03a4\u0399\u03a3\u03a4\u0391
p4710
sg25
V2000
p4711
sg18
VSiera FM 105,3
p4712
ssS'2001'
p4713
(dp4714
g4608
S'http://s7.onweb.gr:8552'
p4715
sg23
V/logos/gr/mini/myradiokarditsa.gif
p4716
sg14
V\u039a\u0391\u03a1\u0394\u0399\u03a4\u03a3\u0391
p4717
sg25
V2001
p4718
sg18
VMy Radio 
p4719
ssS'2006'
p4720
(dp4721
g23
V/logos/gr/mini/nologo.gif
p4722
sg14
VINTERNET RADIO
p4723
sg25
V2006
p4724
sg18
VSok Radio 
p4725
ssS'2007'
p4726
(dp4727
g23
V/logos/gr/mini/nologo.gif
p4728
sg14
VINTERNET RADIO
p4729
sg25
V2007
p4730
sg18
VRadio Isart 
p4731
ssS'2004'
p4732
(dp4733
g23
V/logos/gr/mini/beton7art.gif
p4734
sg14
VINTERNET RADIO
p4735
sg25
V2004
p4736
sg18
VBeton7 Art Radio 
p4737
ssS'2008'
p4738
(dp4739
g848
S'http://live.onestreaming.com/armonia'
p4740
sg23
V/logos/gr/mini/armonia.gif
p4741
sg14
V\u0391\u0398\u0397\u039d\u0391
p4742
sg25
V2008
p4743
sg18
V\u0391\u03c1\u03bc\u03bf\u03bd\u03af\u03b1 
p4744
ssS'2009'
p4745
(dp4746
g4608
S'http://174.142.22.74:8281'
p4747
sg23
V/logos/gr/mini/monkeygr.gif
p4748
sg14
VINTERNET RADIO
p4749
sg25
V2009
p4750
sg18
VMonkey Webradio  
p4751
ssS'1864'
p4752
(dp4753
g4608
S'http://stream.myip.gr:8054'
p4754
sg23
V/logos/gr/mini/venusthess.gif
p4755
sg14
V\u0398\u0395\u03a3\u03a3\u0391\u039b\u039f\u039d\u0399\u039a\u0397
p4756
sg25
V1864
p4757
sg18
VVenus 91,1
p4758
ss.