(dp1
S'452'
p2
(dp3
S'city'
p4
V\u039e\u0391\u039d\u0398\u0397
p5
sS'cn'
p6
S'xanthidj'
p7
sS'title'
p8
VXanthi DeeJay 90,6
p9
sS'url'
p10
S'http://s1.onweb.gr:8402'
p11
sS'weblink'
p12
g11
sS'logo'
p13
V/logos/gr/mini/xanthidj.gif
p14
sS'id'
p15
V452
p16
ssS'1948'
p17
(dp18
g4
VINTERNET RADIO
p19
sg6
S'patata'
p20
sg8
VRadio Patata 
p21
sg10
S'http://50.7.243.50:8082'
p22
sg12
g22
sg13
V/logos/gr/mini/patata.gif
p23
sg15
V1948
p24
ssS'1942'
p25
(dp26
g4
V\u0391\u0393\u03a1\u0399\u039d\u0399\u039f
p27
sg6
S'spaceagrinio'
p28
sg8
VSpace FM 107
p29
sg10
S'http://188.40.131.14:8004'
p30
sg12
g30
sg13
V/logos/gr/mini/spaceagrinio.gif
p31
sg15
V1942
p32
ssS'1943'
p33
(dp34
g4
VINTERNET RADIO
p35
sg6
S'radioclick'
p36
sg8
VDJ Vasilis WebRadio 
p37
sg10
S'http://176.9.35.49:9875'
p38
sg12
g38
sg13
V/logos/gr/mini/djvasilis.gif
p39
sg15
V1943
p40
ssS'1940'
p41
(dp42
g4
VINTERNET RADIO
p43
sg6
S'kapsimiwr'
p44
sg8
VKapsimi WR 
p45
sg10
S'http://78.129.142.4:8264'
p46
sg12
g46
sg13
V/logos/gr/mini/kapsimiwr.gif
p47
sg15
V1940
p48
ssS'1946'
p49
(dp50
g4
VINTERNET RADIO
p51
sg6
S'radio10'
p52
sg8
VRadio 10 
p53
sg10
S'http://live.onestreaming.com/radio10'
p54
sg12
g54
sg13
V/logos/gr/mini/radio10.gif
p55
sg15
V1946
p56
ssS'1944'
p57
(dp58
g4
V\u0391\u0398\u0397\u039d\u0391
p59
sg6
S'existon'
p60
sg8
VExiston Radio 
p61
sg10
S'http://eco.onestreaming.com:8201'
p62
sg12
g62
sg13
V/logos/gr/mini/existon.gif
p63
sg15
V1944
p64
ssS'1945'
p65
(dp66
g4
VINTERNET RADIO
p67
sg6
S'starwalkersng'
p68
sg8
VStarwalkers New Generation 
p69
sg10
S'http://208.43.115.44:9178'
p70
sg12
g70
sg13
V/logos/gr/mini/starwalkersng.gif
p71
sg15
V1945
p72
ssS'345'
p73
(dp74
g4
V\u03a7\u0391\u039b\u039a\u0399\u0394\u0391
p75
sg6
S'justradio'
p76
sg8
VJust Radio 93
p77
sg10
S'http://legacy-100-ams.servers.mediacdn.com/justradio'
p78
sg12
g78
sg13
V/logos/gr/mini/justradio.gif
p79
sg15
V345
p80
ssS'341'
p81
(dp82
g4
V\u0397\u03a1\u0391\u039a\u039b\u0395\u0399\u039f
p83
sg6
S'melodyfm'
p84
sg8
VMelody Fm 98,7
p85
sg10
S'http://94.75.200.140/melody'
p86
sg12
g86
sg13
V/logos/gr/mini/melodyfm.gif
p87
sg15
V341
p88
ssS'348'
p89
(dp90
g4
V\u0397\u03a1\u0391\u039a\u039b\u0395\u0399\u039f
p91
sg6
S'trafficfm'
p92
sg8
VTraffic FM 91,8
p93
sg10
S'http://s5.onweb.gr:8506'
p94
sg12
g94
sg13
V/logos/gr/mini/trafficfm.gif
p95
sg15
V348
p96
ssS'817'
p97
(dp98
g4
V\u039a\u039f\u03a1\u0399\u039d\u0398\u039f\u03a3
p99
sg6
S'myradionet'
p100
sg8
VMy Radio 89,6
p101
sg10
S'http://live.onestreaming.com/myradionet'
p102
sg12
g102
sg13
V/logos/gr/mini/myradionet.gif
p103
sg15
V817
p104
ssS'1799'
p105
(dp106
g4
VINTERNET RADIO
p107
sg6
S'radioenaau'
p108
sg8
VRadio ENA 87,6
p109
sg10
S'http://media.on.net/radio/51.m3u'
p110
sg12
g110
sg13
V/logos/gr/mini/radioenaau.gif
p111
sg15
V1799
p112
ssS'1798'
p113
(dp114
g4
V\u0395\u039b\u0391\u03a3\u03a3O\u039d\u0391
p115
sg6
S'party971'
p116
sg8
VParty 97,1
p117
sg10
S'http://s1.onweb.gr:8824'
p118
sg12
g118
sg13
V/logos/gr/mini/party971.gif
p119
sg15
V1798
p120
ssS'718'
p121
(dp122
g4
V\u039b\u0391\u03a1\u0399\u03a3\u0391
p123
sg6
S'avantifm'
p124
sg8
VAvanti Fm 107,6
p125
sg10
S'http://avantifm.live24.gr/avantifm'
p126
sg12
g126
sg13
V/logos/gr/mini/avantifm.gif
p127
sg15
V718
p128
ssS'1793'
p129
(dp130
g4
V\u039f\u03a1\u0395\u03a3\u03a4\u0399\u0391\u0394\u0391
p131
sg6
S'mad107orest'
p132
sg8
VKiss 107
p133
sg10
S'http://shout.streamwithq.gr:4126'
p134
sg12
g134
sg13
V/logos/gr/mini/kiss107orest.gif
p135
sg15
V1793
p136
ssS'716'
p137
(dp138
g4
V\u03a0\u0391\u03a4\u03a1\u0391
p139
sg6
S'radiopatra'
p140
sg8
VRadio \u03a0\u03ac\u03c4\u03c1\u03b1 106,5
p141
sg10
S'http://174.142.32.91:9200'
p142
sg12
g142
sg13
V/logos/gr/mini/radiopatra.gif
p143
sg15
V716
p144
ssS'1791'
p145
(dp146
g4
V\u039a\u039f\u03a1\u0399\u039d\u0398\u039f\u03a3
p147
sg6
S'kappa879'
p148
sg8
VKappa Radio 87,9
p149
sg10
S'http://s3.onweb.gr:8086'
p150
sg12
g150
sg13
V/logos/gr/mini/nologo.gif
p151
sg15
V1791
p152
ssS'714'
p153
(dp154
g4
V\u039a\u0391\u03a1\u03a0\u0395\u039d\u0397\u03a3\u0399
p155
sg6
S'karpenisi'
p156
sg8
V\u03a1\u03ac\u03b4\u03b9\u03bf \u039a\u03b1\u03c1\u03c0\u03b5\u03bd\u03ae\u03c3\u03b9 97,5
p157
sg10
S'http://live.onestreaming.com/karpenisi'
p158
sg12
g158
sg13
V/logos/gr/mini/karpenisi.gif
p159
sg15
V714
p160
ssS'1797'
p161
(dp162
g4
V\u0391\u039b\u0395\u039e\u0391\u039d\u0394\u03a1\u039f\u03a5\u03a0\u039f\u039b\u0397
p163
sg6
S'noise978'
p164
sg8
VNoise Radio 97,8
p165
sg10
S'http://ams01.egihosting.com:4240'
p166
sg12
g166
sg13
V/logos/gr/mini/noise978.gif
p167
sg15
V1797
p168
ssS'1796'
p169
(dp170
g4
V\u0391\u0398\u0397\u039d\u0391
p171
sg6
S'musicradiogr'
p172
sg8
VMusicRadio.Gr 
p173
sg10
S'http://musicradio.mediabox.gr/musicradio'
p174
sg12
g174
sg13
V/logos/gr/mini/musicradiogr.gif
p175
sg15
V1796
p176
ssS'1795'
p177
(dp178
g4
V\u0391\u0398\u0397\u039d\u0391
p179
sg6
S'moreradio'
p180
sg8
VMoreradio 
p181
sg10
S'http://96.30.20.193:8008'
p182
sg12
g182
sg13
V/logos/gr/mini/moreradio.gif
p183
sg15
V1795
p184
ssS'710'
p185
(dp186
g4
V\u03a3\u03a0\u0391\u03a1\u03a4\u0397
p187
sg6
S'ant1south'
p188
sg8
VAntenna \u039d.\u0395\u03bb\u03bb\u03ac\u03b4\u03b1\u03c2 97,1
p189
sg10
S'http://live.onestreaming.com/ant1south'
p190
sg12
g190
sg13
V/logos/gr/mini/ant1south.gif
p191
sg15
V710
p192
ssS'478'
p193
(dp194
g4
V\u0398\u0395\u03a3\u03a3\u0391\u039b\u039f\u039d\u0399\u039a\u0397
p195
sS'cn'
p196
S'republic'
p197
sg8
VRepublic 100,3
p198
sS'url'
p199
S'http://streamx2.greekradios.gr:8000'
p200
sS'weblink'
p201
g200
sg13
V/logos/gr/mini/republic.gif
p202
sg15
V478
p203
ssS'914'
p204
(dp205
g4
VINTERNET RADIO
p206
sg196
S'popi'
p207
sg8
VPop-I 
p208
sg199
S'http://eco.onestreaming.com:8340'
p209
sg201
g209
sg13
V/logos/gr/mini/popi.gif
p210
sg15
V914
p211
ssS'1069'
p212
(dp213
g4
V\u039a\u039f\u039c\u039f\u03a4H\u039d\u0397
p214
sg6
S'radiorodopi'
p215
sg8
V\u03a1\u03ac\u03b4\u03b9\u03bf \u03a1\u03bf\u03b4\u03cc\u03c0\u03b7 95,5
p216
sg10
S'http://173.236.59.82:8060'
p217
sg12
g217
sg13
V/logos/gr/mini/radiorodopi.gif
p218
sg15
V1069
p219
ssS'1702'
p220
(dp221
g13
V/logos/cy/mini/mostra.gif
p222
sg4
VINTERNET RADIO
p223
sg15
V1702
p224
sg8
VRadio Mostra 
p225
ssS'1706'
p226
(dp227
S'url'
p228
S'http://golive.onestreaming.com/akousgazi'
p229
sg13
V/logos/gr/mini/akous_gazi.gif
p230
sg4
V\u0391\u0398\u0397\u039d\u0391
p231
sg15
V1706
p232
sg8
VAkous. Gazi 
p233
ssS'1707'
p234
(dp235
g228
S'http://golive.onestreaming.com/akousstage'
p236
sg13
V/logos/gr/mini/akousstage_edgar.gif
p237
sg4
V\u0391\u0398\u0397\u039d\u0391
p238
sg15
V1707
p239
sg8
VAkous. Edgar's Stage 
p240
ssS'1708'
p241
(dp242
g228
S'http://golive.onestreaming.com/akousdeluxe'
p243
sg13
V/logos/gr/mini/akous_domoteldeluxe.gif
p244
sg4
V\u0391\u0398\u0397\u039d\u0391
p245
sg15
V1708
p246
sg8
VAkous.Domotel Deluxe 
p247
ssS'1709'
p248
(dp249
g228
S'http://golive.onestreaming.com/akous80s'
p250
sg13
V/logos/gr/mini/akous_80s.gif
p251
sg4
V\u0391\u0398\u0397\u039d\u0391
p252
sg15
V1709
p253
sg8
VAkous. 80s 
p254
ssS'1066'
p255
(dp256
g4
V\u039a\u0391\u0392\u0391\u039b\u0391
p257
sS'cn'
p258
S'proini937'
p259
sg8
V\u03a1\u03ac\u03b4\u03b9\u03bf \u03a0\u03c1\u03c9\u03ca\u03bd\u03ae 93,7
p260
sS'url'
p261
S'http://62.103.31.151:8000'
p262
sS'weblink'
p263
g262
sg13
V/logos/gr/mini/proini937.gif
p264
sg15
V1066
p265
ssS'913'
p266
(dp267
S'url'
p268
S'http://eco.onestreaming.com:8168'
p269
sg13
V/logos/gr/mini/radioinlaiko.gif
p270
sg4
VINTERNET RADIO
p271
sg15
V913
p272
sg8
VRadioIn \u039b\u03b1\u03ca\u03ba\u03cc 
p273
ssS'298'
p274
(dp275
g4
V\u03a3\u03a5\u039c\u0397
p276
sg258
S'starradio1078'
p277
sg8
VStar Radio 107,8
p278
sg261
S'http://starradio.no-ip.biz:2380'
p279
sg263
g279
sg13
V/logos/gr/mini/starradio1078.gif
p280
sg15
V298
p281
ssS'299'
p282
(dp283
g4
V\u039a\u0391\u0392\u0391\u039b\u0391
p284
sg258
S'energy988'
p285
sg8
VRadio Energy 96,6
p286
sg261
S'http://liveradio.energy966.com:8008'
p287
sg263
g287
sg13
V/logos/gr/mini/energy988.gif
p288
sg15
V299
p289
ssS'296'
p290
(dp291
g4
V\u03a7\u0391\u039b\u039a\u0399\u0394\u0391
p292
sg258
S'dalkas'
p293
sg8
VDalkas 88,2
p294
sg261
S'http://78.46.66.215:8007'
p295
sg263
g295
sg13
V/logos/gr/mini/dalkas.gif
p296
sg15
V296
p297
ssS'295'
p298
(dp299
S'url'
p300
S'http://stream2.greekradios.gr:8012'
p301
sg13
V/logos/gr/mini/elladafm.gif
p302
sg4
V\u0391\u039b\u0395\u039e\u0391\u039d\u0394\u03a1\u039f\u03a5\u03a0\u039f\u039b\u0397
p303
sg15
V295
p304
sg8
V\u0395\u03bb\u03bb\u03ac\u03b4\u03b1 FM 98,7
p305
ssS'292'
p306
(dp307
g13
V/logos/gr/mini/VFM.gif
p308
sg4
V\u0391\u0398\u0397\u039d\u0391
p309
sg15
V292
p310
sg8
VVFM 88,3
p311
ssS'293'
p312
(dp313
g300
S'http://91.132.6.21:8005'
p314
sg13
V/logos/gr/mini/lampsifm.gif
p315
sg4
V\u0391\u0398\u0397\u039d\u0391
p316
sg15
V293
p317
sg8
V\u039b\u03ac\u03bc\u03c8\u03b7 92,3
p318
ssS'290'
p319
(dp320
g300
S'http://174.36.237.66:8220'
p321
sg13
V/logos/gr/mini/rythmos1038.gif
p322
sg4
V\u0391\u03a1\u0393\u039f\u03a3
p323
sg15
V290
p324
sg8
V\u03a1\u03c5\u03b8\u03bc\u03cc\u03c2 Fm 103,8
p325
ssS'198'
p326
(dp327
g228
S'http://metro903.live24.gr/metro903-1000'
p328
sg13
V/logos/gr/mini/metro903.gif
p329
sg4
V\u039b\u0391\u039c\u0399\u0391
p330
sg15
V198
p331
sg8
VMetro Fm 90,3
p332
ssS'195'
p333
(dp334
g300
S'http://eco.onestreaming.com:8107'
p335
sg13
V/logos/gr/mini/kastoriafm.gif
p336
sg4
V\u039a\u0391\u03a3\u03a4\u039f\u03a1\u0399\u0391
p337
sg15
V195
p338
sg8
V\u039a\u03b1\u03c3\u03c4\u03bf\u03c1\u03b9\u03ac Fm 91,5
p339
ssS'194'
p340
(dp341
g228
S'http://rs2.radiostreamer.com/radioalfa'
p342
sg13
V/logos/gr/mini/alfa.gif
p343
sg4
V\u0391\u039b\u0395\u039e\u0391\u039d\u0394\u03a1\u039f\u03a5\u03a0\u039f\u039b\u0397
p344
sg15
V194
p345
sg8
V\u0391\u03bb\u03c6\u03b1 104
p346
ssS'196'
p347
(dp348
g228
S'http://live.onestreaming.com/lihnari'
p349
sg13
V/logos/gr/mini/lihnari.gif
p350
sg4
V\u03a1\u039f\u0394\u039f\u03a3
p351
sg15
V196
p352
sg8
V\u039b\u03c5\u03c7\u03bd\u03ac\u03c1\u03b9 91,7
p353
ssS'190'
p354
(dp355
g228
S'http://stream.1045.gr/1045fm/'
p356
sg13
V/logos/gr/mini/rythmoscrete.gif
p357
sg4
V\u0397\u03a1\u0391\u039a\u039b\u0395\u0399\u039f
p358
sg15
V190
p359
sg8
V\u03a1\u03c5\u03b8\u03bc\u03cc\u03c2 104,5
p360
ssS'193'
p361
(dp362
g228
S'http://hotmedia.gr:8086/magicfm'
p363
sg13
V/logos/gr/mini/magicfm.gif
p364
sg4
V\u03a7\u0391\u039d\u0399\u0391
p365
sg15
V193
p366
sg8
VMagic Fm 98,2
p367
ssS'192'
p368
(dp369
g228
S'http://live.onestreaming.com/hxofm'
p370
sg13
V/logos/gr/mini/hxofm.gif
p371
sg4
V\u039b\u0391\u03a3\u0399\u0398\u0399
p372
sg15
V192
p373
sg8
V\u0397\u03c7\u03ce Fm 99,8
p374
ssS'270'
p375
(dp376
g13
V/logos/gr/mini/sfera966.gif
p377
sg4
V\u03a0\u0391\u03a4\u03a1\u0391
p378
sg15
V270
p379
sg8
VSfera 96,6
p380
ssS'19'
p381
(dp382
g268
S'http://fm1.teicrete.gr:8000/live'
p383
sg13
V/logos/gr/mini/teifm1.gif
p384
sg4
V\u0397\u03a1\u0391\u039a\u039b\u0395\u0399\u039f
p385
sg15
V19
p386
sg8
VStudio Fm1 105,4
p387
ssS'275'
p388
(dp389
S'url'
p390
S'http://hotmedia.gr:8086/teamfm'
p391
sg13
V/logos/gr/mini/teamfm.gif
p392
sg4
V\u03a1\u0395\u0398\u03a5\u039c\u039d\u039f
p393
sg15
V275
p394
sg8
VTeam Fm 102
p395
ssS'279'
p396
(dp397
g13
V/logos/gr/mini/arisfm.gif
p398
sg4
V\u0398\u0395\u03a3\u03a3\u0391\u039b\u039f\u039d\u0399\u039a\u0397
p399
sg15
V279
p400
sg8
V\u0386\u03c1\u03b7\u03c2 Fm 92,8
p401
ssS'524'
p402
(dp403
g268
S'http://85.17.30.90:9986'
p404
sg13
V/logos/gr/mini/ixorama.gif
p405
sg4
V\u039a\u0391\u03a1\u0394\u0399\u03a4\u03a3\u0391
p406
sg15
V524
p407
sg8
V\u0397\u03c7\u03cc\u03c1\u03b1\u03bc\u03b1 Radio 100,8
p408
ssS'525'
p409
(dp410
g268
S'http://s1.onweb.gr:8040'
p411
sg13
V/logos/gr/mini/rizites.gif
p412
sg4
V\u039a\u0391\u03a3\u03a4\u0395\u039bI
p413
sg15
V525
p414
sg8
VRadio \u03a1\u03b9\u03b6\u03af\u03c4\u03b5\u03c2 92,4
p415
ssS'526'
p416
(dp417
g268
S'http://78.47.56.126:8032'
p418
sg13
V/logos/gr/mini/radiosamothraki.gif
p419
sg4
V\u03a3\u0391\u039c\u039f\u0398\u03a1\u0391\u039a\u0397
p420
sg15
V526
p421
sg8
VRadio \u03a3\u03b1\u03bc\u03bf\u03b8\u03c1\u03ac\u03ba\u03b7 101,9
p422
ssS'520'
p423
(dp424
g390
S'http://stream-push2.live24.gr/sky1007'
p425
sg13
V/logos/gr/mini/skyfm1007.gif
p426
sg4
V\u039f\u03a1\u0395\u03a3\u03a4\u0399\u0391\u0394\u0391
p427
sg15
V520
p428
sg8
VSky Fm 100,7
p429
ssS'521'
p430
(dp431
g13
V/logos/gr/mini/radiothesprotia.gif
p432
sg4
V\u03a0\u0391\u03a1\u0391\u039c\u03a5\u0398\u0399\u0391
p433
sg15
V521
p434
sg8
VRadio Thesprotia 97,2
p435
ssS'523'
p436
(dp437
S'url'
p438
S'http://s6.onweb.gr:8012'
p439
sg13
V/logos/gr/mini/topfmvolos.gif
p440
sg4
V\u0392\u039f\u039b\u039f\u03a3
p441
sg15
V523
p442
sg8
VTop Fm 106,4
p443
ssS'528'
p444
(dp445
g13
V/logos/gr/mini/orestidos.gif
p446
sg4
V\u0391\u03a1\u0393\u039f\u03a3 \u039f\u03a1\u0395\u03a3\u03a4\u0399\u039a\u039f
p447
sg15
V528
p448
sg8
VRadio Argos Orestiko 97,4
p449
ssS'529'
p450
(dp451
g438
S'http://eco.onestreaming.com:8083'
p452
sg13
V/logos/gr/mini/sunshine1077.gif
p453
sg4
V\u0398\u0395\u03a3\u03a3\u0391\u039b\u039f\u039d\u0399\u039a\u0397
p454
sg15
V529
p455
sg8
VSunshine Fm 107,7
p456
ssS'1012'
p457
(dp458
g438
S'http://46.4.8.222:9998'
p459
sg13
V/logos/gr/mini/octava.gif
p460
sg4
V\u0391\u0398\u0397\u039d\u0391
p461
sg15
V1012
p462
sg8
VOctava Radio 
p463
ssS'449'
p464
(dp465
g13
V/logos/gr/mini/metro1054.gif
p466
sg4
V\u03a7\u0391\u039d\u0399\u0391
p467
sg15
V449
p468
sg8
V\u03a1\u03ac\u03b4\u03b9\u03bf Metro 105,4
p469
ssS'448'
p470
(dp471
g438
S'http://70.38.101.150:8004'
p472
sg13
V/logos/gr/mini/divaradio.gif
p473
sg4
V\u039a\u039f\u0396\u0391\u039d\u0397
p474
sg15
V448
p475
sg8
VDiva Radio 91,6
p476
ssS'1233'
p477
(dp478
S'url'
p479
S'http://captainjack.live24.gr/captainjack9660'
p480
sg13
V/logos/gr/mini/pepper966.gif
p481
sg4
V\u0391\u0398\u0397\u039d\u0391
p482
sg15
V1233
p483
sg8
VPepper 96,6
p484
ssS'447'
p485
(dp486
g438
S'http://72.55.146.84:8002'
p487
sg13
V/logos/gr/mini/kardia.gif
p488
sg4
V\u039a\u039f\u0396\u0391\u039d\u0397
p489
sg15
V447
p490
sg8
V\u0395\u03c1\u03c9\u03c4\u03b9\u03ba\u03cc 99,5
p491
ssS'1239'
p492
(dp493
g13
V/logos/gr/mini/nologo.gif
p494
sg4
V\u039a\u0391\u039b\u0391\u039c\u0391\u03a4\u0391
p495
sg15
V1239
p496
sg8
VDiasNews 
p497
ssS'108'
p498
(dp499
g479
S'http://a999.l3271920998.c32719.g.lm.akamaistream.net/D/999/32719/v0001/reflector:20998'
p500
sg13
V/logos/gr/mini/VOG.gif
p501
sg4
V\u0391\u0398\u0397\u039d\u0391
p502
sg15
V108
p503
sg8
V\u0395\u03a1\u0391 \u03a6\u03c9\u03bd\u03ae \u03c4\u03b7\u03c2 \u0395\u03bb\u03bb\u03ac\u03b4\u03b1\u03c2 
p504
ssS'109'
p505
(dp506
g479
S'http://a1113.l3271935112.c32719.g.lm.akamaistream.net/D/1113/32719/v0001/reflector:35112'
p507
sg13
V/logos/gr/mini/erasport.gif
p508
sg4
V\u0391\u0398\u0397\u039d\u0391
p509
sg15
V109
p510
sg8
V\u0395\u03a1\u0391 \u03a3\u03c0\u03bf\u03c1 101,8
p511
ssS'102'
p512
(dp513
g13
V/logos/gr/mini/Red.gif
p514
sg4
V\u0391\u0398\u0397\u039d\u0391
p515
sg15
V102
p516
sg8
VRed 96,3
p517
ssS'103'
p518
(dp519
g13
V/logos/gr/mini/skai.gif
p520
sg4
V\u0391\u0398\u0397\u039d\u0391
p521
sg15
V103
p522
sg8
V\u03a3\u03ba\u03ac\u03ca Radio 100,3
p523
ssS'100'
p524
(dp525
g13
V/logos/gr/mini/heartfm.gif
p526
sg4
V\u0398\u0395\u03a3\u03a3\u0391\u039b\u039f\u039d\u0399\u039a\u0397
p527
sg15
V100
p528
sg8
VHeart Fm 93,1
p529
ssS'101'
p530
(dp531
g479
S'http://radiogold.live24.gr/radiogold'
p532
sg13
V/logos/gr/mini/Gold.gif
p533
sg4
V\u0391\u0398\u0397\u039d\u0391
p534
sg15
V101
p535
sg8
VRadio Gold 
p536
ssS'106'
p537
(dp538
g479
S'http://flash.live24.gr/flash5252'
p539
sg13
V/logos/gr/mini/flash.gif
p540
sg4
V\u0391\u0398\u0397\u039d\u0391
p541
sg15
V106
p542
sg8
VFlash 96
p543
ssS'107'
p544
(dp545
g13
V/logos/gr/mini/athina984.gif
p546
sg4
V\u0391\u0398\u0397\u039d\u0391
p547
sg15
V107
p548
sg8
V\u0391\u03b8\u03ae\u03bd\u03b1 984 98,3
p549
ssS'104'
p550
(dp551
g13
V/logos/gr/mini/radio9ath.gif
p552
sg4
V\u0391\u0398\u0397\u039d\u0391
p553
sg15
V104
p554
sg8
VRADIO 9 98,9
p555
ssS'105'
p556
(dp557
g479
S'http://a1709.l3271943708.c32719.g.lm.akamaistream.net/D/1709/32719/v0001/reflector:43708'
p558
sg13
V/logos/gr/mini/eranet.gif
p559
sg4
V\u0391\u0398\u0397\u039d\u0391
p560
sg15
V105
p561
sg8
V\u0395\u03a1\u0391 \u039d\u0395\u03a4 105,8
p562
ssS'902'
p563
(dp564
g13
V/logos/gr/mini/nologo.gif
p565
sg4
V\u03a1\u0395\u0398\u03a5\u039c\u039d\u039f
p566
sg15
V902
p567
sg8
V\u03a1\u03ac\u03b4\u03b9\u03bf \u03a5\u03c0\u03ac\u03c1\u03c7\u03c9 103,7
p568
ssS'1849'
p569
(dp570
S'url'
p571
S'http://eco.onestreaming.com:8091'
p572
sg13
V/logos/gr/mini/syxnotita102.gif
p573
sg4
V\u0391\u0399\u0393\u0399\u039f
p574
sg15
V1849
p575
sg8
V\u03a1\u03ac\u03b4\u03b9\u03bf \u03a3\u03c5\u03c7\u03bd\u03cc\u03c4\u03b7\u03c4\u03b1 100,7
p576
ssS'901'
p577
(dp578
g571
S'http://s5.onweb.gr:8070'
p579
sg13
V/logos/gr/mini/kriti1003.gif
p580
sg4
V\u0397\u03a1\u0391\u039a\u039b\u0395\u0399\u039f
p581
sg15
V901
p582
sg8
V\u039a\u03c1\u03ae\u03c4\u03b7 Fm 100,3
p583
ssS'906'
p584
(dp585
g571
S'http://78.46.46.214:7054'
p586
sg13
V/logos/gr/mini/trifylias.gif
p587
sg4
V\u039a\u03a5\u03a0\u0391\u03a1\u0399\u03a3\u03a3\u0399\u0391
p588
sg15
V906
p589
sg8
V\u03a1\u03b1\u03b4\u03b9\u03bf\u03c6\u03c9\u03bd\u03af\u03b1 \u03a4\u03c1\u03b9\u03c6\u03c5\u03bb\u03af\u03b1\u03c2 101,3
p590
ssS'904'
p591
(dp592
g571
S'http://eco.onestreaming.com:8238'
p593
sg13
V/logos/gr/mini/sferaargolida.gif
p594
sg4
V\u039d\u0391\u03a5\u03a0\u039b\u0399\u039f
p595
sg15
V904
p596
sg8
VSfera 94,1
p597
ssS'905'
p598
(dp599
g571
S'http://46.4.65.194:8015'
p600
sg13
V/logos/gr/mini/galaxy1061.gif
p601
sg4
V\u03a0\u0391\u03a4\u03a1\u0391
p602
sg15
V905
p603
sg8
VGalaxy 106,1
p604
ssS'1843'
p605
(dp606
g571
S'http://www.streamyourdream.org:8012/kiss98'
p607
sg13
V/logos/gr/mini/kiss98.gif
p608
sg4
V\u0392\u039f\u039b\u039f\u03a3
p609
sg15
V1843
p610
sg8
VKiss 98
p611
ssS'908'
p612
(dp613
g571
S'http://eco.onestreaming.com:8257'
p614
sg13
V/logos/gr/mini/star955.gif
p615
sg4
V\u039d\u0395\u0391 \u039c\u039f\u03a5\u0394\u0391\u039d\u0399\u0391
p616
sg15
V908
p617
sg8
VRadio Star 95,5
p618
ssS'30'
p619
(dp620
g571
S'http://eco.onestreaming.com:8209'
p621
sg13
V/logos/gr/mini/coolfm.gif
p622
sg4
V\u03a1\u0395\u0398\u03a5\u039c\u039d\u039f
p623
sg15
V30
p624
sg8
VCool Fm 106,8
p625
ssS'1847'
p626
(dp627
g571
S'http://www.radiodistomo.gr:9420'
p628
sg13
V/logos/gr/mini/nologo.gif
p629
sg4
V\u039b\u0399\u0392\u0391\u0394\u0395\u0399\u0391
p630
sg15
V1847
p631
sg8
V\u03a1\u0391\u0394\u0399\u039f \u0394\u0399\u03a3\u03a4\u039f\u039c\u039f 106,1
p632
ssS'1846'
p633
(dp634
g479
S'http://legacy-100-ams.servers.mediacdn.com/mfm102-7-patra'
p635
sg13
V/logos/gr/mini/mfm1027.gif
p636
sg4
V\u03a0\u0391\u03a4\u03a1\u0391
p637
sg15
V1846
p638
sg8
VMfm 102,7
p639
ssS'1845'
p640
(dp641
g571
S'http://s6.onweb.gr:8020'
p642
sg13
V/logos/gr/mini/paratiritis.gif
p643
sg4
V\u039a\u039f\u039c\u039f\u03a4H\u039d\u0397
p644
sg15
V1845
p645
sg8
V\u03a1\u03ac\u03b4\u03b9\u03bf \u03a0\u03b1\u03c1\u03b1\u03c4\u03b7\u03c1\u03b7\u03c4\u03ae\u03c2 94
p646
ssS'640'
p647
(dp648
g479
S'http://live.onestreaming.com/cosmos965'
p649
sg13
V/logos/gr/mini/cosmos965.gif
p650
sg4
V\u0391\u03a1\u0393\u039f\u03a3\u03a4\u039f\u039b\u0399
p651
sg15
V640
p652
sg8
V\u039a\u03cc\u03c3\u03bc\u03bf\u03c2 96,5
p653
ssS'1930'
p654
(dp655
S'url'
p656
S'http://204.45.6.58:8081'
p657
sg13
V/logos/gr/mini/kissdance.gif
p658
sg4
VINTERNET RADIO
p659
sg15
V1930
p660
sg8
VKiss Danceradio 
p661
ssS'644'
p662
(dp663
g571
S'http://s6.onweb.gr:8034'
p664
sg13
V/logos/gr/mini/radiomires.gif
p665
sg4
V\u0397\u03a1\u0391\u039a\u039b\u0395\u0399\u039f
p666
sg15
V644
p667
sg8
V\u03a1\u03ac\u03b4\u03b9\u03bf \u039c\u03bf\u03af\u03c1\u03b5\u03c2 
p668
ssS'438'
p669
(dp670
g571
S'http://s6.onweb.gr:8048'
p671
sg13
V/logos/gr/mini/musicclub.gif
p672
sg4
V\u0397\u03a1\u0391\u039a\u039b\u0395\u0399\u039f
p673
sg15
V438
p674
sg8
VMusic Club 105,8
p675
ssS'649'
p676
(dp677
g479
S'http://m2.onweb.gr/amorefm'
p678
sg13
V/logos/gr/mini/amorefm.gif
p679
sg4
V\u03a1\u0395\u0398\u03a5\u039c\u039d\u039f
p680
sg15
V649
p681
sg8
VAmore Fm 107,9
p682
ssS'648'
p683
(dp684
g571
S'http://s4.onweb.gr:8414'
p685
sg13
V/logos/gr/mini/media92.gif
p686
sg4
V\u03a3\u03a5\u03a1\u039f\u03a3
p687
sg15
V648
p688
sg8
VMedia 92
p689
ssS'430'
p690
(dp691
g13
V/logos/gr/mini/rodosfm.gif
p692
sg4
V\u03a1\u039f\u0394\u039f\u03a3
p693
sg15
V430
p694
sg8
VRodos Fm 90,7
p695
ssS'431'
p696
(dp697
g479
S'http://oasis.live24.gr/oasis8888'
p698
sg13
V/logos/gr/mini/oasis.gif
p699
sg4
V\u0391\u0398\u0397\u039d\u0391
p700
sg15
V431
p701
sg8
VOasis Fm 88
p702
ssS'1908'
p703
(dp704
g13
V/logos/gr/mini/istiaea.gif
p705
sg4
V\u0399\u03a3\u03a4\u0399\u0391\u0399\u0391
p706
sg15
V1908
p707
sg8
V\u03a1\u03ac\u03b4\u03b9\u03bf \u0399\u03c3\u03c4\u03b9\u03b1\u03af\u03b1 100,4
p708
ssS'1909'
p709
(dp710
g571
S'http://stream.katsiris.net:8080/galaxy1011'
p711
sg13
V/logos/gr/mini/galaxy1011.gif
p712
sg4
V\u03a4\u03a1\u0399\u03a0\u039f\u039b\u0397
p713
sg15
V1909
p714
sg8
VGalaxy FM 101,1
p715
ssS'1907'
p716
(dp717
g13
V/logos/gr/mini/palmos949.gif
p718
sg4
V\u03a7\u0399\u039f\u03a3
p719
sg15
V1907
p720
sg8
V\u03a0\u03b1\u03bb\u03bc\u03cc\u03c2 FM 94,9
p721
ssS'1904'
p722
(dp723
g13
V/logos/gr/mini/mathematikos.gif
p724
sg4
VINTERNET RADIO
p725
sg15
V1904
p726
sg8
VMathimatikos Web Radio 
p727
ssS'1905'
p728
(dp729
g479
S'http://live.onestreaming.com/ogdoo'
p730
sg13
V/logos/gr/mini/ogdoo2.gif
p731
sg4
VINTERNET RADIO
p732
sg15
V1905
p733
sg8
V\u038c\u03b3\u03b4\u03bf\u03bf 
p734
ssS'1902'
p735
(dp736
g571
S'http://eco.onestreaming.com:8135'
p737
sg13
V/logos/gr/mini/donnaradio.gif
p738
sg4
VINTERNET RADIO
p739
sg15
V1902
p740
sg8
VDonna Radio 
p741
ssS'1903'
p742
(dp743
g13
V/logos/gr/mini/radio11025.gif
p744
sg4
V\u0392\u039f\u039b\u039f\u03a3
p745
sg15
V1903
p746
sg8
V\u03a1\u03ac\u03b4\u03b9\u03bf 1 102,5
p747
ssS'1900'
p748
(dp749
g13
V/logos/gr/mini/hxosradio.gif
p750
sg4
VINTERNET RADIO
p751
sg15
V1900
p752
sg8
V\u0389\u03c7\u03bf\u03c2 Radio 
p753
ssS'1901'
p754
(dp755
g571
S'http://208.94.241.26:8000/stream'
p756
sg13
V/logos/gr/mini/intersonik.gif
p757
sg4
VINTERNET RADIO
p758
sg15
V1901
p759
sg8
VIntersonik 
p760
ssS'857'
p761
(dp762
g479
S'http://wm3.greekstream.net/driverfm'
p763
sg13
V/logos/gr/mini/radiodriver.gif
p764
sg4
VINTERNET RADIO
p765
sg15
V857
p766
sg8
VDriver Fm 
p767
ssS'850'
p768
(dp769
g13
V/logos/gr/mini/radiofever.gif
p770
sg4
VINTERNET RADIO
p771
sg15
V850
p772
sg8
VRadio Fever 
p773
ssS'852'
p774
(dp775
g13
V/logos/gr/mini/radioemse.gif
p776
sg4
VINTERNET RADIO
p777
sg15
V852
p778
sg8
VRadio \u0395.\u039c.\u03a3.\u0395. 
p779
ssS'819'
p780
(dp781
g13
V/logos/gr/mini/panorama.gif
p782
sg4
V\u0398\u0395\u03a3\u03a3\u0391\u039b\u039f\u039d\u0399\u039a\u0397
p783
sg15
V819
p784
sg8
V\u03a0\u03b1\u03bd\u03cc\u03c1\u03b1\u03bc\u03b1 98,4
p785
ssS'42'
p786
(dp787
g656
S'http://s5.onweb.gr:8002'
p788
sg13
V/logos/gr/mini/pellafm.gif
p789
sg4
V\u0393\u0399\u0391\u039d\u039d\u0399\u03a4\u03a3\u0391
p790
sg15
V42
p791
sg8
V\u03a0\u03ad\u03bb\u03bb\u03b1 FM 103,2
p792
ssS'859'
p793
(dp794
g13
V/logos/gr/mini/empneusi.gif
p795
sg4
VINTERNET RADIO
p796
sg15
V859
p797
sg8
VEmpneusi Radio 
p798
ssS'6'
(dp799
g13
V/logos/gr/mini/akous_musices.gif
p800
sg4
V\u0398\u0395\u03a3\u03a3\u0391\u039b\u039f\u039d\u0399\u039a\u0397
p801
sg15
V6
sg8
VAkous. MusicES 
p802
ssS'425'
p803
(dp804
g656
S'http://s1.onweb.gr:8836'
p805
sg13
V/logos/gr/mini/liferadio1029.gif
p806
sg4
V\u039a\u0395\u03a1\u039a\u03a5\u03a1\u0391
p807
sg15
V425
p808
sg8
VLife Radio 102,9
p809
ssS'99'
p810
(dp811
g479
S'http://galaxy.live24.gr/galaxy9292'
p812
sg13
V/logos/gr/mini/galaxy92.gif
p813
sg4
V\u0391\u0398\u0397\u039d\u0391
p814
sg15
V99
p815
sg8
VGalaxy 92
p816
ssS'98'
p817
(dp818
g13
V/logos/gr/mini/Radioena.gif
p819
sg4
V\u03a1\u039f\u0394\u039f\u03a3
p820
sg15
V98
p821
sg8
VRadio 1 88
p822
ssS'90'
p823
(dp824
g571
S'http://shout.cosmoradio.gr:8130'
p825
sg13
V/logos/gr/mini/kosmoradio.gif
p826
sg4
V\u0398\u0395\u03a3\u03a3\u0391\u039b\u039f\u039d\u0399\u039a\u0397
p827
sg15
V90
p828
sg8
V\u039a\u03bf\u03c3\u03bc\u03bf\u03c1\u03ac\u03b4\u03b9\u03bf 95,1
p829
ssS'93'
p830
(dp831
g479
S'http://178.32.72.194:8050/eroticos'
p832
sg13
V/logos/gr/mini/Erotikos.gif
p833
sg4
V\u0398\u0395\u03a3\u03a3\u0391\u039b\u039f\u039d\u0399\u039a\u0397
p834
sg15
V93
p835
sg8
V\u0395\u03c1\u03c9\u03c4\u03b9\u03ba\u03cc\u03c2 94,8
p836
ssS'92'
p837
(dp838
g571
S'http://stream.greekradios.gr:4000'
p839
sg13
V/logos/gr/mini/rainbow.gif
p840
sg4
V\u0398\u0395\u03a3\u03a3\u0391\u039b\u039f\u039d\u0399\u039a\u0397
p841
sg15
V92
p842
sg8
VRainbow 89
p843
ssS'95'
p844
(dp845
S'url'
p846
S'http://best.live24.gr/best1222'
p847
sg13
V/logos/gr/mini/bestradio.gif
p848
sg4
V\u0391\u0398\u0397\u039d\u0391
p849
sg15
V95
p850
sg8
VBest 92,6
p851
ssS'94'
p852
(dp853
g571
S'http://78.129.143.157:8000/starfm'
p854
sg13
V/logos/gr/mini/starfm.gif
p855
sg4
V\u0398\u0395\u03a3\u03a3\u0391\u039b\u039f\u039d\u0399\u039a\u0397
p856
sg15
V94
p857
sg8
VStar Fm 97,1
p858
ssS'97'
p859
(dp860
g571
S'http://stream.greekradios.gr:9060'
p861
sg13
V/logos/gr/mini/zoo.gif
p862
sg4
V\u0398\u0395\u03a3\u03a3\u0391\u039b\u039f\u039d\u0399\u039a\u0397
p863
sg15
V97
p864
sg8
VZoo 90,8
p865
ssS'96'
p866
(dp867
g571
S'http://91.132.6.21:8003'
p868
sg13
V/logos/gr/mini/rockfm.gif
p869
sg4
V\u0391\u0398\u0397\u039d\u0391
p870
sg15
V96
p871
sg8
VRock Fm 96,9
p872
ssS'1991'
p873
(dp874
g13
V/logos/gr/mini/nologo.gif
p875
sg4
VINTERNET RADIO
p876
sg15
V1991
p877
sg8
VHits FM 
p878
ssS'1990'
p879
(dp880
g13
V/logos/gr/mini/karpathosfm.gif
p881
sg4
V\u039a\u0391\u03a1\u03a0\u0391\u0398\u039f\u03a3
p882
sg15
V1990
p883
sg8
V\u039a\u03ac\u03c1\u03c0\u03b1\u03b8\u03bf\u03c2 FM 101,3
p884
ssS'1993'
p885
(dp886
g571
S'http://204.45.8.170:8037'
p887
sg13
V/logos/gr/mini/nrgradiome.gif
p888
sg4
VINTERNET RADIO
p889
sg15
V1993
p890
sg8
VNRG Radio 
p891
ssS'1992'
p892
(dp893
g571
S'http://99.198.109.147:80'
p894
sg13
V/logos/gr/mini/planetkozani.gif
p895
sg4
V\u039a\u039f\u0396\u0391\u039d\u0397
p896
sg15
V1992
p897
sg8
VPlanet 100,8
p898
ssS'1995'
p899
(dp900
g13
V/logos/gr/mini/artistico.gif
p901
sg4
VINTERNET RADIO
p902
sg15
V1995
p903
sg8
VArtistico Web Radio 
p904
ssS'1994'
p905
(dp906
g13
V/logos/gr/mini/radiopontos94.gif
p907
sg4
V\u039a\u039f\u0396\u0391\u039d\u0397
p908
sg15
V1994
p909
sg8
V\u03a1\u03ac\u03b4\u03b9\u03bf \u03a0\u03cc\u03bd\u03c4\u03bf\u03c2 94
p910
ssS'1999'
p911
(dp912
g571
S'http://174.36.237.66:8210'
p913
sg13
V/logos/gr/mini/musicsociety.gif
p914
sg4
VINTERNET RADIO
p915
sg15
V1999
p916
sg8
VMusic Society 
p917
ssS'741'
p918
(dp919
g571
S'http://eco.onestreaming.com:8251/live'
p920
sg13
V/logos/gr/mini/radiogrevena.gif
p921
sg4
V\u0393\u03a1\u0395\u0392\u0395\u039d\u0391
p922
sg15
V741
p923
sg8
V\u03a1\u03ac\u03b4\u03b9\u03bf \u0393\u03c1\u03b5\u03b2\u03b5\u03bd\u03ac 101,5
p924
ssS'743'
p925
(dp926
g13
V/logos/gr/mini/deltaradioalter.gif
p927
sg4
V\u0391\u0398\u0397\u039d\u0391
p928
sg15
V743
p929
sg8
VIEK Delta Radio - Alternative 
p930
ssS'744'
p931
(dp932
g13
V/logos/gr/mini/laikos.gif
p933
sg4
V\u0398\u0395\u03a3\u03a3\u0391\u039b\u039f\u039d\u0399\u039a\u0397
p934
sg15
V744
p935
sg8
V\u039b\u03b1\u03ca\u03ba\u03cc\u03c2 87,6
p936
ssS'745'
p937
(dp938
g13
V/logos/gr/mini/radioflorina.gif
p939
sg4
V\u03a6\u039b\u03a9\u03a1\u0399\u039d\u0391
p940
sg15
V745
p941
sg8
V\u03a1\u03ac\u03b4\u03b9\u03bf \u03a6\u03bb\u03ce\u03c1\u03b9\u03bd\u03b1 101,5
p942
ssS'746'
p943
(dp944
g571
S'http://s1.onweb.gr:8812'
p945
sg13
V/logos/gr/mini/radiokimata.gif
p946
sg4
V\u0398\u0395\u03a3\u03a3\u0391\u039b\u039f\u039d\u0399\u039a\u0397
p947
sg15
V746
p948
sg8
V\u03a1\u03b1\u03b4\u03b9\u03bf\u03ba\u03cd\u03bc\u03b1\u03c4\u03b1 104
p949
ssS'747'
p950
(dp951
g13
V/logos/gr/mini/santorini1.gif
p952
sg4
V\u03a3\u0391\u039d\u03a4\u039f\u03a1\u0399\u039d\u0397
p953
sg15
V747
p954
sg8
V\u03a1\u03ac\u03b4\u03b9\u03bf \u03a3\u03b1\u03bd\u03c4\u03bf\u03c1\u03af\u03bd\u03b7\u03c2 106,4
p955
ssS'238'
p956
(dp957
g571
S'http://eco.onestreaming.com:8150'
p958
sg13
V/logos/gr/mini/youfm.gif
p959
sg4
V\u03a0\u0391\u03a4\u03a1\u0391
p960
sg15
V238
p961
sg8
VYou Fm 100,1
p962
ssS'235'
p963
(dp964
g571
S'http://s1.onweb.gr:8068'
p965
sg13
V/logos/gr/mini/superadio904.gif
p966
sg4
V\u0397\u03a1\u0391\u039a\u039b\u0395\u0399\u039f
p967
sg15
V235
p968
sg8
VSupeRadio 90,4
p969
ssS'237'
p970
(dp971
g571
S'http://s6.onweb.gr:8032'
p972
sg13
V/logos/gr/mini/kisscrete.gif
p973
sg4
V\u0397\u03a1\u0391\u039a\u039b\u0395\u0399\u039f
p974
sg15
V237
p975
sg8
VKissFm 96,1
p976
ssS'426'
p977
(dp978
g656
S'http://stream.kiss922.gr:59922'
p979
sg13
V/logos/gr/mini/kiss922.gif
p980
sg4
V\u03a0\u0391\u03a4\u03a1\u0391
p981
sg15
V426
p982
sg8
VKiss Fm 92,2
p983
ssS'232'
p984
(dp985
g13
V/logos/gr/mini/topfm.gif
p986
sg4
V\u03a1\u039f\u0394\u039f\u03a3
p987
sg15
V232
p988
sg8
VTop Fm 102,4
p989
ssS'233'
p990
(dp991
g13
V/logos/gr/mini/uoc.gif
p992
sg4
V\u0397\u03a1\u0391\u039a\u039b\u0395\u0399\u039f
p993
sg15
V233
p994
sg8
VUOC 96,7
p995
ssS'1199'
p996
(dp997
g571
S'http://s3.onweb.gr:8452'
p998
sg13
V/logos/gr/mini/kivotosserres.gif
p999
sg4
V\u03a3\u0395\u03a1\u03a1\u0395\u03a3
p1000
sg15
V1199
p1001
sg8
V\u03a1\u03ac\u03b4\u03b9\u03bf \u039a\u03b9\u03b2\u03c9\u03c4\u03cc\u03c2 99,2
p1002
ssS'1191'
p1003
(dp1004
g571
S'http://78.159.111.125:8092'
p1005
sg13
V/logos/gr/mini/trustradiothess.gif
p1006
sg4
VINTERNET RADIO
p1007
sg15
V1191
p1008
sg8
VTrust Radio 
p1009
ssS'1197'
p1010
(dp1011
g571
S'http://s2.onweb.gr:8624'
p1012
sg13
V/logos/gr/mini/nologo.gif
p1013
sg4
V\u03a3\u0395\u03a1\u03a1\u0395\u03a3
p1014
sg15
V1197
p1015
sg8
V\u0386\u03bb\u03c6\u03b1 Radio 96
p1016
ssS'1196'
p1017
(dp1018
g13
V/logos/gr/mini/supertsportlarisa.gif
p1019
sg4
V\u039b\u0391\u03a1\u0399\u03a3\u0391
p1020
sg15
V1196
p1021
sg8
VSuper Sport Fm 90,1
p1022
ssS'1'
(dp1023
g846
S'http://golive.onestreaming.com/arion'
p1024
sg13
V/logos/gr/mini/arionradio.gif
p1025
sg4
V\u0391\u0398\u0397\u039d\u0391
p1026
sg15
V1
sg8
VArion Radio 
p1027
ssS'1759'
p1028
(dp1029
g846
S'http://legacy-100-ams.servers.mediacdn.com/avanti977lamia'
p1030
sg13
V/logos/gr/mini/avantifm977.gif
p1031
sg4
V\u039b\u0391\u039c\u0399\u0391
p1032
sg15
V1759
p1033
sg8
VAvanti FM 97,7
p1034
ssS'1758'
p1035
(dp1036
g13
V/logos/gr/mini/jestos.gif
p1037
sg4
VINTERNET RADIO
p1038
sg15
V1758
p1039
sg8
VJesto's Radio 
p1040
ssS'1757'
p1041
(dp1042
g846
S'http://live.onestreaming.com/pavleioslogos'
p1043
sg13
V/logos/gr/mini/pavleioslogos.gif
p1044
sg4
V\u0392\u0395\u03a1\u039f\u0399\u0391
p1045
sg15
V1757
p1046
sg8
V\u03a0\u03b1\u03cd\u03bb\u03b5\u03b9\u03bf\u03c2 \u039b\u03cc\u03b3\u03bf\u03c2 \u0399.\u039c. \u0392\u03ad\u03c1\u03bf\u03b9\u03b1\u03c2 90,2
p1047
ssS'1750'
p1048
(dp1049
g13
V/logos/gr/mini/freakme.gif
p1050
sg4
VINTERNET RADIO
p1051
sg15
V1750
p1052
sg8
VRadioFREAKme 
p1053
ssS'144'
p1054
(dp1055
g846
S'http://nitro.live24.gr/nitro4555'
p1056
sg13
V/logos/gr/mini/nitro.gif
p1057
sg4
V\u0391\u0398\u0397\u039d\u0391
p1058
sg15
V144
p1059
sg8
VNitro Radio 102,5
p1060
ssS'145'
p1061
(dp1062
g846
S'http://sportfm.live24.gr/sportfm7712'
p1063
sg13
V/logos/gr/mini/novasportfm.gif
p1064
sg4
V\u0391\u0398\u0397\u039d\u0391
p1065
sg15
V145
p1066
sg8
VNova Sport Fm 94,6
p1067
ssS'142'
p1068
(dp1069
g571
S'http://eco.onestreaming.com:8245'
p1070
sg13
V/logos/gr/mini/skyradio992.gif
p1071
sg4
V\u0399\u03a9\u0391\u039d\u039d\u0399\u039d\u0391
p1072
sg15
V142
p1073
sg8
VSky Radio 99,2
p1074
ssS'143'
p1075
(dp1076
g846
S'http://sfera.live24.gr/sfera4132'
p1077
sg13
V/logos/gr/mini/sfera.gif
p1078
sg4
V\u0391\u0398\u0397\u039d\u0391
p1079
sg15
V143
p1080
sg8
VSfera 102,2
p1081
ssS'140'
p1082
(dp1083
g13
V/logos/gr/mini/piqerasdj.gif
p1084
sg4
V\u0391\u0398\u0397\u039d\u0391
p1085
sg15
V140
p1086
sg8
VPiqeras Deejay 105,6
p1087
ssS'712'
p1088
(dp1089
g846
S'http://live.onestreaming.com/elladaradio'
p1090
sg13
V/logos/gr/mini/elladaradio.gif
p1091
sg4
V\u03a3\u03a0\u0391\u03a1\u03a4\u0397
p1092
sg15
V712
p1093
sg8
V\u0395\u03bb\u03bb\u03ac\u03b4\u03b1 Fm 96,7
p1094
ssS'1889'
p1095
(dp1096
g13
V/logos/gr/mini/oropos.gif
p1097
sg4
VINTERNET RADIO
p1098
sg15
V1889
p1099
sg8
V\u03a1\u03ac\u03b4\u03b9\u03bf \u03a9\u03c1\u03c9\u03c0\u03cc\u03c2 
p1100
ssS'1887'
p1101
(dp1102
g571
S'http://62.75.177.12:8006'
p1103
sg13
V/logos/gr/mini/rockgenesis.gif
p1104
sg4
VINTERNET RADIO
p1105
sg15
V1887
p1106
sg8
VRockgenesis.gr 
p1107
ssS'1886'
p1108
(dp1109
g571
S'http://66.90.103.144:8938'
p1110
sg13
V/logos/gr/mini/dradio.gif
p1111
sg4
V\u039b\u0391\u03a1\u0399\u03a3\u0391
p1112
sg15
V1886
p1113
sg8
VdRadio 
p1114
ssS'1884'
p1115
(dp1116
g13
V/logos/gr/mini/actradiogr.gif
p1117
sg4
VINTERNET RADIO
p1118
sg15
V1884
p1119
sg8
VAct Radio 
p1120
ssS'1883'
p1121
(dp1122
g571
S'http://s2.onweb.gr:8616'
p1123
sg13
V/logos/gr/mini/80smania.gif
p1124
sg4
VINTERNET RADIO
p1125
sg15
V1883
p1126
sg8
V80smania 
p1127
ssS'1882'
p1128
(dp1129
g13
V/logos/gr/mini/publicradiogr.gif
p1130
sg4
V\u039a\u0391\u039b\u0391\u039c\u0391\u03a4\u0391
p1131
sg15
V1882
p1132
sg8
VPublic Radio 
p1133
ssS'1881'
p1134
(dp1135
g13
V/logos/gr/mini/rockvelvetgr.gif
p1136
sg4
VINTERNET RADIO
p1137
sg15
V1881
p1138
sg8
VRock Velvet 
p1139
ssS'1880'
p1140
(dp1141
g13
V/logos/gr/mini/viasound.gif
p1142
sg4
VINTERNET RADIO
p1143
sg15
V1880
p1144
sg8
VViaSound 
p1145
ssS'878'
p1146
(dp1147
g656
S'http://208.43.115.44:8262'
p1148
sg13
V/logos/gr/mini/mrsoul.gif
p1149
sg4
VINTERNET RADIO
p1150
sg15
V878
p1151
sg8
VMr Soul 
p1152
ssS'948'
p1153
(dp1154
g656
S'http://eco.onestreaming.com:8047'
p1155
sg13
V/logos/gr/mini/klimaka.gif
p1156
sg4
VINTERNET RADIO
p1157
sg15
V948
p1158
sg8
VK\u03bb\u03af\u03bc\u03b1\u03be Plus 
p1159
ssS'949'
p1160
(dp1161
g656
S'http://eco.onestreaming.com:8077'
p1162
sg13
V/logos/gr/mini/maroni.gif
p1163
sg4
VINTERNET RADIO
p1164
sg15
V949
p1165
sg8
VMaroni 
p1166
ssS'946'
p1167
(dp1168
g846
S'http://live.onestreaming.com/blacklemon'
p1169
sg13
V/logos/gr/mini/blacklemon.gif
p1170
sg4
VINTERNET RADIO
p1171
sg15
V946
p1172
sg8
VBlack Lemon Radio 
p1173
ssS'947'
p1174
(dp1175
g13
V/logos/gr/mini/studio54.gif
p1176
sg4
V\u0391\u0398\u0397\u039d\u0391
p1177
sg15
V947
p1178
sg8
VStudio 54 
p1179
ssS'944'
p1180
(dp1181
g656
S'http://eco.onestreaming.com:8025/live'
p1182
sg13
V/logos/gr/mini/iekdomi.gif
p1183
sg4
V\u0391\u0398\u0397\u039d\u0391
p1184
sg15
V944
p1185
sg8
V\u0399\u0395\u039a \u0394\u03bf\u03bc\u03ae Radio 
p1186
ssS'945'
p1187
(dp1188
g846
S'http://live.onestreaming.com/vetofm'
p1189
sg13
V/logos/gr/mini/vetofm.gif
p1190
sg4
V\u039a\u039f\u0396\u0391\u039d\u0397
p1191
sg15
V945
p1192
sg8
VVeto Fm 91
p1193
ssS'940'
p1194
(dp1195
g656
S'http://s2.onweb.gr:8600'
p1196
sg13
V/logos/gr/mini/dreamradio.gif
p1197
sg4
VINTERNET RADIO
p1198
sg15
V940
p1199
sg8
VDream Radio 
p1200
ssS'941'
p1201
(dp1202
g656
S'http://www.dit-radio.gr:7500'
p1203
sg13
V/logos/gr/mini/ditradio.gif
p1204
sg4
VINTERNET RADIO
p1205
sg15
V941
p1206
sg8
VD.I.T. Radio 
p1207
ssS'689'
p1208
(dp1209
g13
V/logos/gr/mini/spyridon.gif
p1210
sg4
V\u039a\u0395\u03a1\u039a\u03a5\u03a1\u0391
p1211
sg15
V689
p1212
sg8
V\u0391\u03b3\u03b9\u03bf\u03c2 \u03a3\u03c0\u03c5\u03c1\u03af\u03b4\u03c9\u03bd 91,1
p1213
ssS'688'
p1214
(dp1215
g846
S'http://live.onestreaming.com/skyptolem'
p1216
sg13
V/logos/gr/mini/skyptolem.gif
p1217
sg4
V\u03a0\u03a4\u039f\u039bE\u039c\u0391\u0399\u0394\u0391
p1218
sg15
V688
p1219
sg8
VSky Fm 99,7
p1220
ssS'685'
p1221
(dp1222
g656
S'http://s3.onweb.gr:8522'
p1223
sg13
V/logos/gr/mini/cretaplanet.gif
p1224
sg4
VINTERNET RADIO
p1225
sg15
V685
p1226
sg8
VCreta Planet 
p1227
ssS'684'
p1228
(dp1229
g13
V/logos/gr/mini/krestena.gif
p1230
sg4
V\u039a\u03a1\u0395\u03a3\u03a4\u0395\u039d\u0391
p1231
sg15
V684
p1232
sg8
V\u03a1\u03ac\u03b4\u03b9\u03bf \u039a\u03c1\u03ad\u03c3\u03c4\u03b5\u03bd\u03b1 101,3
p1233
ssS'687'
p1234
(dp1235
g846
S'http://live.onestreaming.com/mousikokanali'
p1236
sg13
V/logos/gr/mini/mousikokanali.gif
p1237
sg4
V\u0397\u03a1\u0391\u039a\u039b\u0395\u0399\u039f
p1238
sg15
V687
p1239
sg8
V\u039c\u03bf\u03c5\u03c3\u03b9\u03ba\u03cc \u039a\u03b1\u03bd\u03ac\u03bb\u03b9 105,1
p1240
ssS'686'
p1241
(dp1242
g656
S'http://eco.onestreaming.com:8314'
p1243
sg13
V/logos/gr/mini/nrgkozanis.gif
p1244
sg4
V\u039a\u039f\u0396\u0391\u039d\u0397
p1245
sg15
V686
p1246
sg8
VNRG Radio 89,5
p1247
ssS'680'
p1248
(dp1249
g846
S'http://realfm.live24.gr/realfm'
p1250
sg13
V/logos/gr/mini/realfm.gif
p1251
sg4
V\u0391\u0398\u0397\u039d\u0391
p1252
sg15
V680
p1253
sg8
VReal Fm 97,8
p1254
ssS'683'
p1255
(dp1256
g13
V/logos/gr/mini/rockmachine.gif
p1257
sg4
VINTERNET RADIO
p1258
sg15
V683
p1259
sg8
VRock Machine 
p1260
ssS'1818'
p1261
(dp1262
g13
V/logos/gr/mini/inathens.gif
p1263
sg4
VINTERNET RADIO
p1264
sg15
V1818
p1265
sg8
VIn Athens Radio 
p1266
ssS'130'
p1267
(dp1268
g656
S'http://85.17.30.90:9984'
p1269
sg13
V/logos/gr/mini/hotmix.gif
p1270
sg4
V\u03a4\u03a1\u0399\u039a\u0391\u039b\u0391
p1271
sg15
V130
p1272
sg8
VHotMix 88
p1273
ssS'137'
p1274
(dp1275
g13
V/logos/gr/mini/88miso.gif
p1276
sg4
V\u0398\u0395\u03a3\u03a3\u0391\u039b\u039f\u039d\u0399\u039a\u0397
p1277
sg15
V137
p1278
sg8
V88 \u03bc\u03b9\u03c3\u03cc 88,5
p1279
ssS'499'
p1280
(dp1281
g846
S'http://live.onestreaming.com/aegeanant1'
p1282
sg13
V/logos/gr/mini/aegeanant1.gif
p1283
sg4
V\u03a7\u0399\u039f\u03a3
p1284
sg15
V499
p1285
sg8
VAnt1 \u0391\u03b9\u03b3\u03b1\u03af\u03bf 105
p1286
ssS'134'
p1287
(dp1288
g656
S'http://live.duth.gr:8000/erakom'
p1289
sg13
V/logos/gr/mini/eraweb.gif
p1290
sg4
V\u039a\u039f\u039c\u039f\u03a4H\u039d\u0397
p1291
sg15
V134
p1292
sg8
V\u0395\u03a1\u0391 \u039a\u03bf\u03bc\u03bf\u03c4\u03b7\u03bd\u03ae\u03c2 98,4
p1293
ssS'496'
p1294
(dp1295
g846
S'http://live.onestreaming.com/kanali3'
p1296
sg13
V/logos/gr/mini/kanali3.gif
p1297
sg4
V\u03a6\u039b\u03a9\u03a1\u0399\u039d\u0391
p1298
sg15
V496
p1299
sg8
V\u039a\u03b1\u03bd\u03ac\u03bb\u03b9 3 104
p1300
ssS'497'
p1301
(dp1302
g846
S'http://live.onestreaming.com/panoramafm'
p1303
sg13
V/logos/gr/mini/panoramafm.gif
p1304
sg4
V\u03a0\u03a4\u039f\u039bE\u039c\u0391\u0399\u0394\u0391
p1305
sg15
V497
p1306
sg8
V\u03a0\u03b1\u03bd\u03cc\u03c1\u03b1\u03bc\u03b1 Fm 101,8
p1307
ssS'490'
p1308
(dp1309
g13
V/logos/gr/mini/studio980.gif
p1310
sg4
V\u03a1\u0395\u0398\u03a5\u039c\u039d\u039f
p1311
sg15
V490
p1312
sg8
VStudio 98
p1313
ssS'491'
p1314
(dp1315
g656
S'http://s1.onweb.gr:8408'
p1316
sg13
V/logos/gr/mini/studio3.gif
p1317
sg4
V\u0398\u0395\u03a3\u03a3\u0391\u039b\u039f\u039d\u0399\u039a\u0397
p1318
sg15
V491
p1319
sg8
VStudio 3 103,5
p1320
ssS'1830'
p1321
(dp1322
g656
S'http://eco.onestreaming.com:8064'
p1323
sg13
V/logos/gr/mini/gorgona.gif
p1324
sg4
VINTERNET RADIO
p1325
sg15
V1830
p1326
sg8
VGorgona K1 
p1327
ssS'27'
p1328
(dp1329
g656
S'http://85.17.75.143:80'
p1330
sg13
V/logos/gr/mini/echoes.gif
p1331
sg4
VINTERNET RADIO
p1332
sg15
V27
p1333
sg8
VEchoes 
p1334
ssS'1836'
p1335
(dp1336
g846
S'http://eco.onestreaming.com:8146'
p1337
sg13
V/logos/gr/mini/radioolympos.gif
p1338
sg4
V\u039a\u0391\u03a1\u03a0\u0391\u0398\u039f\u03a3
p1339
sg15
V1836
p1340
sg8
VRadio Olympos 
p1341
ssS'21'
p1342
(dp1343
g13
V/logos/gr/mini/greca.gif
p1344
sg4
V\u03a0\u03a5\u03a1\u0393\u039f\u03a3
p1345
sg15
V21
p1346
sg8
VGreca Fm 99,4
p1347
ssS'1834'
p1348
(dp1349
g656
S'http://46.4.65.194:8039'
p1350
sg13
V/logos/gr/mini/yes912.gif
p1351
sg4
V\u03a0\u0391\u03a4\u03a1\u0391
p1352
sg15
V1834
p1353
sg8
VYES! 91,2
p1354
ssS'1838'
p1355
(dp1356
g656
S'http://eco.onestreaming.com:8074/live'
p1357
sg13
V/logos/gr/mini/maelli.gif
p1358
sg4
VINTERNET RADIO
p1359
sg15
V1838
p1360
sg8
VMaelli Radio 
p1361
ssS'1839'
p1362
(dp1363
g846
S'http://golive.onestreaming.com/akousinlove'
p1364
sg13
V/logos/gr/mini/akous_inlove.gif
p1365
sg4
V\u0391\u0398\u0397\u039d\u0391
p1366
sg15
V1839
p1367
sg8
VAkous. InLove 
p1368
ssS'938'
p1369
(dp1370
g846
S'http://live.onestreaming.com/alexandria'
p1371
sg13
V/logos/gr/mini/alexandria.gif
p1372
sg4
V\u0391\u039b\u0395\u039e\u0391\u039d\u0394\u03a1\u0395\u0399\u0391
p1373
sg15
V938
p1374
sg8
V\u03a1\u03ac\u03b4\u03b9\u03bf \u0391\u03bb\u03b5\u03be\u03ac\u03bd\u03b4\u03c1\u03b5\u03b9\u03b1 97,7
p1375
ssS'2019'
p1376
(dp1377
g13
V/logos/gr/mini/albishara.gif
p1378
sg4
VINTERNET RADIO
p1379
sg15
V2019
p1380
sg8
VRadio Al-Bishara 
p1381
ssS'2018'
p1382
(dp1383
g656
S'http://208.43.115.44:9632'
p1384
sg13
V/logos/gr/mini/silibre.gif
p1385
sg4
VINTERNET RADIO
p1386
sg15
V2018
p1387
sg8
VSilibre 
p1388
ssS'401'
p1389
(dp1390
g13
V/logos/gr/mini/motionfm.gif
p1391
sg4
VINTERNET RADIO
p1392
sg15
V401
p1393
sg8
VMotion Fm 
p1394
ssS'933'
p1395
(dp1396
g656
S'http://208.43.121.133:9088'
p1397
sg13
V/logos/gr/mini/nologo.gif
p1398
sg4
VINTERNET RADIO
p1399
sg15
V933
p1400
sg8
VMidnight Blues 
p1401
ssS'2014'
p1402
(dp1403
g13
V/logos/gr/mini/nologo.gif
p1404
sg4
V\u039b\u0397\u039c\u039d\u039f\u03a3
p1405
sg15
V2014
p1406
sg8
VFm 100 100
p1407
ssS'931'
p1408
(dp1409
g13
V/logos/gr/mini/freshwebradio.gif
p1410
sg4
VINTERNET RADIO
p1411
sg15
V931
p1412
sg8
VFresh Web Radio 
p1413
ssS'2016'
p1414
(dp1415
g13
V/logos/gr/mini/fradio.gif
p1416
sg4
V\u0391\u0398\u0397\u039d\u0391
p1417
sg15
V2016
p1418
sg8
VF Radio 
p1419
ssS'937'
p1420
(dp1421
g656
S'http://85.17.238.96:8050'
p1422
sg13
V/logos/gr/mini/ianosradio.gif
p1423
sg4
VINTERNET RADIO
p1424
sg15
V937
p1425
sg8
VIanos Radio 
p1426
ssS'2010'
p1427
(dp1428
g656
S'http://free.freeshoutcast.com:6768'
p1429
sg13
V/logos/gr/mini/nologo.gif
p1430
sg4
V\u03a7\u0391\u039d\u0399\u0391
p1431
sg15
V2010
p1432
sg8
VHip Hop Radio 107,3
p1433
ssS'409'
p1434
(dp1435
g846
S'http://live.onestreaming.com/club937'
p1436
sg13
V/logos/gr/mini/clubfm.gif
p1437
sg4
V\u0399\u0395\u03a1\u0391\u03a0\u0395\u03a4\u03a1\u0391
p1438
sg15
V409
p1439
sg8
VClub FM 93,7
p1440
ssS'2012'
p1441
(dp1442
g656
S'http://live.radio-sense.com:8035'
p1443
sg13
V/logos/gr/mini/radiosensecy.gif
p1444
sg4
V\u039b\u0395\u03a5\u039a\u03a9\u03a3\u0399\u0391
p1445
sg15
V2012
p1446
sg8
VRadio Sense 
p1447
ssS'1955'
p1448
(dp1449
g13
V/logos/gr/mini/nologo.gif
p1450
sg4
VINTERNET RADIO
p1451
sg15
V1955
p1452
sg8
VSeal Radio 
p1453
ssS'1954'
p1454
(dp1455
g656
S'http://www.cancelled.gr:8015/cancelled.mp3'
p1456
sg13
V/logos/gr/mini/cancelled.gif
p1457
sg4
V\u0391\u0398\u0397\u039d\u0391
p1458
sg15
V1954
p1459
sg8
VRadio Cancelled  
p1460
ssS'1957'
p1461
(dp1462
g656
S'http://s1.viastreaming.net:7370'
p1463
sg13
V/logos/gr/mini/skordo.gif
p1464
sg4
V\u0398\u0395\u03a3\u03a3\u0391\u039b\u039f\u039d\u0399\u039a\u0397
p1465
sg15
V1957
p1466
sg8
VSkordo Radio 
p1467
ssS'1956'
p1468
(dp1469
g656
S'http://159.253.149.12:8188'
p1470
sg13
V/logos/gr/mini/solidradio.gif
p1471
sg4
VINTERNET RADIO
p1472
sg15
V1956
p1473
sg8
VSolid Radio 
p1474
ssS'1951'
p1475
(dp1476
g656
S'http://147.102.216.3:8000/live'
p1477
sg13
V/logos/gr/mini/polytexneio.gif
p1478
sg4
VINTERNET RADIO
p1479
sg15
V1951
p1480
sg8
VPolyteXneio FM 
p1481
ssS'1950'
p1482
(dp1483
g656
S'http://188.40.131.14:6004'
p1484
sg13
V/logos/gr/mini/cosiradio.gif
p1485
sg4
VINTERNET RADIO
p1486
sg15
V1950
p1487
sg8
VCosiRadio Int'l Station 
p1488
ssS'1953'
p1489
(dp1490
g13
V/logos/gr/mini/nologo.gif
p1491
sg4
VINTERNET RADIO
p1492
sg15
V1953
p1493
sg8
VPiratis Radio 
p1494
ssS'1952'
p1495
(dp1496
g13
V/logos/gr/mini/mouspanintl.gif
p1497
sg4
V\u039a\u0391\u03a4\u0395\u03a1\u0399\u039d\u0397
p1498
sg15
V1952
p1499
sg8
V\u039c\u03bf\u03c5\u03c3\u03b9\u03ba\u03cc \u03a0\u03b1\u03bd\u03cc\u03c1\u03b1\u03bc\u03b1 Int'l Radio 
p1500
ssS'1958'
p1501
(dp1502
g13
V/logos/gr/mini/taelafakia.gif
p1503
sg4
V\u03a1\u039f\u0394\u039f\u03a3
p1504
sg15
V1958
p1505
sg8
VTa Elafakia 
p1506
ssS'379'
p1507
(dp1508
g846
S'http://eco.onestreaming.com:8226'
p1509
sg13
V/logos/gr/mini/topfmxanthi.gif
p1510
sg4
V\u039e\u0391\u039d\u0398\u0397
p1511
sg15
V379
p1512
sg8
VTop Fm 96,9
p1513
ssS'829'
p1514
(dp1515
g13
V/logos/gr/mini/sportfmrethymno.gif
p1516
sg4
V\u03a1\u0395\u0398\u03a5\u039c\u039d\u039f
p1517
sg15
V829
p1518
sg8
VSport Fm 103,3
p1519
ssS'824'
p1520
(dp1521
g13
V/logos/gr/mini/proinosfm.gif
p1522
sg4
V\u03a4\u03a1\u0399\u039a\u0391\u039b\u0391
p1523
sg15
V824
p1524
sg8
V\u03a0\u03c1\u03c9\u03b9\u03bd\u03cc\u03c2 Fm 105,3
p1525
ssS'827'
p1526
(dp1527
g13
V/logos/gr/mini/ermisradio.gif
p1528
sg4
V\u0396\u0391\u039a\u03a5\u039d\u0398\u039f\u03a3
p1529
sg15
V827
p1530
sg8
V\u0395\u03c1\u03bc\u03ae\u03c2 91,8
p1531
ssS'826'
p1532
(dp1533
g846
S'http://live.onestreaming.com/radiosiatistas'
p1534
sg13
V/logos/gr/mini/radiosiatistas.gif
p1535
sg4
V\u03a3\u0399\u0391\u03a4\u0399\u03a3\u03a4\u0391
p1536
sg15
V826
p1537
sg8
V\u03a1\u03ac\u03b4\u03b9\u03bf \u03a3\u03b9\u03ac\u03c4\u03b9\u03c3\u03c4\u03b1\u03c2 
p1538
ssS'821'
p1539
(dp1540
g846
S'http://live.onestreaming.com/nautilusradio'
p1541
sg13
V/logos/gr/mini/nautilus.gif
p1542
sg4
VINTERNET RADIO
p1543
sg15
V821
p1544
sg8
VNautilus Radio 
p1545
ssS'820'
p1546
(dp1547
g846
S'mmsh://a714.l649552713.c6495.g.lm.akamaistream.net/D/714/6495/v0001/reflector:52713'
p1548
sg13
V/logos/gr/mini/music892new.gif
p1549
sg4
V\u0391\u0398\u0397\u039d\u0391
p1550
sg15
V820
p1551
sg8
VMusic 89,2
p1552
ssS'376'
p1553
(dp1554
g846
S'http://live.onestreaming.com/latofm'
p1555
sg13
V/logos/gr/mini/latofm.gif
p1556
sg4
V\u0391\u0393.\u039d\u0399\u039a\u039f\u039b\u0391\u039f\u03a3
p1557
sg15
V376
p1558
sg8
V\u039b\u03b1\u03c4\u03ce Fm 103,3
p1559
ssS'708'
p1560
(dp1561
g846
S'http://live.onestreaming.com/ermionida'
p1562
sg13
V/logos/gr/mini/ermionidas.gif
p1563
sg4
V\u039a\u03a1\u0391\u039d\u0399\u0394\u0399
p1564
sg15
V708
p1565
sg8
V\u03a1\u03ac\u03b4\u03b9\u03bf \u0395\u03c1\u03bc\u03b9\u03bf\u03bd\u03af\u03b4\u03b1 104,3
p1566
ssS'1871'
p1567
(dp1568
S'url'
p1569
S'http://radio.e-pro.gr:9006'
p1570
sg13
V/logos/gr/mini/viva883.gif
p1571
sg4
V\u039a\u0391\u03a4\u0395\u03a1\u0399\u039d\u0397
p1572
sg15
V1871
p1573
sg8
VViva 88,3
p1574
ssS'700'
p1575
(dp1576
g1569
S'http://178.21.22.213:9650'
p1577
sg13
V/logos/gr/mini/smoothtraxx.gif
p1578
sg4
VINTERNET RADIO
p1579
sg15
V700
p1580
sg8
VSmooth Traxx 
p1581
ssS'392'
p1582
(dp1583
g1569
S'http://bestgreek.info:8104'
p1584
sg13
V/logos/gr/mini/a100.gif
p1585
sg4
V\u0391\u0398\u0397\u039d\u0391
p1586
sg15
V392
p1587
sg8
VA100 107,4
p1588
ssS'88'
p1589
(dp1590
g846
S'http://enleuko.live24.gr/enleuko877'
p1591
sg13
V/logos/gr/mini/enlefko.gif
p1592
sg4
V\u0391\u0398\u0397\u039d\u0391
p1593
sg15
V88
p1594
sg8
V\u0395\u03bd \u039b\u03b5\u03c5\u03ba\u03ce 87,7
p1595
ssS'89'
p1596
(dp1597
g1569
S'http://178.32.72.194:8060/rthes'
p1598
sg13
V/logos/gr/mini/radiothess.gif
p1599
sg4
V\u0398\u0395\u03a3\u03a3\u0391\u039b\u039f\u039d\u0399\u039a\u0397
p1600
sg15
V89
p1601
sg8
V\u03a1\u03ac\u03b4\u03b9\u03bf \u0398\u03b5\u03c3\u03c3\u03b1\u03bb\u03bf\u03bd\u03af\u03ba\u03b7 94,5
p1602
ssS'395'
p1603
(dp1604
g13
V/logos/gr/mini/atlantis.gif
p1605
sg4
V\u0391\u0398\u0397\u039d\u0391
p1606
sg15
V395
p1607
sg8
VAtlantis 105,2
p1608
ssS'82'
p1609
(dp1610
g846
S'http://diesi.live24.gr/diesi1013'
p1611
sg13
V/logos/gr/mini/diesi.gif
p1612
sg4
V\u0391\u0398\u0397\u039d\u0391
p1613
sg15
V82
p1614
sg8
V\u0394\u03af\u03b5\u03c3\u03b7 101,3
p1615
ssS'83'
p1616
(dp1617
g13
V/logos/gr/mini/melodia.gif
p1618
sg4
V\u0391\u0398\u0397\u039d\u0391
p1619
sg15
V83
p1620
sg8
V\u039c\u03b5\u03bb\u03c9\u03b4\u03af\u03b1 99,2
p1621
ssS'399'
p1622
(dp1623
g846
S'http://golive.onestreaming.com/thepopfm'
p1624
sg13
V/logos/gr/mini/thepopfm.gif
p1625
sg4
V\u039c\u03a5\u03a4\u0399\u039b\u0397\u039d\u0397
p1626
sg15
V399
p1627
sg8
VThe Pop Fm 98,6
p1628
ssS'81'
p1629
(dp1630
S'url'
p1631
S'http://sc2.greekstream.net:4008'
p1632
sg13
V/logos/gr/mini/stathmos.gif
p1633
sg4
VINTERNET RADIO
p1634
sg15
V81
p1635
sg8
V\u03a3\u03c4\u03b1\u03b8\u03bc\u03cc\u03c2 
p1636
ssS'85'
p1637
(dp1638
g1631
S'http://149.5.240.22/WR-GR-WR71'
p1639
sg13
V/logos/gr/mini/nrjathens.gif
p1640
sg4
V\u0391\u0398\u0397\u039d\u0391
p1641
sg15
V85
p1642
sg8
VEnergy Athens 88,6
p1643
ssS'797'
p1644
(dp1645
g1631
S'http://live.waveradio.gr:8000/listen'
p1646
sg13
V/logos/gr/mini/waveradio.gif
p1647
sg4
VINTERNET RADIO
p1648
sg15
V797
p1649
sg8
VWave Radio 
p1650
ssS'796'
p1651
(dp1652
g13
V/logos/gr/mini/cgs.gif
p1653
sg4
VINTERNET RADIO
p1654
sg15
V796
p1655
sg8
V\u0395\u03ba\u03c0\u03b1\u03b9\u03b4\u03b5\u03c5\u03c4\u03ae\u03c1\u03b9\u03b1 \u039a\u03c9\u03c3\u03c4\u03ad\u03b1-\u0393\u03b5\u03af\u03c4\u03bf\u03bd\u03b1 
p1656
ssS'1710'
p1657
(dp1658
g846
S'http://hotsoft.ws:8086/talosfm?.wma'
p1659
sg13
V/logos/gr/mini/talosfm886.gif
p1660
sg4
V\u03a1\u0395\u0398\u03a5\u039c\u039d\u039f
p1661
sg15
V1710
p1662
sg8
V\u03a4\u03ac\u03bb\u03c9\u03c2 FM 88,6
p1663
ssS'793'
p1664
(dp1665
g1631
S'http://eco.onestreaming.com:8005/stream'
p1666
sg13
V/logos/gr/mini/loco.gif
p1667
sg4
V\u0391\u0398\u0397\u039d\u0391
p1668
sg15
V793
p1669
sg8
VLoco Radio 
p1670
ssS'792'
p1671
(dp1672
g13
V/logos/gr/mini/epigee.gif
p1673
sg4
VINTERNET RADIO
p1674
sg15
V792
p1675
sg8
VEpigee Radio 
p1676
ssS'791'
p1677
(dp1678
g1631
S'http://uk3-vn.mixstream.net:8258'
p1679
sg13
V/logos/gr/mini/kentrokardias.gif
p1680
sg4
V\u0397\u03a1\u0391\u039a\u039b\u0395\u0399\u039f
p1681
sg15
V791
p1682
sg8
V\u039a\u03ad\u03bd\u03c4\u03c1\u03bf \u039a\u03b1\u03c1\u03b4\u03b9\u03ac\u03c2 95
p1683
ssS'790'
p1684
(dp1685
g1631
S'http://sc2.greekstream.net:4010'
p1686
sg13
V/logos/gr/mini/coolfmeu.gif
p1687
sg4
VINTERNET RADIO
p1688
sg15
V790
p1689
sg8
VCool Radio 
p1690
ssS'799'
p1691
(dp1692
g846
S'http://live.onestreaming.com/nikolaou'
p1693
sg13
V/logos/gr/mini/nikolaou.gif
p1694
sg4
V\u0391\u0398\u0397\u039d\u0391
p1695
sg15
V799
p1696
sg8
V\u039d\u03b9\u03ba\u03bf\u03bb\u03ac\u03bf\u03c5 Radio 
p1697
ssS'7'
(dp1698
g846
S'http://golive.onestreaming.com/arionlaikos'
p1699
sg13
V/logos/gr/mini/arionlaikos.gif
p1700
sg4
V\u0391\u0398\u0397\u039d\u0391
p1701
sg15
V7
sg8
VArion \u039b\u03b1\u03ca\u03ba\u03cc\u03c2 
p1702
ssS'170'
p1703
(dp1704
g13
V/logos/gr/mini/powervolos.gif
p1705
sg4
V\u0392\u039f\u039b\u039f\u03a3
p1706
sg15
V170
p1707
sg8
VPower Fm 100,2
p1708
ssS'1655'
p1709
(dp1710
g1631
S'http://eco.onestreaming.com:8115'
p1711
sg13
V/logos/gr/mini/sradio.gif
p1712
sg4
VINTERNET RADIO
p1713
sg15
V1655
p1714
sg8
VSRadio 
p1715
ssS'1132'
p1716
(dp1717
g1631
S'http://www.elgr.info:8112'
p1718
sg13
V/logos/gr/mini/energykast.gif
p1719
sg4
V\u039a\u0391\u03a3\u03a4\u039f\u03a1\u0399\u0391
p1720
sg15
V1132
p1721
sg8
VEnergy 101
p1722
ssS'1136'
p1723
(dp1724
g13
V/logos/gr/mini/vivafm953.gif
p1725
sg4
V\u03a0\u03a4\u039f\u039bE\u039c\u0391\u0399\u0394\u0391
p1726
sg15
V1136
p1727
sg8
VViva FM 95,3
p1728
ssS'241'
p1729
(dp1730
g846
S'http://live.onestreaming.com/radioactive'
p1731
sg13
V/logos/gr/mini/radioactive.gif
p1732
sg4
V\u03a3\u0399\u03a6\u039d\u039f\u03a3
p1733
sg15
V241
p1734
sg8
VRadio Active 91,3
p1735
ssS'243'
p1736
(dp1737
g13
V/logos/gr/mini/spacefmcyclades.gif
p1738
sg4
V\u039d\u0391\u039e\u039f\u03a3
p1739
sg15
V243
p1740
sg8
VSpace Fm 107,5
p1741
ssS'249'
p1742
(dp1743
g13
V/logos/gr/mini/synorafm.gif
p1744
sg4
V\u039a\u0399\u039b\u039a\u0399\u03a3
p1745
sg15
V249
p1746
sg8
VSynora Fm 92,2
p1747
ssS'1430'
p1748
(dp1749
g846
S'http://live.onestreaming.com/aeolos'
p1750
sg13
V/logos/gr/mini/aeolos.gif
p1751
sg4
V\u039c\u03a5\u03a4\u0399\u039b\u0397\u039d\u0397
p1752
sg15
V1430
p1753
sg8
V\u0391\u03af\u03bf\u03bb\u03bf\u03c2 92,8
p1754
ssS'519'
p1755
(dp1756
g1631
S'http://s3.onweb.gr:8462'
p1757
sg13
V/logos/gr/mini/dreamfm.gif
p1758
sg4
V\u0391\u0398\u0397\u039d\u0391
p1759
sg15
V519
p1760
sg8
VDream Fm 103,5
p1761
ssS'518'
p1762
(dp1763
g13
V/logos/gr/mini/sunradio.gif
p1764
sg4
V\u0394\u03a1\u0391\u039c\u0391
p1765
sg15
V518
p1766
sg8
VSun Radio 97,1
p1767
ssS'511'
p1768
(dp1769
g13
V/logos/gr/mini/diktyo.gif
p1770
sg4
V\u03a3\u0395\u03a1\u03a1\u0395\u03a3
p1771
sg15
V511
p1772
sg8
V\u0394\u03af\u03ba\u03c4\u03c5\u03bf 102,4
p1773
ssS'510'
p1774
(dp1775
S'url'
p1776
S'http://s3.onweb.gr:8520'
p1777
sg13
V/logos/gr/mini/ayia942.gif
p1778
sg4
V\u039b\u0391\u03a1\u0399\u03a3\u0391
p1779
sg15
V510
p1780
sg8
V\u03a1\u03b1\u03b4\u03b9\u03bf\u03c6\u03c9\u03bd\u03af\u03b1 \u0391\u03b3\u03b9\u03ac\u03c2 94,2
p1781
ssS'512'
p1782
(dp1783
g1776
S'http://78.46.66.215:8002'
p1784
sg13
V/logos/gr/mini/nrgfm.gif
p1785
sg4
V\u03a7\u0391\u039b\u039a\u0399\u0394\u0391
p1786
sg15
V512
p1787
sg8
VNrg Fm 95
p1788
ssS'515'
p1789
(dp1790
g1776
S'http://live.duth.gr:8000/underground'
p1791
sg13
V/logos/gr/mini/undergroundradio.gif
p1792
sg4
V\u039e\u0391\u039d\u0398\u0397
p1793
sg15
V515
p1794
sg8
VUnderground Radio 100,3
p1795
ssS'514'
p1796
(dp1797
g13
V/logos/gr/mini/sagapo.gif
p1798
sg4
V\u0398\u0395\u03a3\u03a3\u0391\u039b\u039f\u039d\u0399\u039a\u0397
p1799
sg15
V514
p1800
sg8
V\u03a3'\u03b1\u03b3\u03b1\u03c0\u03ce 96,1
p1801
ssS'458'
p1802
(dp1803
g846
S'http://radio.greekstream.net/ekrixi'
p1804
sg13
V/logos/gr/mini/radioekriksi.gif
p1805
sg4
V\u0398\u0395\u03a3\u03a3\u0391\u039b\u039f\u039d\u0399\u039a\u0397
p1806
sg15
V458
p1807
sg8
V\u0388\u03ba\u03c1\u03b7\u03be\u03b7 Fm 99,7
p1808
ssS'459'
p1809
(dp1810
g13
V/logos/gr/mini/erotokritos.gif
p1811
sg4
V\u0397\u03a1\u0391\u039a\u039b\u0395\u0399\u039f
p1812
sg15
V459
p1813
sg8
VErotokritos Fm 87,9
p1814
ssS'451'
p1815
(dp1816
g13
V/logos/gr/mini/rythmosxan.gif
p1817
sg4
V\u039e\u0391\u039d\u0398\u0397
p1818
sg15
V451
p1819
sg8
V\u03a1\u03c5\u03b8\u03bc\u03cc\u03c2 106
p1820
ssS'629'
p1821
(dp1822
g1776
S'http://eco.onestreaming.com:8294'
p1823
sg13
V/logos/gr/mini/power926.gif
p1824
sg4
V\u039a\u039f\u0396\u0391\u039d\u0397
p1825
sg15
V629
p1826
sg8
VPower FM 92,6
p1827
ssS'453'
p1828
(dp1829
g846
S'http://stream.powerfm932.gr/powerfm932'
p1830
sg13
V/logos/gr/mini/powerfm.gif
p1831
sg4
V\u039b\u0391\u03a1\u0399\u03a3\u0391
p1832
sg15
V453
p1833
sg8
VPower Fm 93,2
p1834
ssS'454'
p1835
(dp1836
g846
S'http://live.onestreaming.com/rythmos943'
p1837
sg13
V/logos/gr/mini/rythmos943.gif
p1838
sg4
V\u0396\u0391\u039a\u03a5\u039d\u0398\u039f\u03a3
p1839
sg15
V454
p1840
sg8
V\u03a1\u03c5\u03b8\u03bc\u03cc\u03c2 94,3
p1841
ssS'456'
p1842
(dp1843
g13
V/logos/gr/mini/radioepidavros.gif
p1844
sg4
V\u0395\u03a0\u0399\u0394\u0391\u03a5\u03a1\u039f\u03a3
p1845
sg15
V456
p1846
sg8
V\u03a1\u03ac\u03b4\u03b9\u03bf \u0395\u03c0\u03af\u03b4\u03b1\u03c5\u03c1\u03bf\u03c2 93,8
p1847
ssS'457'
p1848
(dp1849
g1776
S'http://ola.isolservers.com:8300'
p1850
sg13
V/logos/gr/mini/olafm.gif
p1851
sg4
V\u0398\u0395\u03a3\u03a3\u0391\u039b\u039f\u039d\u0399\u039a\u0397
p1852
sg15
V457
p1853
sg8
VOla Fm 91,4
p1854
ssS'1876'
p1855
(dp1856
g1776
S'http://stream.greekradios.gr:8050'
p1857
sg13
V/logos/gr/mini/nologo.gif
p1858
sg4
V\u03a1\u039f\u0394\u039f\u03a3
p1859
sg15
V1876
p1860
sg8
V\u03a0\u03b1\u03bb\u03bc\u03cc\u03c2 99,5
p1861
ssS'1877'
p1862
(dp1863
g1776
S'http://208.43.121.133:8178'
p1864
sg13
V/logos/gr/mini/nologo.gif
p1865
sg4
VINTERNET RADIO
p1866
sg15
V1877
p1867
sg8
VStarwalkers Radio Classic 
p1868
ssS'1875'
p1869
(dp1870
g1776
S'http://stream.all-host.gr:9034'
p1871
sg13
V/logos/gr/mini/megalonisos898.gif
p1872
sg4
V\u03a1\u0395\u0398\u03a5\u039c\u039d\u039f
p1873
sg15
V1875
p1874
sg8
V\u03a1\u03ac\u03b4\u03b9\u03bf \u039c\u03b5\u03b3\u03b1\u03bb\u03cc\u03bd\u03b7\u03c3\u03bf\u03c2 89,8
p1875
ssS'1872'
p1876
(dp1877
g13
V/logos/gr/mini/meli106.gif
p1878
sg4
V\u039a\u039f\u0396\u0391\u039d\u0397
p1879
sg15
V1872
p1880
sg8
V\u03a1\u03ac\u03b4\u03b9\u03bf \u039c\u03ad\u03bb\u03b9 106
p1881
ssS'1873'
p1882
(dp1883
g1776
S'http://s6.onweb.gr:8078'
p1884
sg13
V/logos/gr/mini/lefkada884.gif
p1885
sg4
V\u039b\u0395\u03a5\u039a\u0391\u0394\u0391
p1886
sg15
V1873
p1887
sg8
V\u03a1\u03ac\u03b4\u03b9\u03bf \u039b\u03b5\u03c5\u03ba\u03ac\u03b4\u03b1 88,4
p1888
ssS'1870'
p1889
(dp1890
g846
S'http://golive.onestreaming.com/akousjazzin'
p1891
sg13
V/logos/gr/mini/akous_jazzin.gif
p1892
sg4
VINTERNET RADIO
p1893
sg15
V1870
p1894
sg8
VAkous. JazzIN 
p1895
ssS'178'
p1896
(dp1897
g13
V/logos/gr/mini/StigmaFm.gif
p1898
sg4
V\u0396\u0391\u039a\u03a5\u039d\u0398\u039f\u03a3
p1899
sg15
V178
p1900
sg8
V\u03a3\u03c4\u03af\u03b3\u03bc\u03b1 Radio 97,6
p1901
ssS'175'
p1902
(dp1903
g1776
S'http://shoutcast.24radio.gr:8036'
p1904
sg13
V/logos/gr/mini/kisskefalonias.gif
p1905
sg4
V\u039a\u0395\u03a6\u0391\u039b\u039b\u039f\u039d\u0399\u0391
p1906
sg15
V175
p1907
sg8
VKiss Fm 100,6
p1908
ssS'174'
p1909
(dp1910
g846
S'http://live.onestreaming.com/diavlosrodopis'
p1911
sg13
V/logos/gr/mini/diavlosrodopis.gif
p1912
sg4
V\u039a\u039f\u039c\u039f\u03a4H\u039d\u0397
p1913
sg15
V174
p1914
sg8
V\u0394\u03af\u03b1\u03c5\u03bb\u03bf\u03c2 \u03a1\u03bf\u03b4\u03cc\u03c0\u03b7\u03c2 92,4
p1915
ssS'173'
p1916
(dp1917
g1776
S'http://s1.onweb.gr:8422'
p1918
sg13
V/logos/gr/mini/popfm.gif
p1919
sg4
V\u039a\u0395\u03a1\u039a\u03a5\u03a1\u0391
p1920
sg15
V173
p1921
sg8
VPop Fm 102,1
p1922
ssS'172'
p1923
(dp1924
g846
S'http://broadcast.hol.gr/mojoradio'
p1925
sg13
V/logos/gr/mini/mojoradio.gif
p1926
sg4
V\u03a0\u0391\u03a4\u03a1\u0391
p1927
sg15
V172
p1928
sg8
VMojo Radio 107,7
p1929
ssS'1878'
p1930
(dp1931
g13
V/logos/gr/mini/studio359.gif
p1932
sg4
V\u03a7\u0391\u039d\u0399\u0391
p1933
sg15
V1878
p1934
sg8
VStudio 359 103
p1935
ssS'1879'
p1936
(dp1937
g13
V/logos/gr/mini/gold10.gif
p1938
sg4
V\u0392\u039f\u039b\u039f\u03a3
p1939
sg15
V1879
p1940
sg8
VGold10 Radio 
p1941
ssS'972'
p1942
(dp1943
g13
V/logos/gr/mini/aigaio958.gif
p1944
sg4
V\u03a3\u03a5\u03a1\u039f\u03a3
p1945
sg15
V972
p1946
sg8
V\u0391\u03b9\u03b3\u03b1\u03af\u03bf Live 95,8
p1947
ssS'183'
p1948
(dp1949
g1776
S'http://s5.onweb.gr:8020'
p1950
sg13
V/logos/gr/mini/primetime.gif
p1951
sg4
V\u03a3\u03a5\u03a1\u039f\u03a3
p1952
sg15
V183
p1953
sg8
VPrime Radio 100,3
p1954
ssS'654'
p1955
(dp1956
g846
S'http://hotsoft.ws:8086/mk'
p1957
sg13
V/logos/gr/mini/musikokanali.gif
p1958
sg4
V\u03a1\u0395\u0398\u03a5\u039c\u039d\u039f
p1959
sg15
V654
p1960
sg8
V\u039c\u03bf\u03c5\u03c3\u03b9\u03ba\u03cc \u039a\u03b1\u03bd\u03ac\u03bb\u03b9 101,3
p1961
ssS'182'
p1962
(dp1963
g846
S'http://eco.onestreaming.com:8012'
p1964
sg13
V/logos/gr/mini/feres.gif
p1965
sg4
V\u0391\u039b\u0395\u039e\u0391\u039d\u0394\u03a1\u039f\u03a5\u03a0\u039f\u039b\u0397
p1966
sg15
V182
p1967
sg8
VSferikos 99,3
p1968
ssS'657'
p1969
(dp1970
g1776
S'http://s6.onweb.gr:8010'
p1971
sg13
V/logos/gr/mini/palmosonair.gif
p1972
sg4
V\u0391\u0398\u0397\u039d\u0391
p1973
sg15
V657
p1974
sg8
V\u03a0\u03b1\u03bb\u03bc\u03cc\u03c2 105,4
p1975
ssS'180'
p1976
(dp1977
g13
V/logos/gr/mini/bestkos.gif
p1978
sg4
V\u039a\u03a9\u03a3
p1979
sg15
V180
p1980
sg8
VBest Radio 101,1
p1981
ssS'2'
(dp1982
g846
S'http://golive.onestreaming.com/athensparty'
p1983
sg13
V/logos/gr/mini/athensparty.gif
p1984
sg4
V\u0391\u0398\u0397\u039d\u0391
p1985
sg15
V2
sg8
VAthens Party 
p1986
ssS'652'
p1987
(dp1988
g13
V/logos/gr/mini/nologo.gif
p1989
sg4
V\u039a\u0391\u039b\u0391\u039c\u0391\u03a4\u0391
p1990
sg15
V652
p1991
sg8
V\u03a0\u03b1\u03bb\u03bc\u03cc\u03c2 90,5
p1992
ssS'653'
p1993
(dp1994
g1776
S'http://eco.onestreaming.com:8075'
p1995
sg13
V/logos/gr/mini/enimerosi.gif
p1996
sg4
V\u039a\u0391\u03a4\u0395\u03a1\u0399\u039d\u0397
p1997
sg15
V653
p1998
sg8
V\u0395\u03bd\u03b7\u03bc\u03ad\u03c1\u03c9\u03c3\u03b7 92,2
p1999
ssS'184'
p2000
(dp2001
g846
S'http://live.onestreaming.com/mixgrevena'
p2002
sg13
V/logos/gr/mini/mixgrevena.gif
p2003
sg4
V\u0393\u03a1\u0395\u0392\u0395\u039d\u0391
p2004
sg15
V184
p2005
sg8
VMix Fm 102,2
p2006
ssS'651'
p2007
(dp2008
g1776
S'http://188.40.131.14:8022'
p2009
sg13
V/logos/gr/mini/radioamfissa.gif
p2010
sg4
V\u0391\u039c\u03a6\u0399\u03a3\u03a3\u0391
p2011
sg15
V651
p2012
sg8
V\u03a1\u03ac\u03b4\u03b9\u03bf \u0391\u03bc\u03c6\u03b9\u03c3\u03c3\u03b1 104,4
p2013
ssS'658'
p2014
(dp2015
g1776
S'http://shout.streamwithq.gr:4052'
p2016
sg13
V/logos/gr/mini/ellinikos889.gif
p2017
sg4
V\u0391\u039b\u0395\u039e\u0391\u039d\u0394\u03a1\u039f\u03a5\u03a0\u039f\u039b\u0397
p2018
sg15
V658
p2019
sg8
V\u0395\u03bb\u03bb\u03b7\u03bd\u03b9\u03ba\u03cc\u03c2 88,9
p2020
ssS'659'
p2021
(dp2022
g1776
S'http://s5.onweb.gr:8498'
p2023
sg13
V/logos/gr/mini/radiofono108.gif
p2024
sg4
V\u039c\u03a5\u03a4\u0399\u039b\u0397\u039d\u0397
p2025
sg15
V659
p2026
sg8
V\u03a1\u03b1\u03b4\u03b9\u03cc\u03c6\u03c9\u03bd\u03bf 108
p2027
ssS'185'
p2028
(dp2029
g846
S'http://live.onestreaming.com/lefkada'
p2030
sg13
V/logos/gr/mini/lefkada.gif
p2031
sg4
V\u039b\u0395\u03a5\u039a\u0391\u0394\u0391
p2032
sg15
V185
p2033
sg8
VStudio \u039b\u03b5\u03c5\u03ba\u03ac\u03c4\u03b1\u03c2 90,5
p2034
ssS'1918'
p2035
(dp2036
g13
V/logos/gr/mini/radioheaven.gif
p2037
sg4
VINTERNET RADIO
p2038
sg15
V1918
p2039
sg8
VRadio Heaven 
p2040
ssS'1911'
p2041
(dp2042
g13
V/logos/gr/mini/kissne89.gif
p2043
sg4
V\u039a\u0391\u039b\u0391\u039c\u0391\u03a4\u0391
p2044
sg15
V1911
p2045
sg8
VKiss FM 89
p2046
ssS'1910'
p2047
(dp2048
g1776
S'http://eco.onestreaming.com:8142'
p2049
sg13
V/logos/gr/mini/mini1071.gif
p2050
sg4
V\u039a\u03a1\u0395\u03a3\u03a4\u0395\u039d\u0391
p2051
sg15
V1910
p2052
sg8
VMini FM 107,1
p2053
ssS'1915'
p2054
(dp2055
g1776
S'http://78.159.111.125:8042'
p2056
sg13
V/logos/gr/mini/tranceathens.gif
p2057
sg4
VINTERNET RADIO
p2058
sg15
V1915
p2059
sg8
VTrance Athens 
p2060
ssS'1917'
p2061
(dp2062
g13
V/logos/gr/mini/alldaydj.gif
p2063
sg4
VINTERNET RADIO
p2064
sg15
V1917
p2065
sg8
VAllDay DJ 
p2066
ssS'1916'
p2067
(dp2068
g13
V/logos/gr/mini/midnightradio.gif
p2069
sg4
VINTERNET RADIO
p2070
sg15
V1916
p2071
sg8
VMidnight Radio 
p2072
ssS'869'
p2073
(dp2074
g1776
S'http://eco.onestreaming.com:8286'
p2075
sg13
V/logos/gr/mini/lakkasouli.gif
p2076
sg4
VINTERNET RADIO
p2077
sg15
V869
p2078
sg8
V\u039b\u0391\u039a\u039a\u0391 \u03a3\u039f\u03a5\u039b\u0399 Radio 
p2079
ssS'12'
p2080
(dp2081
g1776
S'http://shout.streamwithq.gr:4044'
p2082
sg13
V/logos/gr/mini/flyfm.gif
p2083
sg4
V\u03a1\u0395\u0398\u03a5\u039c\u039d\u039f
p2084
sg15
V12
p2085
sg8
VFly Fm 95,9
p2086
ssS'15'
p2087
(dp2088
g1776
S'http://s1.onweb.gr:8056'
p2089
sg13
V/logos/gr/mini/starsparti.gif
p2090
sg4
V\u03a3\u03a0\u0391\u03a1\u03a4\u0397
p2091
sg15
V15
p2092
sg8
VRadio Star 94,1
p2093
ssS'861'
p2094
(dp2095
g13
V/logos/gr/mini/musicmania.gif
p2096
sg4
V\u0398\u0395\u03a3\u03a3\u0391\u039b\u039f\u039d\u0399\u039a\u0397
p2097
sg15
V861
p2098
sg8
VMusic Mania 
p2099
ssS'862'
p2100
(dp2101
g1776
S'http://208.43.121.133:8036'
p2102
sg13
V/logos/gr/mini/wasteland.gif
p2103
sg4
VINTERNET RADIO
p2104
sg15
V862
p2105
sg8
VWasteland 
p2106
ssS'867'
p2107
(dp2108
g846
S'http://live.onestreaming.com/poligiros'
p2109
sg13
V/logos/gr/mini/poligiros.gif
p2110
sg4
V\u03a0\u039f\u039b\u03a5\u0393\u03a5\u03a1\u039f\u03a3
p2111
sg15
V867
p2112
sg8
V\u0394\u03b7\u03bc\u03bf\u03c4\u03b9\u03ba\u03cc \u03a1\u03b1\u03b4\u03b9\u03cc\u03c6\u03c9\u03bd\u03bf \u03a0\u03bf\u03bb\u03cd\u03b3\u03c5\u03c1\u03bf\u03c5 90,8
p2113
ssS'2024'
p2114
(dp2115
g1776
S'http://94.229.74.195:8004'
p2116
sg13
V/logos/gr/mini/legrec.gif
p2117
sg4
VINTERNET RADIO
p2118
sg15
V2024
p2119
sg8
VLe Grec 
p2120
ssS'2025'
p2121
(dp2122
g1776
S'http://46.167.172.118:8800'
p2123
sg13
V/logos/gr/mini/eroradio.gif
p2124
sg4
VINTERNET RADIO
p2125
sg15
V2025
p2126
sg8
VE.R.O.radio 
p2127
ssS'2026'
p2128
(dp2129
g1776
S'http://173.193.219.163:8616/stream'
p2130
sg13
V/logos/gr/mini/satisfactory.gif
p2131
sg4
VINTERNET RADIO
p2132
sg15
V2026
p2133
sg8
VSatisfactory 
p2134
ssS'2027'
p2135
(dp2136
g1776
S'http://176.9.39.43:7000'
p2137
sg13
V/logos/gr/mini/memorieswr.gif
p2138
sg4
V\u039b\u0397\u039c\u039d\u039f\u03a3
p2139
sg15
V2027
p2140
sg8
VMemories Web Radio 
p2141
ssS'2020'
p2142
(dp2143
g1776
S'http://188.40.75.77:9200'
p2144
sg13
V/logos/gr/mini/ebeeries.gif
p2145
sg4
VINTERNET RADIO
p2146
sg15
V2020
p2147
sg8
V\u039c\u03bf\u03c5\u03c3\u03b9\u03ba\u03ad\u03c2 Ebeer\u03af\u03b5\u03c2 
p2148
ssS'2021'
p2149
(dp2150
g1776
S'http://eco.onestreaming.com:8274'
p2151
sg13
V/logos/gr/mini/revivalradio.gif
p2152
sg4
V\u0398\u0395\u03a3\u03a3\u0391\u039b\u039f\u039d\u0399\u039a\u0397
p2153
sg15
V2021
p2154
sg8
VRevival 
p2155
ssS'2022'
p2156
(dp2157
g1776
S'http://s3.onweb.gr:8014'
p2158
sg13
V/logos/gr/mini/nologo.gif
p2159
sg4
VINTERNET RADIO
p2160
sg15
V2022
p2161
sg8
VOpen Radio 
p2162
ssS'2023'
p2163
(dp2164
g13
V/logos/gr/mini/nologo.gif
p2165
sg4
VINTERNET RADIO
p2166
sg15
V2023
p2167
sg8
V\u0391.\u039c.\u0395.\u0391 Greek 
p2168
ssS'2028'
p2169
(dp2170
g1776
S'http://178.21.169.118:8002/stream'
p2171
sg13
V/logos/gr/mini/mansta.gif
p2172
sg4
VINTERNET RADIO
p2173
sg15
V2028
p2174
sg8
VMansta Radio 
p2175
ssS'2029'
p2176
(dp2177
g1776
S'http://eco.onestreaming.com:8284'
p2178
sg13
V/logos/gr/mini/wmusicradio.gif
p2179
sg4
VINTERNET RADIO
p2180
sg15
V2029
p2181
sg8
VW Music Radio 
p2182
ssS'883'
p2183
(dp2184
g13
V/logos/gr/mini/diveradio.gif
p2185
sg4
VINTERNET RADIO
p2186
sg15
V883
p2187
sg8
VDive Radio 
p2188
ssS'885'
p2189
(dp2190
g1776
S'http://78.46.46.214:7048'
p2191
sg13
V/logos/gr/mini/musicartclub.gif
p2192
sg4
V\u0398\u0395\u03a3\u03a3\u0391\u039b\u039f\u039d\u0399\u039a\u0397
p2193
sg15
V885
p2194
sg8
VMusic Art Club 
p2195
ssS'889'
p2196
(dp2197
g1776
S'http://www.tuningradio.gr:8000'
p2198
sg13
V/logos/gr/mini/tuningradio.gif
p2199
sg4
V\u0398\u0395\u03a3\u03a3\u0391\u039b\u039f\u039d\u0399\u039a\u0397
p2200
sg15
V889
p2201
sg8
VTuning Radio 
p2202
ssS'888'
p2203
(dp2204
g1776
S'http://s6.onweb.gr:8006'
p2205
sg13
V/logos/gr/mini/xronosfm.gif
p2206
sg4
V\u039a\u039f\u039c\u039f\u03a4H\u039d\u0397
p2207
sg15
V888
p2208
sg8
V\u03a7\u03c1\u03cc\u03bd\u03bf\u03c2 87,5
p2209
ssS'1968'
p2210
(dp2211
g1776
S'http://184.154.10.83:8390'
p2212
sg13
V/logos/gr/mini/dmrr.gif
p2213
sg4
VINTERNET RADIO
p2214
sg15
V1968
p2215
sg8
VDepressive Metal Rock Radio 
p2216
ssS'1969'
p2217
(dp2218
g1776
S'http://208.116.16.246:8222'
p2219
sg13
V/logos/gr/mini/playradiogr.gif
p2220
sg4
VINTERNET RADIO
p2221
sg15
V1969
p2222
sg8
VPlay Radio 
p2223
ssS'929'
p2224
(dp2225
g13
V/logos/gr/mini/netcruiseradio.gif
p2226
sg4
VINTERNET RADIO
p2227
sg15
V929
p2228
sg8
VNetcruise Radio 
p2229
ssS'1965'
p2230
(dp2231
g846
S'http://ss-wms-8.streamsolutions.co.uk/tligradio_gr'
p2232
sg13
V/logos/gr/mini/tlig.gif
p2233
sg4
VINTERNET RADIO
p2234
sg15
V1965
p2235
sg8
V\u0391\u03bb\u03b7\u03b8\u03b9\u03bd\u03ae \u0395\u03bd \u0398\u03b5\u03ce \u0396\u03c9\u03ae 
p2236
ssS'1966'
p2237
(dp2238
g13
V/logos/gr/mini/lagada.gif
p2239
sg4
V\u0398\u0395\u03a3\u03a3\u0391\u039b\u039f\u039d\u0399\u039a\u0397
p2240
sg15
V1966
p2241
sg8
V\u03a1\u03ac\u03b4\u03b9\u03bf \u039b\u03b1\u03b3\u03ba\u03b1\u03b4\u03ac 100,6
p2242
ssS'1967'
p2243
(dp2244
g1776
S'http://eco.onestreaming.com:8213'
p2245
sg13
V/logos/gr/mini/super995.gif
p2246
sg4
V\u03a7\u0391\u039b\u039a\u0399\u0394\u0399\u039a\u0397
p2247
sg15
V1967
p2248
sg8
VSuper Radio 99,5
p2249
ssS'1960'
p2250
(dp2251
g1776
S'http://68.168.103.13:8280'
p2252
sg13
V/logos/gr/mini/bfmiradio.gif
p2253
sg4
V\u0395\u0394\u0395\u03a3\u03a3\u0391
p2254
sg15
V1960
p2255
sg8
VB.F.M. iRadio 
p2256
ssS'809'
p2257
(dp2258
g1776
S'http://a839.l14625156838.c146251.e.lm.akamaistream.net/D/839/146251/v0001/reflector:56838'
p2259
sg13
V/logos/gr/mini/offradio.gif
p2260
sg4
V\u0398\u0395\u03a3\u03a3\u0391\u039b\u039f\u039d\u0399\u039a\u0397
p2261
sg15
V809
p2262
sg8
VOFF Radio 
p2263
ssS'1962'
p2264
(dp2265
g13
V/logos/gr/mini/involved.gif
p2266
sg4
V\u03a0\u0395\u0399\u03a1\u0391\u0399\u0391\u03a3
p2267
sg15
V1962
p2268
sg8
VInvolved Radio 
p2269
ssS'1963'
p2270
(dp2271
g1776
S'http://176.9.39.43:7008'
p2272
sg13
V/logos/gr/mini/melodiesweb.gif
p2273
sg4
V\u0391\u0398\u0397\u039d\u0391
p2274
sg15
V1963
p2275
sg8
V\u039c\u03b5\u03bb\u03c9\u03b4\u03af\u03b5\u03c2 Web Radio 
p2276
ssS'201'
p2277
(dp2278
g846
S'http://live.onestreaming.com/radionetlamia'
p2279
sg13
V/logos/gr/mini/radionetlamia.gif
p2280
sg4
V\u039b\u0391\u039c\u0399\u0391
p2281
sg15
V201
p2282
sg8
VRadio Net 101,9
p2283
ssS'203'
p2284
(dp2285
g846
S'http://dromos898.live24.gr/dromos898'
p2286
sg13
V/logos/gr/mini/dromosfm.gif
p2287
sg4
V\u0391\u0398\u0397\u039d\u0391
p2288
sg15
V203
p2289
sg8
V\u0394\u03c1\u03cc\u03bc\u03bf\u03c2 89,8
p2290
ssS'202'
p2291
(dp2292
g846
S'http://legacy-100-ams.servers.mediacdn.com/radiojukebox?95430816eded9c5d097e7456816bc09c'
p2293
sg13
V/logos/gr/mini/jukebox.gif
p2294
sg4
VINTERNET RADIO
p2295
sg15
V202
p2296
sg8
VJukeBox 
p2297
ssS'771'
p2298
(dp2299
g13
V/logos/gr/mini/danceradio.gif
p2300
sg4
VINTERNET RADIO
p2301
sg15
V771
p2302
sg8
VDance Radio - ChillOut Channel 
p2303
ssS'204'
p2304
(dp2305
g1776
S'http://eco.caststream.net:8044'
p2306
sg13
V/logos/gr/mini/peiraios.gif
p2307
sg4
V\u0391\u0398\u0397\u039d\u0391
p2308
sg15
V204
p2309
sg8
V\u03a0\u03b5\u03b9\u03c1\u03b1\u03ca\u03ba\u03ae \u0395\u03ba\u03ba\u03bb\u03b7\u03c3\u03af\u03b1 91,2
p2310
ssS'207'
p2311
(dp2312
g13
V/logos/gr/mini/starfmdm.gif
p2313
sg4
V\u0393\u03a1\u0395\u0392\u0395\u039d\u0391
p2314
sg15
V207
p2315
sg8
VStar Fm 93,3
p2316
ssS'206'
p2317
(dp2318
g1776
S'http://eco.onestreaming.com:8052'
p2319
sg13
V/logos/gr/mini/athletic.gif
p2320
sg4
V\u0397\u03a1\u0391\u039a\u039b\u0395\u0399\u039f
p2321
sg15
V206
p2322
sg8
VAthletic 104,2
p2323
ssS'209'
p2324
(dp2325
g1776
S'http://147.27.23.40:8000'
p2326
sg13
V/logos/gr/mini/radioentasi.gif
p2327
sg4
V\u03a7\u0391\u039d\u0399\u0391
p2328
sg15
V209
p2329
sg8
VRadio \u0395\u03bd\u03c4\u03b1\u03c3\u03b7 93,5
p2330
ssS'208'
p2331
(dp2332
g1776
S'http://eco.onestreaming.com:8081'
p2333
sg13
V/logos/gr/mini/liberofm.gif
p2334
sg4
V\u0398\u0395\u03a3\u03a3\u0391\u039b\u039f\u039d\u0399\u039a\u0397
p2335
sg15
V208
p2336
sg8
VLibero 107,4
p2337
ssS'779'
p2338
(dp2339
g1776
S'http://eco.onestreaming.com:8171'
p2340
sg13
V/logos/gr/mini/venusfm.gif
p2341
sg4
V\u0391\u039c\u0391\u039b\u0399\u0391\u0394\u0391
p2342
sg15
V779
p2343
sg8
VVenus 105,1
p2344
ssS'77'
p2345
(dp2346
g13
V/logos/gr/mini/anampa.gif
p2347
sg4
VINTERNET RADIO
p2348
sg15
V77
p2349
sg8
V\u03a1\u03b1\u03b4\u03b9\u03cc\u03c6\u03c9\u03bd\u03bf \u0391\u03a0\u0395 - \u039c\u03a0\u0395 
p2350
ssS'76'
p2351
(dp2352
g1776
S'http://eco.onestreaming.com:8033'
p2353
sg13
V/logos/gr/mini/livefm.gif
p2354
sg4
V\u03a7\u0391\u039b\u039a\u0399\u0394\u0391
p2355
sg15
V76
p2356
sg8
VLive fm 89,6
p2357
ssS'73'
p2358
(dp2359
g13
V/logos/gr/mini/metalzone.gif
p2360
sg4
VINTERNET RADIO
p2361
sg15
V73
p2362
sg8
VMetal Zone 
p2363
ssS'72'
p2364
(dp2365
g13
V/logos/gr/mini/nologo.gif
p2366
sg4
V\u03a7\u0391\u039b\u039a\u0399\u0394\u0399\u039a\u0397
p2367
sg15
V72
p2368
sg8
V\u0395\u03bb\u03bb\u03b7\u03bd\u03bf\u03c1\u03b8\u03cc\u03b4\u03bf\u03be\u03b7 \u03a0\u03b1\u03c1\u03b1\u03b4\u03bf\u03c3\u03b7 \u03ba \u0396\u03c9\u03ae 106
p2369
ssS'70'
p2370
(dp2371
g846
S'http://live.onestreaming.com/planetradio'
p2372
sg13
V/logos/gr/mini/planetradio.gif
p2373
sg4
V\u0399\u0395\u03a1\u0391\u03a0\u0395\u03a4\u03a1\u0391
p2374
sg15
V70
p2375
sg8
VRadio Planet 90,6
p2376
ssS'655'
p2377
(dp2378
g846
S'http://broadcast.hol.gr/cityfm'
p2379
sg13
V/logos/gr/mini/cityfm1038.gif
p2380
sg4
V\u039a\u0391\u039b\u0391\u039c\u0391\u03a4\u0391
p2381
sg15
V655
p2382
sg8
VCity Fm 103,8
p2383
ssS'1769'
p2384
(dp2385
g13
V/logos/gr/mini/extremeradiogr.gif
p2386
sg4
VINTERNET RADIO
p2387
sg15
V1769
p2388
sg8
VExtreme Radio 
p2389
ssS'359'
p2390
(dp2391
g1776
S'http://iradio.phaseradio.gr:8035/phaseradio'
p2392
sg13
V/logos/gr/mini/phaseradio.gif
p2393
sg4
V\u039b\u0391\u039c\u0399\u0391
p2394
sg15
V359
p2395
sg8
VPhase Radio 87,7
p2396
ssS'1762'
p2397
(dp2398
g13
V/logos/gr/mini/klikfm1062.gif
p2399
sg4
V\u03a1\u039f\u0394\u039f\u03a3
p2400
sg15
V1762
p2401
sg8
V\u039a\u039b\u0399\u039a FM 106,2
p2402
ssS'1763'
p2403
(dp2404
g1776
S'http://188.121.60.170:6002'
p2405
sg13
V/logos/gr/mini/gagaradio.gif
p2406
sg4
V\u039a\u0395\u03a1\u039a\u03a5\u03a1\u0391
p2407
sg15
V1763
p2408
sg8
VGaga Radio 
p2409
ssS'1760'
p2410
(dp2411
g846
S'http://live.onestreaming.com/mouspalmos945'
p2412
sg13
V/logos/gr/mini/mouspalmos945.gif
p2413
sg4
V\u039d\u0395\u0391\u03a0\u039f\u039b\u0397
p2414
sg15
V1760
p2415
sg8
V\u039c\u03bf\u03c5\u03c3\u03b9\u03ba\u03cc\u03c2 \u03a0\u03b1\u03bb\u03bc\u03cc\u03c2 94,5
p2416
ssS'1761'
p2417
(dp2418
g846
S'http://live.onestreaming.com/diastasis'
p2419
sg13
V/logos/gr/mini/diastasis.gif
p2420
sg4
VINTERNET RADIO
p2421
sg15
V1761
p2422
sg8
V\u0394\u03b9\u03ac\u03c3\u03c4\u03b1\u03c3\u03b9\u03c2 
p2423
ssS'1766'
p2424
(dp2425
g846
S'http://live.onestreaming.com/sky913fm'
p2426
sg13
V/logos/gr/mini/sky913fm.gif
p2427
sg4
V\u03a1\u0395\u0398\u03a5\u039c\u039d\u039f
p2428
sg15
V1766
p2429
sg8
VSky FM 91,3
p2430
ssS'1767'
p2431
(dp2432
g13
V/logos/gr/mini/radiomora.gif
p2433
sg4
VINTERNET RADIO
p2434
sg15
V1767
p2435
sg8
VRadio Mora 
p2436
ssS'1764'
p2437
(dp2438
g13
V/logos/gr/mini/mandra.gif
p2439
sg4
VINTERNET RADIO
p2440
sg15
V1764
p2441
sg8
VMandra Radio 
p2442
ssS'1765'
p2443
(dp2444
g13
V/logos/gr/mini/oscar909.gif
p2445
sg4
V\u039b\u0391\u039c\u0399\u0391
p2446
sg15
V1765
p2447
sg8
VOscar FM 90,9
p2448
ssS'216'
p2449
(dp2450
g13
V/logos/gr/mini/ant1kerkyra.gif
p2451
sg4
V\u039a\u0395\u03a1\u039a\u03a5\u03a1\u0391
p2452
sg15
V216
p2453
sg8
VAntenna \u039a\u03ad\u03c1\u03ba\u03c5\u03c1\u03b1 92,6
p2454
ssS'1789'
p2455
(dp2456
g846
S'http://netradio.live24.gr/heart939'
p2457
sg13
V/logos/gr/mini/heart939.gif
p2458
sg4
V\u03a7\u0391\u039b\u039a\u0399\u0394\u0391
p2459
sg15
V1789
p2460
sg8
VHeart 93,9
p2461
ssS'667'
p2462
(dp2463
g1776
S'http://relay4.mindradio.gr:80/live'
p2464
sg13
V/logos/gr/mini/mindradio.gif
p2465
sg4
VINTERNET RADIO
p2466
sg15
V667
p2467
sg8
VMind Radio Conn-X 
p2468
ssS'665'
p2469
(dp2470
g846
S'http://broadcast.hol.gr/kanali20'
p2471
sg13
V/logos/gr/mini/kanali20.gif
p2472
sg4
V\u039a\u0391\u039b\u0391\u039c\u0391\u03a4\u0391
p2473
sg15
V665
p2474
sg8
V\u039a\u03b1\u03bd\u03ac\u03bb\u03b9 20 107,5
p2475
ssS'664'
p2476
(dp2477
g1776
S'http://s1.onweb.gr:8022'
p2478
sg13
V/logos/gr/mini/anatolikos.gif
p2479
sg4
V\u0391\u03a1\u0393\u039f\u03a3
p2480
sg15
V664
p2481
sg8
V\u0391\u03bd\u03b1\u03c4\u03bf\u03bb\u03b9\u03ba\u03cc\u03c2 Fm 95,8
p2482
ssS'662'
p2483
(dp2484
g1776
S'http://208.43.121.133:8850'
p2485
sg13
V/logos/gr/mini/paradiseradio.gif
p2486
sg4
V\u0391\u0398\u0397\u039d\u0391
p2487
sg15
V662
p2488
sg8
VParadise Radio 104,6
p2489
ssS'661'
p2490
(dp2491
g846
S'http://101fm.dyndns.tv:8002'
p2492
sg13
V/logos/gr/mini/radio1serres.gif
p2493
sg4
V\u03a3\u0395\u03a1\u03a1\u0395\u03a3
p2494
sg15
V661
p2495
sg8
VRadio 1 101
p2496
ssS'660'
p2497
(dp2498
g13
V/logos/gr/mini/aquarius.gif
p2499
sg4
V\u03a0\u03a5\u03a1\u0393\u039f\u03a3
p2500
sg15
V660
p2501
sg8
VAquarius Fm 105,5
p2502
ssS'769'
p2503
(dp2504
g13
V/logos/gr/mini/uplifted.gif
p2505
sg4
VINTERNET RADIO
p2506
sg15
V769
p2507
sg8
VUpLifted 
p2508
ssS'2013'
p2509
(dp2510
g846
S'http://live.onestreaming.com/apopsi'
p2511
sg13
V/logos/gr/mini/apopsi.gif
p2512
sg4
V\u039a\u0391\u039b\u0391\u039c\u0391\u03a4\u0391
p2513
sg15
V2013
p2514
sg8
V\u03a1\u03ac\u03b4\u03b9\u03bf \u0391\u03c0\u03bf\u03c8\u03b7 
p2515
ssS'692'
p2516
(dp2517
g846
S'http://groove.wavestreamer.com:4396'
p2518
sg13
V/logos/gr/mini/radio996.gif
p2519
sg4
V\u03a7\u0391\u039d\u0399\u0391
p2520
sg15
V692
p2521
sg8
V99,6 Radio 
p2522
ssS'693'
p2523
(dp2524
g13
V/logos/gr/mini/dertifmdode.gif
p2525
sg4
V\u03a1\u039f\u0394\u039f\u03a3
p2526
sg15
V693
p2527
sg8
VDerti Fm 104,9
p2528
ssS'691'
p2529
(dp2530
g846
S'http://live.onestreaming.com/lampsifmcrete'
p2531
sg13
V/logos/gr/mini/lampsifmcrete.gif
p2532
sg4
V\u0397\u03a1\u0391\u039a\u039b\u0395\u0399\u039f
p2533
sg15
V691
p2534
sg8
VLampsi Fm 92,9
p2535
ssS'697'
p2536
(dp2537
g1776
S'http://208.43.115.44:9578'
p2538
sg13
V/logos/gr/mini/astrosradio.gif
p2539
sg4
VINTERNET RADIO
p2540
sg15
V697
p2541
sg8
VAstros Radio 
p2542
ssS'694'
p2543
(dp2544
g13
V/logos/gr/mini/fm100.gif
p2545
sg4
V\u0398\u0395\u03a3\u03a3\u0391\u039b\u039f\u039d\u0399\u039a\u0397
p2546
sg15
V694
p2547
sg8
VFM100 100
p2548
ssS'695'
p2549
(dp2550
g13
V/logos/gr/mini/vox1033.gif
p2551
sg4
V\u03a0\u03a5\u03a1\u0393\u039f\u03a3
p2552
sg15
V695
p2553
sg8
VVox 103,3
p2554
ssS'699'
p2555
(dp2556
g1776
S'http://www.gointernet.gr:8007'
p2557
sg13
V/logos/gr/mini/dolceradio.gif
p2558
sg4
V\u0392\u039f\u039b\u039f\u03a3
p2559
sg15
V699
p2560
sg8
VDolce Radio 89,5
p2561
ssS'1780'
p2562
(dp2563
g13
V/logos/gr/mini/classicalradio.gif
p2564
sg4
VINTERNET RADIO
p2565
sg15
V1780
p2566
sg8
VClassical Radio 
p2567
ssS'540'
p2568
(dp2569
g1776
S'http://stream.greekradios.gr:2042'
p2570
sg13
V/logos/gr/mini/velvet968.gif
p2571
sg4
V\u0398\u0395\u03a3\u03a3\u0391\u039b\u039f\u039d\u0399\u039a\u0397
p2572
sg15
V540
p2573
sg8
VVelvet 96,8
p2574
ssS'546'
p2575
(dp2576
g846
S'http://live.onestreaming.com/novamusic'
p2577
sg13
V/logos/gr/mini/novamusic.gif
p2578
sg4
V\u039e\u0391\u039d\u0398\u0397
p2579
sg15
V546
p2580
sg8
VNova Radio 93,1
p2581
ssS'547'
p2582
(dp2583
g846
S'http://live.onestreaming.com/radiokimata'
p2584
sg13
V/logos/gr/mini/radiokimatare.gif
p2585
sg4
V\u03a1\u0395\u0398\u03a5\u039c\u039d\u039f
p2586
sg15
V547
p2587
sg8
V\u03a1\u03b1\u03b4\u03b9\u03bf\u03ba\u03cd\u03bc\u03b1\u03c4\u03b1 102,6
p2588
ssS'544'
p2589
(dp2590
g1776
S'http://eco.onestreaming.com:8185'
p2591
sg13
V/logos/gr/mini/drt.gif
p2592
sg4
V\u03a4\u03a1\u0399\u03a0\u039f\u039b\u0397
p2593
sg15
V544
p2594
sg8
V\u0394\u03b7\u03bc\u03bf\u03c4\u03b9\u03ba\u03cc \u03a4\u03c1\u03af\u03c0\u03bf\u03bb\u03b7\u03c2 91,5
p2595
ssS'545'
p2596
(dp2597
g846
S'http://wm3.greekstream.net/kalamariafm?.wma'
p2598
sg13
V/logos/gr/mini/kalamariafm.gif
p2599
sg4
V\u0398\u0395\u03a3\u03a3\u0391\u039b\u039f\u039d\u0399\u039a\u0397
p2600
sg15
V545
p2601
sg8
V\u039a\u03b1\u03bb\u03b1\u03bc\u03b1\u03c1\u03b9\u03ac FM 101,7
p2602
ssS'8'
(dp2603
g1776
S'http://eco.onestreaming.com:8211'
p2604
sg13
V/logos/gr/mini/arionkids.gif
p2605
sg4
V\u0391\u0398\u0397\u039d\u0391
p2606
sg15
V8
sg8
VArion Kids 
p2607
ssS'1466'
p2608
(dp2609
g13
V/logos/gr/mini/enallaxintradio.gif
p2610
sg4
VINTERNET RADIO
p2611
sg15
V1466
p2612
sg8
VEnallax Radio 
p2613
ssS'11'
p2614
(dp2615
g1776
S'http://eco.onestreaming.com:8103'
p2616
sg13
V/logos/gr/mini/kissavos.gif
p2617
sg4
V\u039b\u0391\u03a1\u0399\u03a3\u0391
p2618
sg15
V11
p2619
sg8
V\u03a1\u03b1\u03b4\u03b9\u03bf\u03c6\u03c9\u03bd\u03af\u03b1 \u039a\u03b9\u03c3\u03c3\u03ac\u03b2\u03bf\u03c5 97,8
p2620
ssS'993'
p2621
(dp2622
g846
S'http://shout.streamwithq.gr:4038'
p2623
sg13
V/logos/gr/mini/nologo.gif
p2624
sg4
V\u039b\u0397\u039c\u039d\u039f\u03a3
p2625
sg15
V993
p2626
sg8
V\u03a1\u03ac\u03b4\u03b9\u03bf A\u03bb\u03c6\u03b1 96
p2627
ssS'120'
p2628
(dp2629
g846
S'http://a1933.l3271921932.c32719.g.lm.akamaistream.net/D/1933/32719/v0001/reflector:21932'
p2630
sg13
V/logos/gr/mini/trito.gif
p2631
sg4
V\u0398\u0395\u03a3\u03a3\u0391\u039b\u039f\u039d\u0399\u039a\u0397
p2632
sg15
V120
p2633
sg8
V\u0395\u03a1\u03913 \u0393' \u03a0\u03c1\u03cc\u03b3\u03c1\u03b1\u03bc\u03bc\u03b1 
p2634
ssS'123'
p2635
(dp2636
g1776
S'http://eco.onestreaming.com:8237/live'
p2637
sg13
V/logos/gr/mini/radio984.gif
p2638
sg4
V\u0397\u03a1\u0391\u039a\u039b\u0395\u0399\u039f
p2639
sg15
V123
p2640
sg8
VRadio 984 
p2641
ssS'124'
p2642
(dp2643
g13
V/logos/gr/mini/radiokriti.gif
p2644
sg4
V\u0397\u03a1\u0391\u039a\u039b\u0395\u0399\u039f
p2645
sg15
V124
p2646
sg8
V\u03a1\u03ac\u03b4\u03b9\u03bf \u039a\u03c1\u03ae\u03c4\u03b7 101,5
p2647
ssS'1786'
p2648
(dp2649
g846
S'http://stream.athenswinder.com:8000/athenswinder'
p2650
sg13
V/logos/gr/mini/athenswinder.gif
p2651
sg4
VINTERNET RADIO
p2652
sg15
V1786
p2653
sg8
VAthens Winder Radio 
p2654
ssS'126'
p2655
(dp2656
g1776
S'http://s1.onweb.gr:8800'
p2657
sg13
V/logos/gr/mini/star888.gif
p2658
sg4
V\u039a\u0395\u03a1\u039a\u03a5\u03a1\u0391
p2659
sg15
V126
p2660
sg8
VStar Fm \u039a\u03ad\u03c1\u03ba\u03c5\u03c1\u03b1 88,8
p2661
ssS'1829'
p2662
(dp2663
g13
V/logos/gr/mini/leukadanews.gif
p2664
sg4
V\u039b\u0395\u03a5\u039a\u0391\u0394\u0391
p2665
sg15
V1829
p2666
sg8
V\u039b\u03b5\u03c5\u03ba\u03ac\u03b4\u03b1 News 
p2667
ssS'1828'
p2668
(dp2669
g13
V/logos/gr/mini/radioyet.gif
p2670
sg4
VINTERNET RADIO
p2671
sg15
V1828
p2672
sg8
VRadio YET 
p2673
ssS'1824'
p2674
(dp2675
g13
V/logos/gr/mini/globalgr.gif
p2676
sg4
V\u03a4\u03a1\u0399\u03a0\u039f\u039b\u0397
p2677
sg15
V1824
p2678
sg8
VGlobal Radio 
p2679
ssS'1827'
p2680
(dp2681
g846
S'http://starradio.no-ip.biz:2380'
p2682
sg13
V/logos/gr/mini/starsymi.gif
p2683
sg4
V\u03a3\u03a5\u039c\u0397
p2684
sg15
V1827
p2685
sg8
VStar Radio 106,7
p2686
ssS'1826'
p2687
(dp2688
g1776
S'http://69.175.39.146:8348'
p2689
sg13
V/logos/gr/mini/manaellada.gif
p2690
sg4
VINTERNET RADIO
p2691
sg15
V1826
p2692
sg8
V\u039c\u03ac\u03bd\u03b1 \u0395\u03bb\u03bb\u03ac\u03b4\u03b1 
p2693
ssS'1821'
p2694
(dp2695
g13
V/logos/gr/mini/musiclovers.gif
p2696
sg4
VINTERNET RADIO
p2697
sg15
V1821
p2698
sg8
VMusic Lovers 
p2699
ssS'1820'
p2700
(dp2701
g13
V/logos/gr/mini/athensfm.gif
p2702
sg4
V\u0391\u0398\u0397\u039d\u0391
p2703
sg15
V1820
p2704
sg8
VAthens FM 
p2705
ssS'1823'
p2706
(dp2707
g1776
S'http://uk1-vn.mixstream.net:9876'
p2708
sg13
V/logos/gr/mini/akroama978.gif
p2709
sg4
V\u039a\u0391\u0392\u0391\u039b\u0391
p2710
sg15
V1823
p2711
sg8
V\u0391\u03ba\u03c1\u03cc\u03b1\u03bc\u03b1 97,8
p2712
ssS'1822'
p2713
(dp2714
g13
V/logos/gr/mini/athens111.gif
p2715
sg4
VINTERNET RADIO
p2716
sg15
V1822
p2717
sg8
VAthens 111 FM 
p2718
ssS'414'
p2719
(dp2720
g1776
S'http://eu02.egihosting.com:9108'
p2721
sg13
V/logos/gr/mini/heatfm.gif
p2722
sg4
V\u0391\u039b\u0395\u039e\u0391\u039d\u0394\u03a1\u039f\u03a5\u03a0\u039f\u039b\u0397
p2723
sg15
V414
p2724
sg8
VHeat Radio 88,3
p2725
ssS'415'
p2726
(dp2727
g1569
S'http://stokokkino.gr:8000/stream'
p2728
sg13
V/logos/gr/mini/kokkino.gif
p2729
sg4
V\u0391\u0398\u0397\u039d\u0391
p2730
sg15
V415
p2731
sg8
VSto Kokkino 105,5
p2732
ssS'417'
p2733
(dp2734
g13
V/logos/gr/mini/capitalradio.gif
p2735
sg4
V\u03a1\u0395\u0398\u03a5\u039c\u039d\u039f
p2736
sg15
V417
p2737
sg8
VCapital Radio 90,7
p2738
ssS'412'
p2739
(dp2740
g846
S'http://live.onestreaming.com/radioelassona'
p2741
sg13
V/logos/gr/mini/elassona.gif
p2742
sg4
V\u0395\u039b\u0391\u03a3\u03a3O\u039d\u0391
p2743
sg15
V412
p2744
sg8
VRadio \u0395\u03bb\u03b1\u03c3\u03c3\u03ce\u03bd\u03b1 88,4
p2745
ssS'413'
p2746
(dp2747
g1776
S'http://rso.isolservers.com:8200'
p2748
sg13
V/logos/gr/mini/rso.gif
p2749
sg4
V\u0398\u0395\u03a3\u03a3\u0391\u039b\u039f\u039d\u0399\u039a\u0397
p2750
sg15
V413
p2751
sg8
VRSO 91,7
p2752
ssS'1384'
p2753
(dp2754
g1776
S'http://eco.onestreaming.com:8264'
p2755
sg13
V/logos/gr/mini/imf894.gif
p2756
sg4
V\u039b\u0391\u039c\u0399\u0391
p2757
sg15
V1384
p2758
sg8
V\u0399.\u039c. \u03a6\u03b8\u03b9\u03ce\u03c4\u03b9\u03b4\u03b1\u03c2 89,4
p2759
ssS'498'
p2760
(dp2761
g13
V/logos/gr/mini/radiomastixa.gif
p2762
sg4
V\u03a7\u0399\u039f\u03a3
p2763
sg15
V498
p2764
sg8
VRadio Mastixa 107,7
p2765
ssS'923'
p2766
(dp2767
g13
V/logos/gr/mini/siriosfm.gif
p2768
sg4
V\u039b\u0399\u0392\u0391\u0394\u0395\u0399\u0391
p2769
sg15
V923
p2770
sg8
V\u03a3\u03b5\u03af\u03c1\u03b9\u03bf\u03c2 FM 
p2771
ssS'924'
p2772
(dp2773
g1776
S'http://109.169.26.78:9294'
p2774
sg13
V/logos/gr/mini/moodradiio.gif
p2775
sg4
VINTERNET RADIO
p2776
sg15
V924
p2777
sg8
VMood Radio 
p2778
ssS'136'
p2779
(dp2780
g1776
S'http://rockradio.gr:1111'
p2781
sg13
V/logos/gr/mini/rockradio.gif
p2782
sg4
V\u0398\u0395\u03a3\u03a3\u0391\u039b\u039f\u039d\u0399\u039a\u0397
p2783
sg15
V136
p2784
sg8
VRock Radio 104,7
p2785
ssS'313'
p2786
(dp2787
g1776
S'http://s1.onweb.gr:8856'
p2788
sg13
V/logos/gr/mini/kosmos100.gif
p2789
sg4
V\u03a7\u0391\u039b\u039a\u0399\u0394\u0391
p2790
sg15
V313
p2791
sg8
V\u03a1\u03ac\u03b4\u03b9\u03bf \u039a\u03cc\u03c3\u03bc\u03bf\u03c2 100
p2792
ssS'312'
p2793
(dp2794
g1776
S'http://stream2.proradio.gr:8004/anemos'
p2795
sg13
V/logos/gr/mini/agriniofm937.gif
p2796
sg4
V\u0391\u0393\u03a1\u0399\u039d\u0399\u039f
p2797
sg15
V312
p2798
sg8
V\u0391\u03b3\u03c1\u03af\u03bd\u03b9\u03bf FM 93,7
p2799
ssS'311'
p2800
(dp2801
g1776
S'http://193.164.131.52:8000'
p2802
sg13
V/logos/gr/mini/pirateradio.gif
p2803
sg4
V\u03a7\u0399\u039f\u03a3
p2804
sg15
V311
p2805
sg8
VPirate Radio 91
p2806
ssS'310'
p2807
(dp2808
g1776
S'http://s1.onweb.gr:8838'
p2809
sg13
V/logos/gr/mini/maxfm.gif
p2810
sg4
V\u0391\u039b\u0395\u039e\u0391\u039d\u0394\u03a1\u039f\u03a5\u03a0\u039f\u039b\u0397
p2811
sg15
V310
p2812
sg8
VMaximum FM 93,6
p2813
ssS'316'
p2814
(dp2815
g13
V/logos/gr/mini/alitheia.gif
p2816
sg4
V\u03a7\u0399\u039f\u03a3
p2817
sg15
V316
p2818
sg8
VA\u03bb\u03ae\u03b8\u03b5\u03b9\u03b1 95,7
p2819
ssS'314'
p2820
(dp2821
g1776
S'http://s3.onweb.gr:8032'
p2822
sg13
V/logos/gr/mini/dcode.gif
p2823
sg4
V\u03a7\u0391\u039d\u0399\u0391
p2824
sg15
V314
p2825
sg8
VD-Code 96,2
p2826
ssS'1920'
p2827
(dp2828
g846
S'http://live.onestreaming.com/just964'
p2829
sg13
V/logos/gr/mini/justr964.gif
p2830
sg4
V\u039a\u039f\u03a1\u0399\u039d\u0398\u039f\u03a3
p2831
sg15
V1920
p2832
sg8
VJust Radio 96,4
p2833
ssS'1922'
p2834
(dp2835
g13
V/logos/gr/mini/nologo.gif
p2836
sg4
V\u039a\u039f\u03a1\u0399\u039d\u0398\u039f\u03a3
p2837
sg15
V1922
p2838
sg8
VNovel 91,8
p2839
ssS'1923'
p2840
(dp2841
g13
V/logos/gr/mini/virgin1045.gif
p2842
sg4
V\u03a1\u039f\u0394\u039f\u03a3
p2843
sg15
V1923
p2844
sg8
VVirgin 104,5
p2845
ssS'1926'
p2846
(dp2847
g13
V/logos/gr/mini/facegreek.gif
p2848
sg4
VINTERNET RADIO
p2849
sg15
V1926
p2850
sg8
VFaceGreek WebRadio 
p2851
ssS'1929'
p2852
(dp2853
g1776
S'http://208.43.81.168:8739/stream'
p2854
sg13
V/logos/gr/mini/mwordr.gif
p2855
sg4
VINTERNET RADIO
p2856
sg15
V1929
p2857
sg8
VM-Word Web Radio 
p2858
ssS'832'
p2859
(dp2860
g846
S'http://live.onestreaming.com/greek4u'
p2861
sg13
V/logos/gr/mini/greek4u.gif
p2862
sg4
VDUSSELDORF
p2863
sg15
V832
p2864
sg8
VGR4U 
p2865
ssS'830'
p2866
(dp2867
g846
S'http://live.onestreaming.com/radiosamos'
p2868
sg13
V/logos/gr/mini/radiosamos.gif
p2869
sg4
V\u03a3\u0391\u039c\u039f\u03a3
p2870
sg15
V830
p2871
sg8
V\u03a1\u03ac\u03b4\u03b9\u03bf \u03a3\u03ac\u03bc\u03bf\u03c2 102
p2872
ssS'831'
p2873
(dp2874
g846
S'http://live.onestreaming.com/anemosfm'
p2875
sg13
V/logos/gr/mini/anemosfm.gif
p2876
sg4
V\u03a3\u0391\u039c\u039f\u03a3
p2877
sg15
V831
p2878
sg8
V\u0391\u03bd\u03b5\u03bc\u03bf\u03c2 95,6
p2879
ssS'836'
p2880
(dp2881
g846
S'http://live.onestreaming.com/blackman'
p2882
sg13
V/logos/gr/mini/blackman.gif
p2883
sg4
VINTERNET RADIO
p2884
sg15
V836
p2885
sg8
VBlackMan 
p2886
ssS'838'
p2887
(dp2888
g1776
S'http://eco.onestreaming.com:8324'
p2889
sg13
V/logos/gr/mini/rodonfm.gif
p2890
sg4
V\u03a3\u0395\u03a1\u03a1\u0395\u03a3
p2891
sg15
V838
p2892
sg8
V\u03a1\u03cc\u03b4\u03bf\u03bd Fm 95
p2893
ssS'839'
p2894
(dp2895
g1776
S'http://s3.onweb.gr:8524'
p2896
sg13
V/logos/gr/mini/international.gif
p2897
sg4
V\u0399\u03a9\u0391\u039d\u039d\u0399\u039d\u0391
p2898
sg15
V839
p2899
sg8
VInternational 107,5
p2900
ssS'3'
(dp2901
g846
S'http://golive.onestreaming.com/velvetfm'
p2902
sg13
V/logos/gr/mini/velvet.gif
p2903
sg4
V\u0391\u0398\u0397\u039d\u0391
p2904
sg15
V3
sg8
VVelvet.Fm 
p2905
ssS'360'
p2906
(dp2907
g846
S'http://62.1.195.86:2281'
p2908
sg13
V/logos/gr/mini/xiaki.gif
p2909
sg4
V\u03a7\u0399\u039f\u03a3
p2910
sg15
V360
p2911
sg8
V\u03a7\u03b9\u03b1\u03ba\u03ae \u03a6\u03c9\u03bd\u03ae 90
p2912
ssS'26'
p2913
(dp2914
g1776
S'http://eco.onestreaming.com:8093'
p2915
sg13
V/logos/gr/mini/shaker.gif
p2916
sg4
V\u0398\u0395\u03a3\u03a3\u0391\u039b\u039f\u039d\u0399\u039a\u0397
p2917
sg15
V26
p2918
sg8
VShaker Radio 
p2919
ssS'446'
p2920
(dp2921
g13
V/logos/gr/mini/horizon.gif
p2922
sg4
V\u03a4\u03a1\u0399\u03a0\u039f\u039b\u0397
p2923
sg15
V446
p2924
sg8
VHorizon 96,5
p2925
ssS'1831'
p2926
(dp2927
g13
V/logos/gr/mini/avrilissia.gif
p2928
sg4
V\u0391\u0398\u0397\u039d\u0391
p2929
sg15
V1831
p2930
sg8
V\u03a1\u03b1\u03b4\u03b9\u03cc\u03c6\u03c9\u03bd\u03bf \u0386\u03bd\u03c9 \u0392\u03c1\u03b9\u03bb\u03b7\u03c3\u03c3\u03af\u03c9\u03bd 
p2931
ssS'389'
p2932
(dp2933
g846
S'http://plaisioradio.live24.gr/plaisioradio'
p2934
sg13
V/logos/gr/mini/plaisioradio.gif
p2935
sg4
VINTERNET RADIO
p2936
sg15
V389
p2937
sg8
VPlaisio Radio 
p2938
ssS'785'
p2939
(dp2940
g1776
S'http://s5.onweb.gr:8030'
p2941
sg13
V/logos/gr/mini/nrgdramas.gif
p2942
sg4
V\u0394\u03a1\u0391\u039c\u0391
p2943
sg15
V785
p2944
sg8
VEnergy Radio 88,9
p2945
ssS'786'
p2946
(dp2947
g1776
S'http://shout.streamwithq.gr:4064'
p2948
sg13
V/logos/gr/mini/gavdosfm.gif
p2949
sg4
V\u0393\u0391Y\u0394\u039f\u03a3
p2950
sg15
V786
p2951
sg8
V\u0393\u03b1\u03cd\u03b4\u03bf\u03c2 Fm 88,8
p2952
ssS'787'
p2953
(dp2954
g1776
S'http://s6.onweb.gr:8042'
p2955
sg13
V/logos/gr/mini/tichero.gif
p2956
sg4
V\u0391\u039b\u0395\u039e\u0391\u039d\u0394\u03a1\u039f\u03a5\u03a0\u039f\u039b\u0397
p2957
sg15
V787
p2958
sg8
V926FM (\u0394\u0397\u039c\u039f\u03a3 \u03a3\u039f\u03a5\u03a6\u039b\u0399\u039f\u03a5) 92,6
p2959
ssS'780'
p2960
(dp2961
g1776
S'http://shout.plusradio.gr:8120'
p2962
sg13
V/logos/gr/mini/plusradio.gif
p2963
sg4
V\u0398\u0395\u03a3\u03a3\u0391\u039b\u039f\u039d\u0399\u039a\u0397
p2964
sg15
V780
p2965
sg8
VPlus Radio 102,6
p2966
ssS'781'
p2967
(dp2968
g13
V/logos/gr/mini/eugreeka.gif
p2969
sg4
VINTERNET RADIO
p2970
sg15
V781
p2971
sg8
VEugreeka Radio 
p2972
ssS'788'
p2973
(dp2974
g13
V/logos/gr/mini/max925.gif
p2975
sg4
V\u0397\u03a1\u0391\u039a\u039b\u0395\u0399\u039f
p2976
sg15
V788
p2977
sg8
VMax Fm 92,5
p2978
ssS'61'
p2979
(dp2980
g1776
S'http://uk3-vn.mixstream.net:8256'
p2981
sg13
V/logos/gr/mini/metroradio.gif
p2982
sg4
V\u0397\u03a1\u0391\u039a\u039b\u0395\u0399\u039f
p2983
sg15
V61
p2984
sg8
VMetro Radio 89,2
p2985
ssS'62'
p2986
(dp2987
g13
V/logos/gr/mini/radiopoint.gif
p2988
sg4
VINTERNET RADIO
p2989
sg15
V62
p2990
sg8
VRadio Point 
p2991
ssS'67'
p2992
(dp2993
g846
S'http://live.onestreaming.com/methorios'
p2994
sg13
V/logos/gr/mini/methorios.gif
p2995
sg4
V\u039f\u03a1\u0395\u03a3\u03a4\u0399\u0391\u0394\u0391
p2996
sg15
V67
p2997
sg8
V\u039c\u03b5\u03b8\u03cc\u03c1\u03b9\u03bf\u03c2 96
p2998
ssS'68'
p2999
(dp3000
g1776
S'http://eco.onestreaming.com:8298'
p3001
sg13
V/logos/gr/mini/capital977.gif
p3002
sg4
V\u039a\u0391\u03a4\u0395\u03a1\u0399\u039d\u0397
p3003
sg15
V68
p3004
sg8
VCapital 97,7
p3005
ssS'256'
p3006
(dp3007
g1776
S'http://46.4.65.194:8011'
p3008
sg13
V/logos/gr/mini/stylefm.gif
p3009
sg4
V\u0391\u03a1\u0393\u039f\u03a3
p3010
sg15
V256
p3011
sg8
VStyle Fm 89,6
p3012
ssS'1172'
p3013
(dp3014
g846
S'http://live.onestreaming.com/soundelectronic'
p3015
sg13
V/logos/gr/mini/soundelectronic.gif
p3016
sg4
VINTERNET RADIO
p3017
sg15
V1172
p3018
sg8
VSound Electronic 
p3019
ssS'731'
p3020
(dp3021
g846
S'http://radiogamma.live24.gr/radiogamma'
p3022
sg13
V/logos/gr/mini/radiogamma.gif
p3023
sg4
V\u03a0\u0391\u03a4\u03a1\u0391
p3024
sg15
V731
p3025
sg8
V\u03a1\u03ac\u03b4\u03b9\u03bf \u0393\u03ac\u03bc\u03bc\u03b1 94
p3026
ssS'730'
p3027
(dp3028
g13
V/logos/gr/mini/vimafm.gif
p3029
sg4
V\u0399\u03a9\u0391\u039d\u039d\u0399\u039d\u0391
p3030
sg15
V730
p3031
sg8
V\u0392\u03ae\u03bc\u03b1 Fm 90,1
p3032
ssS'733'
p3033
(dp3034
g13
V/logos/gr/mini/stoxosfm.gif
p3035
sg4
V\u0398\u0391\u03a3\u039f\u03a3
p3036
sg15
V733
p3037
sg8
V\u03a3\u03c4\u03cc\u03c7\u03bf\u03c2 Fm 98,9
p3038
ssS'404'
p3039
(dp3040
g1776
S'http://eco.onestreaming.com:8189'
p3041
sg13
V/logos/gr/mini/rythmos988.gif
p3042
sg4
V\u039b\u0391\u03a1\u0399\u03a3\u0391
p3043
sg15
V404
p3044
sg8
V\u03a1\u03c5\u03b8\u03bc\u03cc\u03c2 98,8
p3045
ssS'737'
p3046
(dp3047
g1776
S'http://95.211.4.241:8004'
p3048
sg13
V/logos/gr/mini/bravo.gif
p3049
sg4
V\u0396\u0391\u039a\u03a5\u039d\u0398\u039f\u03a3
p3050
sg15
V737
p3051
sg8
VBravo 89,6
p3052
ssS'736'
p3053
(dp3054
g1776
S'http://94.23.159.115:8088'
p3055
sg13
V/logos/gr/mini/safari1047.gif
p3056
sg4
V\u0399\u03a9\u0391\u039d\u039d\u0399\u039d\u0391
p3057
sg15
V736
p3058
sg8
VSafari 104,7
p3059
ssS'1032'
p3060
(dp3061
g846
S'http://legacy-100-ams.servers.mediacdn.com/metrovolos882'
p3062
sg13
V/logos/gr/mini/metrofmvolos.gif
p3063
sg4
V\u0392\u039f\u039b\u039f\u03a3
p3064
sg15
V1032
p3065
sg8
V\u039c\u03b5\u03c4\u03c1\u03cc FM 88,2
p3066
ssS'504'
p3067
(dp3068
g1776
S'http://78.46.37.77:8001/stream'
p3069
sg13
V/logos/gr/mini/radioevros.gif
p3070
sg4
V\u039f\u03a1\u0395\u03a3\u03a4\u0399\u0391\u0394\u0391
p3071
sg15
V504
p3072
sg8
VRadio Evros 97,1
p3073
ssS'1031'
p3074
(dp3075
g1776
S'http://eco.onestreaming.com:8019'
p3076
sg13
V/logos/gr/mini/monaxikidiakonia.gif
p3077
sg4
V\u0392\u039f\u039b\u039f\u03a3
p3078
sg15
V1031
p3079
sg8
V\u039c\u03bf\u03bd\u03b1\u03c7\u03b9\u03ba\u03ae \u0394\u03b9\u03b1\u03ba\u03bf\u03bd\u03af\u03b1 87,5
p3080
ssS'503'
p3081
(dp3082
g13
V/logos/gr/mini/loungemotion.gif
p3083
sg4
VINTERNET RADIO
p3084
sg15
V503
p3085
sg8
VLounge MotionFm 
p3086
ssS'501'
p3087
(dp3088
g1776
S'http://eco.onestreaming.com:8129'
p3089
sg13
V/logos/gr/mini/melodiafm.gif
p3090
sg4
V\u039b\u0391\u039c\u0399\u0391
p3091
sg15
V501
p3092
sg8
V\u039c\u03b5\u03bb\u03c9\u03b4\u03af\u03b1 Fm 88
p3093
ssS'630'
p3094
(dp3095
g1776
S'http://95.211.4.241:8006'
p3096
sg13
V/logos/gr/mini/islandfm.gif
p3097
sg4
V\u0396\u0391\u039a\u03a5\u039d\u0398\u039f\u03a3
p3098
sg15
V630
p3099
sg8
VIsland Fm 88,6
p3100
ssS'631'
p3101
(dp3102
g846
S'http://live.onestreaming.com/city93'
p3103
sg13
V/logos/gr/mini/city93.gif
p3104
sg4
V\u039a\u03a9\u03a3
p3105
sg15
V631
p3106
sg8
VCity 93
p3107
ssS'1211'
p3108
(dp3109
g846
S'http://live.onestreaming.com/hitfm1035'
p3110
sg13
V/logos/gr/mini/hitfm1035.gif
p3111
sg4
V\u03a7\u0391\u039b\u039a\u0399\u0394\u0391
p3112
sg15
V1211
p3113
sg8
VHit FM 103,5
p3114
ssS'469'
p3115
(dp3116
g1776
S'http://live-stream.all-host.gr:8316'
p3117
sg13
V/logos/gr/mini/ixosfm.gif
p3118
sg4
V\u03a1\u0395\u0398\u03a5\u039c\u039d\u039f
p3119
sg15
V469
p3120
sg8
V\u0389\u03c7\u03bf\u03c2 Fm 94,2
p3121
ssS'468'
p3122
(dp3123
g846
S'http://derti.live24.gr/derty1000'
p3124
sg13
V/logos/gr/mini/derti.gif
p3125
sg4
V\u0391\u0398\u0397\u039d\u0391
p3126
sg15
V468
p3127
sg8
VDerti 98,6
p3128
ssS'636'
p3129
(dp3130
g1776
S'http://eco.onestreaming.com:8010'
p3131
sg13
V/logos/gr/mini/thrakifm.gif
p3132
sg4
V\u0391\u039b\u0395\u039e\u0391\u039d\u0394\u03a1\u039f\u03a5\u03a0\u039f\u039b\u0397
p3133
sg15
V636
p3134
sg8
V\u0398\u03c1\u03ac\u03ba\u03b7 Fm 99,8
p3135
ssS'1215'
p3136
(dp3137
g1776
S'http://s3.onweb.gr:8464'
p3138
sg13
V/logos/gr/mini/rythmos946.gif
p3139
sg4
V\u039b\u0391\u039c\u0399\u0391
p3140
sg15
V1215
p3141
sg8
V\u03a1\u03c5\u03b8\u03bc\u03cc\u03c2 94,6
p3142
ssS'465'
p3143
(dp3144
g13
V/logos/gr/mini/rsa.gif
p3145
sg4
V\u0391\u039c\u0391\u039b\u0399\u0391\u0394\u0391
p3146
sg15
V465
p3147
sg8
VRSA 91,1
p3148
ssS'1218'
p3149
(dp3150
g1776
S'http://radio.radionova.gr:8000/lamia-fm-1'
p3151
sg13
V/logos/gr/mini/lamiafm1.gif
p3152
sg4
V\u039b\u0391\u039c\u0399\u0391
p3153
sg15
V1218
p3154
sg8
V\u039b\u03b1\u03bc\u03af\u03b1 FM 1 96,2
p3155
ssS'927'
p3156
(dp3157
g1776
S'http://psychoradio.servemp3.com'
p3158
sg13
V/logos/gr/mini/psychoradio.gif
p3159
sg4
VINTERNET RADIO
p3160
sg15
V927
p3161
sg8
VPsycho Radio 
p3162
ssS'460'
p3163
(dp3164
g13
V/logos/gr/mini/Hersonissos.gif
p3165
sg4
V\u0397\u03a1\u0391\u039a\u039b\u0395\u0399\u039f
p3166
sg15
V460
p3167
sg8
VRadio Hersonissos 97,2
p3168
ssS'1861'
p3169
(dp3170
g13
V/logos/gr/mini/inathensrock.gif
p3171
sg4
VINTERNET RADIO
p3172
sg15
V1861
p3173
sg8
VIn Athens Rock Radio 
p3174
ssS'2015'
p3175
(dp3176
g13
V/logos/gr/mini/mirror.gif
p3177
sg4
VINTERNET RADIO
p3178
sg15
V2015
p3179
sg8
VMirror Radio 
p3180
ssS'1862'
p3181
(dp3182
g13
V/logos/gr/mini/buzz.gif
p3183
sg4
VINTERNET RADIO
p3184
sg15
V1862
p3185
sg8
VBUZZ Radio 
p3186
ssS'169'
p3187
(dp3188
g846
S'http://live.onestreaming.com/paradiseradio'
p3189
sg13
V/logos/gr/mini/paradise.gif
p3190
sg4
V\u039e\u0391\u039d\u0398\u0397
p3191
sg15
V169
p3192
sg8
VParadise 90,3
p3193
ssS'1866'
p3194
(dp3195
g1776
S'http://live.onestreaming.com/ellinadikofm'
p3196
sg13
V/logos/gr/mini/ellinadikofm.gif
p3197
sg4
VINTERNET RADIO
p3198
sg15
V1866
p3199
sg8
V\u0395\u03bb\u03bb\u03b7\u03bd\u03ac\u03b4\u03b9\u03ba\u03bf FM 
p3200
ssS'1869'
p3201
(dp3202
g1776
S'http://eco.onestreaming.com:8059/stream'
p3203
sg13
V/logos/gr/mini/akous_myclassic.gif
p3204
sg4
VINTERNET RADIO
p3205
sg15
V1869
p3206
sg8
VAkous. My Classic 
p3207
ssS'2017'
p3208
(dp3209
g1776
S'http://95.211.7.35:8000'
p3210
sg13
V/logos/gr/mini/sykofantis.gif
p3211
sg4
VINTERNET RADIO
p3212
sg15
V2017
p3213
sg8
V\u03a3\u03c5\u03ba\u03bf\u03c6\u03ac\u03bd\u03c4\u03b7\u03c2 \u039c\u03c0\u03b1\u03c3\u03c4\u03bf\u03cd\u03bd\u03b9 
p3214
ssS'960'
p3215
(dp3216
g1776
S'http://eco.onestreaming.com:8166'
p3217
sg13
V/logos/gr/mini/entexnosfm.gif
p3218
sg4
V\u03a0\u0391\u03a4\u03a1\u0391
p3219
sg15
V960
p3220
sg8
V\u03a1\u03ac\u03b4\u03b9\u03bf \u0395\u03bd\u03c4\u03b5\u03c7\u03bd\u03bf\u03c2 
p3221
ssS'961'
p3222
(dp3223
g13
V/logos/gr/mini/melodia1027.gif
p3224
sg4
V\u03a1\u0395\u0398\u03a5\u039c\u039d\u039f
p3225
sg15
V961
p3226
sg8
V\u039c\u03b5\u03bb\u03c9\u03b4\u03af\u03b1 102,7
p3227
ssS'962'
p3228
(dp3229
g13
V/logos/gr/mini/loveioan.gif
p3230
sg4
V\u0399\u03a9\u0391\u039d\u039d\u0399\u039d\u0391
p3231
sg15
V962
p3232
sg8
VLove Radio 97,2
p3233
ssS'963'
p3234
(dp3235
g846
S'http://hotfm.live24.gr/shock'
p3236
sg13
V/logos/gr/mini/hotfmathens.gif
p3237
sg4
V\u0391\u0398\u0397\u039d\u0391
p3238
sg15
V963
p3239
sg8
VHot Fm 
p3240
ssS'2011'
p3241
(dp3242
g1776
S'http://eco.onestreaming.com:8300'
p3243
sg13
V/logos/gr/mini/erotiaris.gif
p3244
sg4
VINTERNET RADIO
p3245
sg15
V2011
p3246
sg8
V\u0395\u03c1\u03c9\u03c4\u03b9\u03ac\u03c1\u03b7\u03c2 
p3247
ssS'936'
p3248
(dp3249
g1776
S'http://85.17.238.96:8060'
p3250
sg13
V/logos/gr/mini/radioart.gif
p3251
sg4
VINTERNET RADIO
p3252
sg15
V936
p3253
sg8
VRadio Art 2 
p3254
ssS'1104'
p3255
(dp3256
g1776
S'http://5.9.15.53:9996'
p3257
sg13
V/logos/gr/mini/rockarolla.gif
p3258
sg4
V\u0398\u0395\u03a3\u03a3\u0391\u039b\u039f\u039d\u0399\u039a\u0397
p3259
sg15
V1104
p3260
sg8
VRockarolla Radio 
p3261
ssS'935'
p3262
(dp3263
g1631
S'http://85.17.238.96:8050'
p3264
sg13
V/logos/gr/mini/radioart.gif
p3265
sg4
VINTERNET RADIO
p3266
sg15
V935
p3267
sg8
VRadio Art 1 
p3268
ssS'408'
p3269
(dp3270
g13
V/logos/gr/mini/zizanio.gif
p3271
sg4
V\u0391\u03a1\u0393\u039f\u03a3\u03a4\u039f\u039b\u0399
p3272
sg15
V408
p3273
sg8
V\u0396\u03b9\u03b6\u03ac\u03bd\u03b9\u03bf 89,2
p3274
ssS'1841'
p3275
(dp3276
g1776
S'http://85.17.30.90:8044'
p3277
sg13
V/logos/gr/mini/star957.gif
p3278
sg4
V\u0399\u03a9\u0391\u039d\u039d\u0399\u039d\u0391
p3279
sg15
V1841
p3280
sg8
VStar 95,7
p3281
ssS'1108'
p3282
(dp3283
g1776
S'http://eco.onestreaming.com:8105'
p3284
sg13
V/logos/gr/mini/original944.gif
p3285
sg4
V\u03a7\u0391\u039d\u0399\u0391
p3286
sg15
V1108
p3287
sg8
VOriginal 94,4
p3288
ssS'1840'
p3289
(dp3290
g1776
S'http://eco.onestreaming.com:8014/live'
p3291
sg13
V/logos/gr/mini/bleepradio.gif
p3292
sg4
VINTERNET RADIO
p3293
sg15
V1840
p3294
sg8
VBleep Radio 
p3295
ssS'35'
p3296
(dp3297
g1776
S'http://s5.onweb.gr:8504'
p3298
sg13
V/logos/gr/mini/farosfm.gif
p3299
sg4
V\u03a3\u03a5\u03a1\u039f\u03a3
p3300
sg15
V35
p3301
sg8
V\u03a6\u03ac\u03c1\u03bf\u03c2 Fm 104
p3302
ssS'1895'
p3303
(dp3304
g1776
S'http://174.36.237.66:9878'
p3305
sg13
V/logos/gr/mini/extremeradionet.gif
p3306
sg4
VINTERNET RADIO
p3307
sg15
V1895
p3308
sg8
VExtreme Radio 
p3309
ssS'678'
p3310
(dp3311
g13
V/logos/gr/mini/danceradio.gif
p3312
sg4
VINTERNET RADIO
p3313
sg15
V678
p3314
sg8
VDance Radio 
p3315
ssS'1091'
p3316
(dp3317
g1776
S'http://radio.radionova.gr:8000/kritorama'
p3318
sg13
V/logos/gr/mini/kritorama.gif
p3319
sg4
V\u0397\u03a1\u0391\u039a\u039b\u0395\u0399\u039f
p3320
sg15
V1091
p3321
sg8
V\u039a\u03c1\u03b7\u03c4\u03cc\u03c1\u03b1\u03bc\u03b1 FM 97,9
p3322
ssS'1814'
p3323
(dp3324
g1776
S'http://www.ghostradio.gr/world-128'
p3325
sg13
V/logos/gr/mini/ghost.gif
p3326
sg4
VINTERNET RADIO
p3327
sg15
V1814
p3328
sg8
VGhost Radio 
p3329
ssS'1817'
p3330
(dp3331
g13
V/logos/gr/mini/nexus.gif
p3332
sg4
VINTERNET RADIO
p3333
sg15
V1817
p3334
sg8
VNexus Productions Radio 
p3335
ssS'1810'
p3336
(dp3337
g1776
S'http://sc.greekstream.net:4024'
p3338
sg13
V/logos/gr/mini/camelot.gif
p3339
sg4
V\u039a\u03a5\u0398\u0397\u03a1\u0391
p3340
sg15
V1810
p3341
sg8
VCamelot 100,8
p3342
ssS'1811'
p3343
(dp3344
g1776
S'http://85.17.174.142:10300'
p3345
sg13
V/logos/gr/mini/mouspan1008new.gif
p3346
sg4
V\u039a\u0391\u03a4\u0395\u03a1\u0399\u039d\u0397
p3347
sg15
V1811
p3348
sg8
V\u039c\u03bf\u03c5\u03c3\u03b9\u03ba\u03cc \u03a0\u03b1\u03bd\u03cc\u03c1\u03b1\u03bc\u03b1 100,8
p3349
ssS'1812'
p3350
(dp3351
g1569
S'http://85.25.139.27:9100'
p3352
sg13
V/logos/gr/mini/oxygono1066.gif
p3353
sg4
V\u039b\u0391\u03a1\u0399\u03a3\u0391
p3354
sg15
V1812
p3355
sg8
V\u039f\u039e\u03a5\u0393\u039f\u039d\u039f 106+6 106,6
p3356
ssS'1813'
p3357
(dp3358
g1776
S'http://s1.onweb.gr:8828'
p3359
sg13
V/logos/gr/mini/energeia1064.gif
p3360
sg4
V\u039a\u039f\u03a1\u0399\u039d\u0398\u039f\u03a3
p3361
sg15
V1813
p3362
sg8
V\u03a1\u0391\u0394\u0399\u039f \u0395\u039d\u0395\u03a1\u0393\u0395\u0399\u0391 106,4
p3363
ssS'876'
p3364
(dp3365
g13
V/logos/gr/mini/ixoslarisa.gif
p3366
sg4
V\u039b\u0391\u03a1\u0399\u03a3\u0391
p3367
sg15
V876
p3368
sg8
V\u0397\u03c7\u03bf\u03c2 91
p3369
ssS'877'
p3370
(dp3371
g846
S'http://50.7.243.50:8127'
p3372
sg13
V/logos/gr/mini/energy934.gif
p3373
sg4
V\u03a0\u03a1\u0395\u0392\u0395\u0396\u0391
p3374
sg15
V877
p3375
sg8
VEnergy 93,4
p3376
ssS'874'
p3377
(dp3378
g1776
S'http://eco.onestreaming.com:8400'
p3379
sg13
V/logos/gr/mini/yparxo.gif
p3380
sg4
V\u0391\u039b\u0395\u039e\u0391\u039d\u0394\u03a1\u039f\u03a5\u03a0\u039f\u039b\u0397
p3381
sg15
V874
p3382
sg8
V\u03a5\u03c0\u03ac\u03c1\u03c7\u03c9 101,4
p3383
ssS'875'
p3384
(dp3385
g1776
S'http://s5.onweb.gr:8502'
p3386
sg13
V/logos/gr/mini/diavloskarditsas.gif
p3387
sg4
V\u039a\u0391\u03a1\u0394\u0399\u03a4\u03a3\u0391
p3388
sg15
V875
p3389
sg8
V\u0394\u03af\u03b1\u03c5\u03bb\u03bf\u03c2 \u039a\u03b1\u03c1\u03b4\u03af\u03c4\u03c3\u03b1\u03c2 
p3390
ssS'872'
p3391
(dp3392
g846
S'http://live.onestreaming.com/erk'
p3393
sg13
V/logos/gr/mini/erk.gif
p3394
sg4
V\u039a\u0395\u03a6\u0391\u039b\u039b\u039f\u039d\u0399\u0391
p3395
sg15
V872
p3396
sg8
V\u0395\u03bb\u03b5\u03cd\u03b8\u03b5\u03c1\u03b7 \u03a1\u03b1\u03b4\u03b9\u03bf\u03c6\u03c9\u03bd\u03af\u03b1 \u039a\u03b5\u03c6\u03b1\u03bb\u03bb\u03bf\u03bd\u03b9\u03ac 93,9
p3397
ssS'873'
p3398
(dp3399
g1776
S'http://eco.onestreaming.com:8131'
p3400
sg13
V/logos/gr/mini/statusradio.gif
p3401
sg4
V\u0391\u039b\u0395\u039e\u0391\u039d\u0394\u03a1\u039f\u03a5\u03a0\u039f\u039b\u0397
p3402
sg15
V873
p3403
sg8
VStatus 94,2
p3404
ssS'871'
p3405
(dp3406
g1776
S'http://eco.onestreaming.com:8152/stream'
p3407
sg13
V/logos/gr/mini/actionradio.gif
p3408
sg4
V\u039a\u039f\u039d\u0399\u03a4\u03a3\u0391
p3409
sg15
V871
p3410
sg8
VAction Radio 98,2
p3411
ssS'1893'
p3412
(dp3413
g13
V/logos/gr/mini/nologo.gif
p3414
sg4
VINTERNET RADIO
p3415
sg15
V1893
p3416
sg8
VMAXRADIO 
p3417
ssS'890'
p3418
(dp3419
g13
V/logos/gr/mini/nologo.gif
p3420
sg4
V\u0391\u0398\u0397\u039d\u0391
p3421
sg15
V890
p3422
sg8
VAstro Fm 99,8
p3423
ssS'894'
p3424
(dp3425
g1776
S'http://eco.onestreaming.com:8266'
p3426
sg13
V/logos/gr/mini/hxoioan.gif
p3427
sg4
V\u0399\u03a9\u0391\u039d\u039d\u0399\u039d\u0391
p3428
sg15
V894
p3429
sg8
VHxo Fm 102,7
p3430
ssS'647'
p3431
(dp3432
g1776
S'http://s4.onweb.gr:8468'
p3433
sg13
V/logos/gr/mini/radiolehovo.gif
p3434
sg4
V\u03a6\u039b\u03a9\u03a1\u0399\u039d\u0391
p3435
sg15
V647
p3436
sg8
V\u03a1\u03ac\u03b4\u03b9\u03bf \u039b\u03ad\u03c7\u03bf\u03b2\u03bf 97,1
p3437
ssS'897'
p3438
(dp3439
g846
S'http://golive.onestreaming.com/astraradio'
p3440
sg13
V/logos/gr/mini/astraradio.gif
p3441
sg4
V\u039c\u03a5\u03a4\u0399\u039b\u0397\u039d\u0397
p3442
sg15
V897
p3443
sg8
VAstra Radio 93,2
p3444
ssS'899'
p3445
(dp3446
g846
S'http://live.onestreaming.com/magiafm'
p3447
sg13
V/logos/gr/mini/magiafm.gif
p3448
sg4
V\u0391\u03a3\u03a4\u0391\u039a\u039f\u03a3
p3449
sg15
V899
p3450
sg8
VMagia Fm 
p3451
ssS'436'
p3452
(dp3453
g846
S'http://live.onestreaming.com/xylokastro'
p3454
sg13
V/logos/gr/mini/XylokastroLife.gif
p3455
sg4
V\u039e\u03a5\u039b\u039f\u039a\u0391\u03a3\u03a4\u03a1\u039f
p3456
sg15
V436
p3457
sg8
VLife Fm 103,1
p3458
ssS'1978'
p3459
(dp3460
g1776
S'http://208.43.121.133:9538'
p3461
sg13
V/logos/gr/mini/dmradioath.gif
p3462
sg4
VINTERNET RADIO
p3463
sg15
V1978
p3464
sg8
VDM Radio 
p3465
ssS'1977'
p3466
(dp3467
g13
V/logos/gr/mini/derfm.gif
p3468
sg4
VINTERNET RADIO
p3469
sg15
V1977
p3470
sg8
VDER Fm 
p3471
ssS'1976'
p3472
(dp3473
g13
V/logos/gr/mini/ant1grev.gif
p3474
sg4
V\u0393\u03a1\u0395\u0392\u0395\u039d\u0391
p3475
sg15
V1976
p3476
sg8
VAnt1 94
p3477
ssS'1975'
p3478
(dp3479
g13
V/logos/gr/mini/akradio.gif
p3480
sg4
VINTERNET RADIO
p3481
sg15
V1975
p3482
sg8
VAK Radio 
p3483
ssS'1974'
p3484
(dp3485
g1776
S'http://stream.myip.gr:8034'
p3486
sg13
V/logos/gr/mini/capitalkavala.gif
p3487
sg4
V\u039a\u0391\u0392\u0391\u039b\u0391
p3488
sg15
V1974
p3489
sg8
VCapital FM 107
p3490
ssS'1973'
p3491
(dp3492
g13
V/logos/gr/mini/nostalgia.gif
p3493
sg4
VINTERNET RADIO
p3494
sg15
V1973
p3495
sg8
V\u03a1\u03ac\u03b4\u03b9\u03bf \u039d\u03bf\u03c3\u03c4\u03b1\u03bb\u03b3\u03af\u03b1 
p3496
ssS'1972'
p3497
(dp3498
g13
V/logos/gr/mini/radiosoul.gif
p3499
sg4
VINTERNET RADIO
p3500
sg15
V1972
p3501
sg8
VRadio Soul 
p3502
ssS'1970'
p3503
(dp3504
g1776
S'http://99.198.118.250:8138/live'
p3505
sg13
V/logos/gr/mini/evolutiongr.gif
p3506
sg4
VINTERNET RADIO
p3507
sg15
V1970
p3508
sg8
VEvolution Radio 
p3509
ssS'357'
p3510
(dp3511
g1776
S'http://s1.onweb.gr:8820'
p3512
sg13
V/logos/gr/mini/neoradiofono.gif
p3513
sg4
V\u039a\u0395\u03a1\u039a\u03a5\u03a1\u0391
p3514
sg15
V357
p3515
sg8
V\u039d\u03ad\u03bf \u03a1\u03b1\u03b4\u03b9\u03cc\u03c6\u03c9\u03bd\u03bf 97,9
p3516
ssS'951'
p3517
(dp3518
g13
V/logos/gr/mini/libido.gif
p3519
sg4
VINTERNET RADIO
p3520
sg15
V951
p3521
sg8
VLibido Radio 
p3522
ssS'355'
p3523
(dp3524
g13
V/logos/gr/mini/maxcrete.gif
p3525
sg4
V\u03a7\u0391\u039d\u0399\u0391
p3526
sg15
V355
p3527
sg8
VMax Fm 100,2
p3528
ssS'808'
p3529
(dp3530
g13
V/logos/gr/mini/best947.gif
p3531
sg4
V\u0397\u03a1\u0391\u039a\u039b\u0395\u0399\u039f
p3532
sg15
V808
p3533
sg8
VBest 94,7
p3534
ssS'47'
p3535
(dp3536
g1776
S'http://s1.onweb.gr:8852'
p3537
sg13
V/logos/gr/mini/kritikos.gif
p3538
sg4
V\u0397\u03a1\u0391\u039a\u039b\u0395\u0399\u039f
p3539
sg15
V47
p3540
sg8
V\u039a\u03c1\u03b7\u03c4\u03b9\u03ba\u03cc\u03c2 88,7
p3541
ssS'801'
p3542
(dp3543
g13
V/logos/gr/mini/anagennisi.gif
p3544
sg4
VINTERNET RADIO
p3545
sg15
V801
p3546
sg8
VRadio \u0391\u03bd\u03b1\u03b3\u03ad\u03bd\u03bd\u03b7\u03c3\u03b7 
p3547
ssS'800'
p3548
(dp3549
g846
S'http://live.onestreaming.com/rythmos1044'
p3550
sg13
V/logos/gr/mini/rythmos1044.gif
p3551
sg4
V\u039a\u039f\u0396\u0391\u039d\u0397
p3552
sg15
V800
p3553
sg8
V\u03a1\u03c5\u03b8\u03bc\u03cc\u03c2 104,4
p3554
ssS'953'
p3555
(dp3556
g13
V/logos/gr/mini/notos949.gif
p3557
sg4
V\u03a3\u03a0\u0391\u03a1\u03a4\u0397
p3558
sg15
V953
p3559
sg8
V\u039d\u03cc\u03c4\u03bf\u03c2 94,9
p3560
ssS'805'
p3561
(dp3562
g1776
S'http://99.198.118.250:8022'
p3563
sg13
V/logos/gr/mini/musicbox.gif
p3564
sg4
V\u03a7\u0391\u039d\u0399\u0391
p3565
sg15
V805
p3566
sg8
VMusic Box 106,5
p3567
ssS'358'
p3568
(dp3569
g13
V/logos/gr/mini/samosfm.gif
p3570
sg4
V\u03a3\u0391\u039c\u039f\u03a3
p3571
sg15
V358
p3572
sg8
V\u03a3\u03ac\u03bc\u03bf\u03c2 Fm 97,3
p3573
ssS'1788'
p3574
(dp3575
g1776
S'http://boulevart.com.gr:8000'
p3576
sg13
V/logos/gr/mini/cookierock.gif
p3577
sg4
VINTERNET RADIO
p3578
sg15
V1788
p3579
sg8
VCookie Rock 
p3580
ssS'217'
p3581
(dp3582
g846
S'http://live.onestreaming.com/arhagelos'
p3583
sg13
V/logos/gr/mini/arhagelos.gif
p3584
sg4
V\u03a1\u039f\u0394\u039f\u03a3
p3585
sg15
V217
p3586
sg8
V\u0391\u03c1\u03c7\u03ac\u03b3\u03b3\u03b5\u03bb\u03bf\u03c2 94,1
p3587
ssS'214'
p3588
(dp3589
g846
S'http://ant1.live24.gr/ant1?b30cfd71ea09d00f53b8757c20491e34'
p3590
sg13
V/logos/gr/mini/ant1radio.gif
p3591
sg4
V\u0391\u0398\u0397\u039d\u0391
p3592
sg15
V214
p3593
sg8
VAnt1 Radio 97,2
p3594
ssS'215'
p3595
(dp3596
g846
S'http://rythmos.live24.gr/rythmos'
p3597
sg13
V/logos/gr/mini/rythmos.gif
p3598
sg4
V\u0391\u0398\u0397\u039d\u0391
p3599
sg15
V215
p3600
sg8
V\u03a1\u03c5\u03b8\u03bc\u03cc\u03c2 94,9
p3601
ssS'213'
p3602
(dp3603
g1776
S'http://78.46.66.215:8005'
p3604
sg13
V/logos/gr/mini/sokfm.gif
p3605
sg4
V\u03a7\u0391\u039b\u039a\u0399\u0394\u0391
p3606
sg15
V213
p3607
sg8
VSok Fm 104,8
p3608
ssS'210'
p3609
(dp3610
g13
V/logos/gr/mini/starfmlamia.gif
p3611
sg4
V\u039b\u0391\u039c\u0399\u0391
p3612
sg15
V210
p3613
sg8
VStar Fm \u039b\u03b1\u03bc\u03af\u03b1 97,1
p3614
ssS'762'
p3615
(dp3616
g1776
S'http://imagine.1stepstream.com:8000/live'
p3617
sg13
V/logos/gr/mini/imagine.gif
p3618
sg4
V\u0398\u0395\u03a3\u03a3\u0391\u039b\u039f\u039d\u0399\u039a\u0397
p3619
sg15
V762
p3620
sg8
VImagine 89,7
p3621
ssS'763'
p3622
(dp3623
g1776
S'http://topmelody1.selfip.net:8000'
p3624
sg13
V/logos/gr/mini/topmelody.gif
p3625
sg4
V\u03a3\u0391\u039d\u03a4\u039f\u03a1\u0399\u039d\u0397
p3626
sg15
V763
p3627
sg8
VTop Melody 104,9
p3628
ssS'1783'
p3629
(dp3630
g13
V/logos/gr/mini/radiopatrida1004.gif
p3631
sg4
V\u039a\u039f\u039c\u039f\u03a4H\u039d\u0397
p3632
sg15
V1783
p3633
sg8
V\u03a1\u03ac\u03b4\u03b9\u03bf \u03a0\u03b1\u03c4\u03c1\u03af\u03b4\u03b1 100,4
p3634
ssS'767'
p3635
(dp3636
g1776
S'http://eco.onestreaming.com:8123'
p3637
sg13
V/logos/gr/mini/mousikoelas.gif
p3638
sg4
V\u0395\u039b\u0391\u03a3\u03a3O\u039d\u0391
p3639
sg15
V767
p3640
sg8
V\u039c\u03bf\u03c5\u03c3\u03b9\u03ba\u03cc \u039a\u03b1\u03bd\u03ac\u03bb\u03b9 \u0395\u03bb\u03b1\u03c3\u03c3\u03cc\u03bd\u03b1\u03c2 107,3
p3641
ssS'218'
p3642
(dp3643
g1776
S'http://75.125.224.82:8000'
p3644
sg13
V/logos/gr/mini/mangoradio.gif
p3645
sg4
VINTERNET RADIO
p3646
sg15
V218
p3647
sg8
VMango Radio Urban 
p3648
ssS'219'
p3649
(dp3650
g846
S'http://live.onestreaming.com/christianity'
p3651
sg13
V/logos/gr/mini/christianity.gif
p3652
sg4
V\u0391\u0398\u0397\u039d\u0391
p3653
sg15
V219
p3654
sg8
V\u03a7\u03c1\u03b9\u03c3\u03c4\u03b9\u03b1\u03bd\u03b9\u03c3\u03bc\u03cc\u03c2 
p3655
ssS'1777'
p3656
(dp3657
g13
V/logos/gr/mini/mesogeios957.gif
p3658
sg4
V\u039a\u0391\u039b\u0391\u039c\u0391\u03a4\u0391
p3659
sg15
V1777
p3660
sg8
V\u039c\u03b5\u03c3\u03cc\u03b3\u03b5\u03b9\u03bf\u03c2 95,7
p3661
ssS'1776'
p3662
(dp3663
g13
V/logos/gr/mini/freeangel918.gif
p3664
sg4
V\u0391\u0398\u0397\u039d\u0391
p3665
sg15
V1776
p3666
sg8
Vfree Angel 91,8
p3667
ssS'1771'
p3668
(dp3669
g13
V/logos/gr/mini/kimawkma.gif
p3670
sg4
VINTERNET RADIO
p3671
sg15
V1771
p3672
sg8
VRADIO KIMA : WKMA 
p3673
ssS'1770'
p3674
(dp3675
g846
S'http://live.onestreaming.com/imargol1052'
p3676
sg13
V/logos/gr/mini/imargol1052.gif
p3677
sg4
V\u039d\u0391\u03a5\u03a0\u039b\u0399\u039f
p3678
sg15
V1770
p3679
sg8
V\u0399.\u039c. \u0391\u03c1\u03b3\u03bf\u03bb\u03af\u03b4\u03bf\u03c2 105,2
p3680
ssS'1237'
p3681
(dp3682
g1776
S'http://shout.streamwithq.gr:4138'
p3683
sg13
V/logos/gr/mini/alithiafm.gif
p3684
sg4
V\u039a\u0391\u039b\u03a5\u039c\u039d\u039f\u03a3
p3685
sg15
V1237
p3686
sg8
V\u0391\u03bb\u03ae\u0398\u03b5\u03b9\u03b1 Fm 96,3
p3687
ssS'1772'
p3688
(dp3689
g1776
S'http://188.40.131.14:9978'
p3690
sg13
V/logos/gr/mini/magicagrin.gif
p3691
sg4
V\u0391\u0393\u03a1\u0399\u039d\u0399\u039f
p3692
sg15
V1772
p3693
sg8
VMagic FM \u0391\u03b3\u03c1\u03af\u03bd\u03b9\u03bf 
p3694
ssS'1075'
p3695
(dp3696
g13
V/logos/gr/mini/lefkimmi.gif
p3697
sg4
V\u039a\u0395\u03a1\u039a\u03a5\u03a1\u0391
p3698
sg15
V1075
p3699
sg8
V\u03a1\u03ac\u03b4\u03b9\u03bf \u039b\u03b5\u03c5\u03ba\u03af\u03bc\u03bc\u03b7 105,5
p3700
ssS'1779'
p3701
(dp3702
g13
V/logos/gr/mini/skiathos964.gif
p3703
sg4
V\u03a3\u039a\u0399\u0391\u0398\u039f\u03a3
p3704
sg15
V1779
p3705
sg8
V\u0394\u03b7\u03bc\u03bf\u03c4\u03b9\u03ba\u03cc \u03a1\u03b1\u03b4\u03b9\u03cc\u03c6\u03c9\u03bd\u03bf \u03a3\u03ba\u03b9\u03ac\u03b8\u03bf\u03c5 96,4
p3706
ssS'1778'
p3707
(dp3708
g13
V/logos/gr/mini/realfmthess.gif
p3709
sg4
V\u0398\u0395\u03a3\u03a3\u0391\u039b\u039f\u039d\u0399\u039a\u0397
p3710
sg15
V1778
p3711
sg8
VReal Fm 107,1
p3712
ssS'289'
p3713
(dp3714
g1776
S'http://shoutcast.24radio.gr:8064'
p3715
sg13
V/logos/gr/mini/cool907.gif
p3716
sg4
V\u0391\u03a1\u0393\u039f\u03a3
p3717
sg15
V289
p3718
sg8
VCool Fm 90,7
p3719
ssS'4'
(dp3720
g1776
S'http://eco.onestreaming.com:8346'
p3721
sg13
V/logos/gr/mini/eurovisionfm.gif
p3722
sg4
V\u0391\u0398\u0397\u039d\u0391
p3723
sg15
V4
sg8
VEurovision.Fm 
p3724
ssS'1443'
p3725
(dp3726
g846
S'http://live.onestreaming.com/koziani'
p3727
sg13
V/logos/gr/mini/koziani.gif
p3728
sg4
V\u039a\u039f\u0396\u0391\u039d\u0397
p3729
sg15
V1443
p3730
sg8
VInternet Radio Koziani 
p3731
ssS'282'
p3732
(dp3733
g846
S'http://orange.live24.gr/orange9320'
p3734
sg13
V/logos/gr/mini/happy932.gif
p3735
sg4
V\u0391\u0398\u0397\u039d\u0391
p3736
sg15
V282
p3737
sg8
VHappy Radio 93,2
p3738
ssS'287'
p3739
(dp3740
g846
S'http://loveradio.live24.gr/loveradio-1000'
p3741
sg13
V/logos/gr/mini/loveradio.gif
p3742
sg4
V\u0391\u0398\u0397\u039d\u0391
p3743
sg15
V287
p3744
sg8
VLove Radio 97,5
p3745
ssS'1090'
p3746
(dp3747
g846
S'http://drs953.live24.gr/drs953?59c9e54a76f8bfebbc640262fc16b7a7'
p3748
sg13
V/logos/gr/mini/drs953.gif
p3749
sg4
V\u0397\u03a1\u0391\u039a\u039b\u0395\u0399\u039f
p3750
sg15
V1090
p3751
sg8
VDRS 95,3
p3752
ssS'679'
p3753
(dp3754
g13
V/logos/gr/mini/lydiafm.gif
p3755
sg4
V\u0398\u0395\u03a3\u03a3\u0391\u039b\u039f\u039d\u0399\u039a\u0397
p3756
sg15
V679
p3757
sg8
V\u039b\u03c5\u03b4\u03af\u03b1 FM 94,2
p3758
ssS'675'
p3759
(dp3760
g1776
S'http://webradio.musicheaven.gr:9850'
p3761
sg13
V/logos/gr/mini/musicheaven.gif
p3762
sg4
VINTERNET RADIO
p3763
sg15
V675
p3764
sg8
VMusic Heaven 
p3765
ssS'677'
p3766
(dp3767
g13
V/logos/gr/mini/danceradio.gif
p3768
sg4
VINTERNET RADIO
p3769
sg15
V677
p3770
sg8
VDance Radio - Tech House 
p3771
ssS'671'
p3772
(dp3773
g1776
S'http://radio1.discomaniaradio.com:7030'
p3774
sg13
V/logos/gr/mini/discomania.gif
p3775
sg4
VINTERNET RADIO
p3776
sg15
V671
p3777
sg8
VDiscomania 
p3778
ssS'269'
p3779
(dp3780
g13
V/logos/gr/mini/relaxfm882.gif
p3781
sg4
V\u03a0\u0391\u03a4\u03a1\u0391
p3782
sg15
V269
p3783
sg8
VRelax Fm 88,2
p3784
ssS'58'
p3785
(dp3786
g1776
S'http://eco.onestreaming.com:8219/stream'
p3787
sg13
V/logos/gr/mini/epontos.gif
p3788
sg4
VINTERNET RADIO
p3789
sg15
V58
p3790
sg8
Ve-Pontos 
p3791
ssS'55'
p3792
(dp3793
g13
V/logos/gr/mini/typosfm.gif
p3794
sg4
V\u0392\u0395\u03a1\u039f\u0399\u0391
p3795
sg15
V55
p3796
sg8
V\u03a1\u03ac\u03b4\u03b9\u03bf \u03a4\u03cd\u03c0\u03bf\u03c2 99,7
p3797
ssS'54'
p3798
(dp3799
g1776
S'http://s1.onweb.gr:8088'
p3800
sg13
V/logos/gr/mini/radiopolis.gif
p3801
sg4
V\u039b\u0391\u03a1\u0399\u03a3\u0391
p3802
sg15
V54
p3803
sg8
V\u03a1\u03ac\u03b4\u03b9\u03bf \u03a0\u03cc\u03bb\u03b9\u03c2 99,4
p3804
ssS'56'
p3805
(dp3806
g13
V/logos/gr/mini/doggradio.gif
p3807
sg4
VINTERNET RADIO
p3808
sg15
V56
p3809
sg8
VDoggradio 
p3810
ssS'50'
p3811
(dp3812
g846
S'http://prismavirus.live24.gr/prismavirus1000'
p3813
sg13
V/logos/gr/mini/prismavirus.gif
p3814
sg4
V\u039e\u03a5\u039b\u039f\u039a\u0391\u03a3\u03a4\u03a1\u039f
p3815
sg15
V50
p3816
sg8
V\u03a0\u03c1\u03af\u03c3\u03bc\u03b1 93,8
p3817
ssS'53'
p3818
(dp3819
g846
S'http://media15.internet.gr/dreamfm'
p3820
sg13
V/logos/gr/mini/nologo.gif
p3821
sg4
V\u0397\u03a1\u0391\u039a\u039b\u0395\u0399\u039f
p3822
sg15
V53
p3823
sg8
VDream FM 91
p3824
ssS'52'
p3825
(dp3826
g1776
S'http://155.207.18.114:8000/1431med'
p3827
sg13
V/logos/gr/mini/1431.gif
p3828
sg4
V\u0398\u0395\u03a3\u03a3\u0391\u039b\u039f\u039d\u0399\u039a\u0397
p3829
sg15
V52
p3830
sg8
V1431 AM 1431
p3831
ssS'536'
p3832
(dp3833
g1776
S'http://eco.onestreaming.com:8334'
p3834
sg13
V/logos/gr/mini/polis.gif
p3835
sg4
V\u0391\u039b\u0395\u039e\u0391\u039d\u0394\u03a1\u039f\u03a5\u03a0\u039f\u039b\u0397
p3836
sg15
V536
p3837
sg8
VPolis 102,6
p3838
ssS'535'
p3839
(dp3840
g1776
S'http://s1.onweb.gr:8098'
p3841
sg13
V/logos/gr/mini/parosfm.gif
p3842
sg4
V\u03a0\u0391\u03a1\u039f\u03a3 - \u0391\u039d\u03a4\u0399\u03a0\u0391\u03a1\u039f\u03a3
p3843
sg15
V535
p3844
sg8
V\u03a0\u03ac\u03c1\u03bf\u03c2 Fm 98,5
p3845
ssS'534'
p3846
(dp3847
g846
S'mmsh://a1251.l4434923250.c44349.g.lm.akamaistream.net/D/1251/44349/v0001/reflector:23250'
p3848
sg13
V/logos/gr/mini/freedomfm.gif
p3849
sg4
V\u0391\u0398\u0397\u039d\u0391
p3850
sg15
V534
p3851
sg8
VFreedom Fm 
p3852
ssS'533'
p3853
(dp3854
g846
S'http://live.onestreaming.com/elpar'
p3855
sg13
V/logos/gr/mini/elpar.gif
p3856
sg4
V\u0391\u0398\u0397\u039d\u0391
p3857
sg15
V533
p3858
sg8
V\u0395\u03bb\u03bb\u03b7\u03bd\u03b9\u03ba\u03cc \u03a0\u03b1\u03c1\u03b1\u03b4\u03bf\u03c3\u03b9\u03b1\u03ba\u03cc 
p3859
ssS'532'
p3860
(dp3861
g1776
S'http://eco.onestreaming.com:8336'
p3862
sg13
V/logos/gr/mini/99fm.gif
p3863
sg4
V\u0398\u0395\u03a3\u03a3\u0391\u039b\u039f\u039d\u0399\u039a\u0397
p3864
sg15
V532
p3865
sg8
V99fm / Radio 1 
p3866
ssS'530'
p3867
(dp3868
g1776
S'http://eco.onestreaming.com:8173'
p3869
sg13
V/logos/gr/mini/cityfm.gif
p3870
sg4
V\u0397\u03a1\u0391\u039a\u039b\u0395\u0399\u039f
p3871
sg15
V530
p3872
sg8
VCity Fm 100
p3873
ssS'539'
p3874
(dp3875
g846
S'http://a1202.l7083147201.c70831.g.lm.akamaistream.net/D/1202/70831/v0001/reflector:47201'
p3876
sg13
V/logos/gr/mini/palmos965.gif
p3877
sg4
V\u0398\u0395\u03a3\u03a3\u0391\u039b\u039f\u039d\u0399\u039a\u0397
p3878
sg15
V539
p3879
sg8
V\u03a0\u03b1\u03bb\u03bc\u03cc\u03c2 96,5
p3880
ssS'538'
p3881
(dp3882
g13
V/logos/gr/mini/hijack.gif
p3883
sg4
VINTERNET RADIO
p3884
sg15
V538
p3885
sg8
VHiJack 
p3886
ssS'775'
p3887
(dp3888
g846
S'http://live.onestreaming.com/orthodoxia'
p3889
sg13
V/logos/gr/mini/orthodoxia.gif
p3890
sg4
V\u03a3\u0399\u0391\u03a4\u0399\u03a3\u03a4\u0391
p3891
sg15
V775
p3892
sg8
V\u039f\u03c1\u03b8\u03bf\u03b4\u03bf\u03be\u03af\u03b1 \u03ba\u03b1\u03b9 \u03a0\u03b1\u03c1\u03ac\u03b4\u03bf\u03c3\u03b7 103
p3893
ssS'988'
p3894
(dp3895
g13
V/logos/gr/mini/cosmicradio.gif
p3896
sg4
V\u039a\u0391\u039b\u0391\u039c\u0391\u03a4\u0391
p3897
sg15
V988
p3898
sg8
VCosmic Radio 102,6
p3899
ssS'980'
p3900
(dp3901
g1776
S'http://live.radioalphaomega.com:4006'
p3902
sg13
V/logos/gr/mini/nologo.gif
p3903
sg4
V\u03a7\u0399\u039f\u03a3
p3904
sg15
V980
p3905
sg8
V\u03a1\u03ac\u03b4\u03b9\u03bf \u0391-\u03a9 90,4
p3906
ssS'981'
p3907
(dp3908
g13
V/logos/gr/mini/nologo.gif
p3909
sg4
V\u039a\u03a9\u03a3
p3910
sg15
V981
p3911
sg8
V\u03a1\u03ac\u03b4\u03b9\u03bf \u039a\u03c9\u03c2 98
p3912
ssS'777'
p3913
(dp3914
g1776
S'http://s6.onweb.gr:8056'
p3915
sg13
V/logos/gr/mini/faros927.gif
p3916
sg4
V\u0399\u03a9\u0391\u039d\u039d\u0399\u039d\u0391
p3917
sg15
V777
p3918
sg8
V\u03a1\u03ac\u03b4\u03b9\u03bf \u03a6\u03ac\u03c1\u03bf\u03c2 92,7
p3919
ssS'115'
p3920
(dp3921
g1776
S'http://live.duth.gr:8000/omorfipoli-hifi'
p3922
sg13
V/logos/gr/mini/omorfipoli.gif
p3923
sg4
V\u039e\u0391\u039d\u0398\u0397
p3924
sg15
V115
p3925
sg8
VOmorfi Poli 89,9
p3926
ssS'252'
p3927
(dp3928
g1776
S'http://eco.onestreaming.com:8272'
p3929
sg13
V/logos/gr/mini/flyradio.gif
p3930
sg4
V\u03a3\u03a0\u0391\u03a1\u03a4\u0397
p3931
sg15
V252
p3932
sg8
VFly Radio 89,7
p3933
ssS'117'
p3934
(dp3935
g13
V/logos/gr/mini/nologo.gif
p3936
sg4
V\u0392\u039f\u039b\u039f\u03a3
p3937
sg15
V117
p3938
sg8
VAstra 97,3
p3939
ssS'116'
p3940
(dp3941
g846
S'http://m1.onweb.gr/1055rock'
p3942
sg13
V/logos/gr/mini/rock1055.gif
p3943
sg4
V\u0398\u0395\u03a3\u03a3\u0391\u039b\u039f\u039d\u0399\u039a\u0397
p3944
sg15
V116
p3945
sg8
V1055 Rock 105,5
p3946
ssS'111'
p3947
(dp3948
g13
V/logos/gr/mini/ecclesia.gif
p3949
sg4
V\u0391\u0398\u0397\u039d\u0391
p3950
sg15
V111
p3951
sg8
V\u0395\u03ba\u03ba\u03bb\u03b7\u03c3\u03af\u03b1 \u03c4\u03b7\u03c2 \u0395\u03bb\u03bb\u03ac\u03b4\u03bf\u03c2 89,5
p3952
ssS'110'
p3953
(dp3954
g1776
S'http://streamx1.greekradios.gr:8000'
p3955
sg13
V/logos/gr/mini/metropolis.gif
p3956
sg4
V\u0398\u0395\u03a3\u03a3\u0391\u039b\u039f\u039d\u0399\u039a\u0397
p3957
sg15
V110
p3958
sg8
VMetropolis 95,5
p3959
ssS'113'
p3960
(dp3961
g846
S'http://a1232.l3271935231.c32719.g.lm.akamaistream.net/D/1232/32719/v0001/reflector:35231'
p3962
sg13
V/logos/gr/mini/erakosmos.gif
p3963
sg4
V\u0391\u0398\u0397\u039d\u0391
p3964
sg15
V113
p3965
sg8
V\u0395\u03a1\u0391 \u039a\u03cc\u03c3\u03bc\u03bf\u03c2 93,6
p3966
ssS'112'
p3967
(dp3968
g846
S'http://a1367.l3271923366.c32719.g.lm.akamaistream.net/D/1367/32719/v0001/reflector:23366'
p3969
sg13
V/logos/gr/mini/erafilia.gif
p3970
sg4
V\u0391\u0398\u0397\u039d\u0391
p3971
sg15
V112
p3972
sg8
V\u0395\u03a1\u0391 \u03a6\u03b9\u03bb\u03af\u03b1 
p3973
ssS'205'
p3974
(dp3975
g1776
S'http://eco.onestreaming.com:8099'
p3976
sg13
V/logos/gr/mini/radioastro.gif
p3977
sg4
V\u03a1\u0395\u0398\u03a5\u039c\u039d\u039f
p3978
sg15
V205
p3979
sg8
VAstro Fm 96,4
p3980
ssS'118'
p3981
(dp3982
g846
S'http://a1758.l3271933757.c32719.g.lm.akamaistream.net/D/1758/32719/v0001/reflector:33757'
p3983
sg13
V/logos/gr/mini/102fm.gif
p3984
sg4
V\u0398\u0395\u03a3\u03a3\u0391\u039b\u039f\u039d\u0399\u039a\u0397
p3985
sg15
V118
p3986
sg8
V\u0395\u03a1\u03913 \u0391\u0384 \u03a0\u03c1\u03cc\u03b3\u03c1\u03b1\u03bc\u03bc\u03b1 102
p3987
ssS'770'
p3988
(dp3989
g846
S'http://live.onestreaming.com/radioionia'
p3990
sg13
V/logos/gr/mini/radioionia.gif
p3991
sg4
V\u03a3\u0391\u039c\u039f\u03a3
p3992
sg15
V770
p3993
sg8
V\u03a1\u03ac\u03b4\u03b9\u03bf \u0399\u03c9\u03bd\u03af\u03b1 105,2
p3994
ssS'1858'
p3995
(dp3996
g1776
S'http://citycom.serverroom.us:6762'
p3997
sg13
V/logos/gr/mini/clubsradio.gif
p3998
sg4
VINTERNET RADIO
p3999
sg15
V1858
p4000
sg8
VClub's Radio 
p4001
ssS'1859'
p4002
(dp4003
g13
V/logos/gr/mini/inathensdance.gif
p4004
sg4
VINTERNET RADIO
p4005
sg15
V1859
p4006
sg8
VIn Athens Dance Radio 
p4007
ssS'1850'
p4008
(dp4009
g13
V/logos/gr/mini/genesisfm.gif
p4010
sg4
VINTERNET RADIO
p4011
sg15
V1850
p4012
sg8
VGenesis FM 
p4013
ssS'1852'
p4014
(dp4015
g1776
S'http://85.17.30.90:9996'
p4016
sg13
V/logos/gr/mini/navagiagr.gif
p4017
sg4
VINTERNET RADIO
p4018
sg15
V1852
p4019
sg8
VNavagia.gr 
p4020
ssS'1853'
p4021
(dp4022
g13
V/logos/gr/mini/alina.gif
p4023
sg4
VINTERNET RADIO
p4024
sg15
V1853
p4025
sg8
VAlina Radio 
p4026
ssS'1854'
p4027
(dp4028
g13
V/logos/gr/mini/cooradio.gif
p4029
sg4
VINTERNET RADIO
p4030
sg15
V1854
p4031
sg8
VCooRadio 
p4032
ssS'1855'
p4033
(dp4034
g1776
S'http://radio.zbutsam.net:30570'
p4035
sg13
V/logos/gr/mini/zbutsam.gif
p4036
sg4
VINTERNET RADIO
p4037
sg15
V1855
p4038
sg8
VZbutsam 
p4039
ssS'1856'
p4040
(dp4041
g13
V/logos/gr/mini/radiomaniagr.gif
p4042
sg4
VINTERNET RADIO
p4043
sg15
V1856
p4044
sg8
VRadio Mania 
p4045
ssS'1857'
p4046
(dp4047
g1776
S'http://87.117.198.140:8018'
p4048
sg13
V/logos/gr/mini/westradiogr.gif
p4049
sg4
VINTERNET RADIO
p4050
sg15
V1857
p4051
sg8
VWest Radio 
p4052
ssS'919'
p4053
(dp4054
g13
V/logos/gr/mini/happydreamradio.gif
p4055
sg4
VINTERNET RADIO
p4056
sg15
V919
p4057
sg8
Vhappy dream radio 
p4058
ssS'420'
p4059
(dp4060
g4
V\u0391\u0398\u0397\u039d\u0391
p4061
sg6
S'athensdeejay'
p4062
sg8
VAthens DeeJay 95,2
p4063
sg10
S'http://91.132.6.21:8001'
p4064
sg12
g4064
sg13
V/logos/gr/mini/deejay.gif
p4065
sg15
V420
p4066
ssS'422'
p4067
(dp4068
g846
S'http://live.onestreaming.com/radiovelika'
p4069
sg13
V/logos/gr/mini/radiovelika.gif
p4070
sg4
V\u039b\u0391\u03a1\u0399\u03a3\u0391
p4071
sg15
V422
p4072
sg8
VRadio \u0392\u03b5\u03bb\u03af\u03ba\u03b1 92,2
p4073
ssS'911'
p4074
(dp4075
g846
S'http://live.onestreaming.com/mesogios'
p4076
sg13
V/logos/gr/mini/mesogios.gif
p4077
sg4
V\u039d\u0391\u039e\u039f\u03a3
p4078
sg15
V911
p4079
sg8
V\u039c\u03b5\u03c3\u03cc\u03b3\u03b5\u03b9\u03bf\u03c2 105,4
p4080
ssS'424'
p4081
(dp4082
g1776
S'http://208.43.81.168:8748'
p4083
sg13
V/logos/gr/mini/ioanninadj.gif
p4084
sg4
V\u0399\u03a9\u0391\u039d\u039d\u0399\u039d\u0391
p4085
sg15
V424
p4086
sg8
V\u0399\u03c9\u03ac\u03bd\u03bd\u03b9\u03bd\u03b1 Deejay 89,6
p4087
ssS'427'
p4088
(dp4089
g4
V\u03a0\u0391\u03a4\u03a1\u0391
p4090
sg258
S'smartfm'
p4091
sg8
VSmart Fm 100,7
p4092
sg261
S'http://smartfm.serverroom.us:8030'
p4093
sg263
g4093
sg13
V/logos/gr/mini/smartfm.gif
p4094
sg15
V427
p4095
ssS'912'
p4096
(dp4097
g1631
S'http://eco.onestreaming.com:8215'
p4098
sg13
V/logos/gr/mini/geramanis.gif
p4099
sg4
VINTERNET RADIO
p4100
sg15
V912
p4101
sg8
V\u03a0\u03ac\u03bd\u03bf\u03c2 \u0393\u03b5\u03c1\u03b1\u03bc\u03ac\u03bd\u03b7\u03c2 
p4102
ssS'309'
p4103
(dp4104
g1776
S'http://s1.onweb.gr:8028'
p4105
sg13
V/logos/gr/mini/kymaradio.gif
p4106
sg4
V\u039a\u0395\u03a1\u039a\u03a5\u03a1\u0391
p4107
sg15
V309
p4108
sg8
V\u039a\u03cd\u03bc\u03b1 Fm 90,3
p4109
ssS'302'
p4110
(dp4111
g1776
S'http://78.129.159.205:8048'
p4112
sg13
V/logos/gr/mini/impatron.gif
p4113
sg4
V\u03a0\u0391\u03a4\u03a1\u0391
p4114
sg15
V302
p4115
sg8
V\u0399.\u039c\u03b7\u03c4\u03c1\u03cc\u03c0\u03bf\u03bb\u03b9\u03c2 \u03a0\u03b1\u03c4\u03c1\u03ce\u03bd 88,4
p4116
ssS'952'
p4117
(dp4118
g846
S'http://live.onestreaming.com/alpha981'
p4119
sg13
V/logos/gr/mini/alpha981.gif
p4120
sg4
V\u03a0\u03a1\u0395\u0392\u0395\u0396\u0391
p4121
sg15
V952
p4122
sg8
VAlpha 98,1
p4123
ssS'1932'
p4124
(dp4125
g13
V/logos/gr/mini/sevdasgr.gif
p4126
sg4
VINTERNET RADIO
p4127
sg15
V1932
p4128
sg8
V\u03a3\u03b5\u03b2\u03bd\u03c4\u03ac\u03c2 FM 
p4129
ssS'1931'
p4130
(dp4131
g1776
S'http://s3.viastreaming.net:8670'
p4132
sg13
V/logos/gr/mini/sfinagr.gif
p4133
sg4
VINTERNET RADIO
p4134
sg15
V1931
p4135
sg8
V\u03a3\u03c6\u03ae\u03bd\u03b1 Radio 
p4136
ssS'1216'
p4137
(dp4138
g1776
S'http://s7.onweb.gr:8554'
p4139
sg13
V/logos/gr/mini/palmos95.gif
p4140
sg4
V\u039b\u0391\u039c\u0399\u0391
p4141
sg15
V1216
p4142
sg8
V\u03a0\u03b1\u03bb\u03bc\u03cc\u03c2 95
p4143
ssS'1937'
p4144
(dp4145
g1776
S'http://75.126.64.105:8152'
p4146
sg13
V/logos/gr/mini/rcity1028.gif
p4147
sg4
V\u039a\u0391\u03a4\u0395\u03a1\u0399\u039d\u0397
p4148
sg15
V1937
p4149
sg8
VRadio City 102,8
p4150
ssS'1936'
p4151
(dp4152
g1776
S'http://s8.onweb.gr:8706'
p4153
sg13
V/logos/gr/mini/fresh929.gif
p4154
sg4
V\u039a\u039f\u0396\u0391\u039d\u0397
p4155
sg15
V1936
p4156
sg8
VFresh FM 92,9
p4157
ssS'1935'
p4158
(dp4159
g13
V/logos/gr/mini/forbeaten.gif
p4160
sg4
VINTERNET RADIO
p4161
sg15
V1935
p4162
sg8
VForbeaten 
p4163
ssS'1939'
p4164
(dp4165
g13
V/logos/gr/mini/biscuitgr.gif
p4166
sg4
VINTERNET RADIO
p4167
sg15
V1939
p4168
sg8
VBiscuit Radio  
p4169
ssS'138'
p4170
(dp4171
g13
V/logos/gr/mini/noiselamia.gif
p4172
sg4
V\u039b\u0391\u039c\u0399\u0391
p4173
sg15
V138
p4174
sg8
VNoise Fm 100,5
p4175
ssS'847'
p4176
(dp4177
g13
V/logos/gr/mini/pluslive.gif
p4178
sg4
VINTERNET RADIO
p4179
sg15
V847
p4180
sg8
VPlus Live 
p4181
ssS'845'
p4182
(dp4183
g1776
S'http://46.4.65.194:8017'
p4184
sg13
V/logos/gr/mini/electrocaine.gif
p4185
sg4
VINTERNET RADIO
p4186
sg15
V845
p4187
sg8
VElectrocaine 
p4188
ssS'843'
p4189
(dp4190
g13
V/logos/gr/mini/radiopieria.gif
p4191
sg4
V\u039a\u0391\u03a4\u0395\u03a1\u0399\u039d\u0397
p4192
sg15
V843
p4193
sg8
V\u03a1\u03ac\u03b4\u03b9\u03bf \u03a0\u03b9\u03b5\u03c1\u03af\u03b1 104,2
p4194
ssS'842'
p4195
(dp4196
g846
S'http://s5.onweb.gr:8418'
p4197
sg13
V/logos/gr/mini/sohos.gif
p4198
sg4
V\u0398\u0395\u03a3\u03a3\u0391\u039b\u039f\u039d\u0399\u039a\u0397
p4199
sg15
V842
p4200
sg8
V\u03a3\u03bf\u03c7\u03cc\u03c2 Fm 88,7
p4201
ssS'841'
p4202
(dp4203
g846
S'http://sentrafm.live24.gr/sentrafm'
p4204
sg13
V/logos/gr/mini/sendrafm.gif
p4205
sg4
V\u0391\u0398\u0397\u039d\u0391
p4206
sg15
V841
p4207
sg8
VSentra Fm 103,3
p4208
ssS'848'
p4209
(dp4210
g1776
S'http://178.33.248.236:8006'
p4211
sg13
V/logos/gr/mini/funradio.gif
p4212
sg4
VINTERNET RADIO
p4213
sg15
V848
p4214
sg8
VFun Radio 
p4215
ssS'1986'
p4216
(dp4217
g1776
S'http://streamyourdream.org:8000/perfect'
p4218
sg13
V/logos/gr/mini/perfect1033.gif
p4219
sg4
V\u0392\u039f\u039b\u039f\u03a3
p4220
sg15
V1986
p4221
sg8
VPerfect Radio 103,3
p4222
ssS'1987'
p4223
(dp4224
g13
V/logos/gr/mini/myvita.gif
p4225
sg4
V\u0397\u03a1\u0391\u039a\u039b\u0395\u0399\u039f
p4226
sg15
V1987
p4227
sg8
VMyVita Radio 
p4228
ssS'1982'
p4229
(dp4230
g1776
S'http://208.43.115.44:8138'
p4231
sg13
V/logos/gr/mini/cannibal.gif
p4232
sg4
VINTERNET RADIO
p4233
sg15
V1982
p4234
sg8
VCannibal Radio 
p4235
ssS'1983'
p4236
(dp4237
g1776
S'http://stream.radiojar.com/trollradio-gr.mp3'
p4238
sg13
V/logos/gr/mini/troll.gif
p4239
sg4
V\u0391\u0398\u0397\u039d\u0391
p4240
sg15
V1983
p4241
sg8
VTroll Radio 
p4242
ssS'1980'
p4243
(dp4244
g846
S'http://live.onestreaming.com/antonisradio'
p4245
sg13
V/logos/gr/mini/antonisradio.gif
p4246
sg4
VINTERNET RADIO
p4247
sg15
V1980
p4248
sg8
VAntonis Radio 
p4249
ssS'1981'
p4250
(dp4251
g13
V/logos/gr/mini/melodiatrikala.gif
p4252
sg4
V\u03a4\u03a1\u0399\u039a\u0391\u039b\u0391
p4253
sg15
V1981
p4254
sg8
V\u03a1\u03ac\u03b4\u03b9\u03bf \u039c\u03b5\u03bb\u03c9\u03b4\u03af\u03b1 95,6
p4255
ssS'181'
p4256
(dp4257
g846
S'http://golive.onestreaming.com/ydrogeios'
p4258
sg13
V/logos/gr/mini/ydrogeios.gif
p4259
sg4
V\u0397\u03a1\u0391\u039a\u039b\u0395\u0399\u039f
p4260
sg15
V181
p4261
sg8
V\u03a5\u03b4\u03c1\u03cc\u03b3\u03b5\u03b9\u03bf\u03c2 106,9
p4262
ssS'1988'
p4263
(dp4264
g1776
S'http://s1.viastreaming.net:7430'
p4265
sg13
V/logos/gr/mini/nologo.gif
p4266
sg4
V\u0398\u0395\u03a3\u03a3\u0391\u039b\u039f\u039d\u0399\u039a\u0397
p4267
sg15
V1988
p4268
sg8
VCafe \u0388\u03bd\u03c4\u03b5\u03c7\u03bd\u03bf\u03bd 
p4269
ssS'1989'
p4270
(dp4271
g1776
S'http://s1.onweb.gr:8432'
p4272
sg13
V/logos/gr/mini/iak.gif
p4273
sg4
V\u0397\u03a1\u0391\u039a\u039b\u0395\u0399\u039f
p4274
sg15
V1989
p4275
sg8
V\u0399\u03b5\u03c1\u03ac \u0391\u03c1\u03c7\u03b9\u03b5\u03c0\u03b9\u03c3\u03ba\u03bf\u03c0\u03ae \u039a\u03c1\u03ae\u03c4\u03b7\u03c2 99,7
p4276
ssS'752'
p4277
(dp4278
g13
V/logos/gr/mini/studioe.gif
p4279
sg4
V\u0399\u03a9\u0391\u039d\u039d\u0399\u039d\u0391
p4280
sg15
V752
p4281
sg8
VStudio E 103
p4282
ssS'757'
p4283
(dp4284
g846
S'http://live.onestreaming.com/jetaime'
p4285
sg13
V/logos/gr/mini/jetaime.gif
p4286
sg4
V\u0391\u0398\u0397\u039d\u0391
p4287
sg15
V757
p4288
sg8
VAM Je t'aime 93,4
p4289
ssS'754'
p4290
(dp4291
g846
S'http://live.onestreaming.com/ant1santorinis'
p4292
sg13
V/logos/gr/mini/ant1santorinis.gif
p4293
sg4
V\u03a3\u0391\u039d\u03a4\u039f\u03a1\u0399\u039d\u0397
p4294
sg15
V754
p4295
sg8
VRadio Faros 105,9
p4296
ssS'759'
p4297
(dp4298
g1776
S'http://s3.onweb.gr:8436'
p4299
sg13
V/logos/gr/mini/radiodeth.gif
p4300
sg4
V\u0398\u0395\u03a3\u03a3\u0391\u039b\u039f\u039d\u0399\u039a\u0397
p4301
sg15
V759
p4302
sg8
V\u03a1\u03ac\u03b4\u03b9\u03bf \u0394\u0395\u0398 104,9
p4303
ssS'509'
p4304
(dp4305
g846
S'http://live.onestreaming.com/style100'
p4306
sg13
V/logos/gr/mini/style100.gif
p4307
sg4
V\u03a3H\u03a4\u0395\u0399\u0391
p4308
sg15
V509
p4309
sg8
VStyle 100
p4310
ssS'739'
p4311
(dp4312
g1776
S'http://188.40.131.14:9988'
p4313
sg13
V/logos/gr/mini/mesologgi.gif
p4314
sg4
V\u039c\u0395\u03a3\u039f\u039b\u039f\u0393\u0393\u0399
p4315
sg15
V739
p4316
sg8
V\u03a1\u03b1\u03b4\u03b9\u03cc\u03c6\u03c9\u03bd\u03bf \u039c\u03b5\u03c3\u03bf\u03bb\u03bf\u03b3\u03b3\u03af\u03bf\u03c5 92
p4317
ssS'1593'
p4318
(dp4319
g846
S'http://stream-push2.live24.gr/metrofm1012xalkida'
p4320
sg13
V/logos/gr/mini/metro1012.gif
p4321
sg4
V\u03a7\u0391\u039b\u039a\u0399\u0394\u0391
p4322
sg15
V1593
p4323
sg8
VMetro FM 101,2
p4324
ssS'226'
p4325
(dp4326
g1776
S'http://shout.streamwithq.gr:4168'
p4327
sg13
V/logos/gr/mini/radiopreveza.gif
p4328
sg4
V\u03a0\u03a1\u0395\u0392\u0395\u0396\u0391
p4329
sg15
V226
p4330
sg8
V\u03a1\u03ac\u03b4\u03b9\u03bf \u03a0\u03c1\u03ad\u03b2\u03b5\u03b6\u03b1 93
p4331
ssS'224'
p4332
(dp4333
g13
V/logos/gr/mini/noizeradio.gif
p4334
sg4
V\u03a3\u0395\u03a1\u03a1\u0395\u03a3
p4335
sg15
V224
p4336
sg8
VNoize Radio 93,5
p4337
ssS'222'
p4338
(dp4339
g13
V/logos/gr/mini/radiodrama.gif
p4340
sg4
V\u0394\u03a1\u0391\u039c\u0391
p4341
sg15
V222
p4342
sg8
V\u03a1\u03ac\u03b4\u03b9\u03bf \u0394\u03c1\u03ac\u03bc\u03b1 99,1
p4343
ssS'221'
p4344
(dp4345
g846
S'http://golive.onestreaming.com/sport103'
p4346
sg13
V/logos/gr/mini/sport103.gif
p4347
sg4
V\u0398\u0395\u03a3\u03a3\u0391\u039b\u039f\u039d\u0399\u039a\u0397
p4348
sg15
V221
p4349
sg8
VSport 103
p4350
ssS'220'
p4351
(dp4352
S'url'
p4353
S'http://sc2.greekstream.net:4012'
p4354
sg13
V/logos/gr/mini/ekfrasi.gif
p4355
sg4
V\u0398\u0395\u03a3\u03a3\u0391\u039b\u039f\u039d\u0399\u039a\u0397
p4356
sg15
V220
p4357
sg8
V\u03a1\u03ac\u03b4\u03b9\u03bf \u0388\u03ba\u03c6\u03c1\u03b1\u03c3\u03b7 92,4
p4358
ssS'505'
p4359
(dp4360
g13
V/logos/gr/mini/fasmafm.gif
p4361
sg4
V\u03a0\u03a4\u039f\u039bE\u039c\u0391\u0399\u0394\u0391
p4362
sg15
V505
p4363
sg8
V\u03a6\u03ac\u03c3\u03bc\u03b1 103
p4364
ssS'114'
p4365
(dp4366
g846
S'http://kissfm.live24.gr/kiss2111'
p4367
sg13
V/logos/gr/mini/kissfm.gif
p4368
sg4
V\u0391\u0398\u0397\u039d\u0391
p4369
sg15
V114
p4370
sg8
VKiss Fm 92,9
p4371
ssS'1182'
p4372
(dp4373
g4353
S'http://eco.onestreaming.com:8054'
p4374
sg13
V/logos/gr/mini/nowradio.gif
p4375
sg4
V\u0398\u0395\u03a3\u03a3\u0391\u039b\u039f\u039d\u0399\u039a\u0397
p4376
sg15
V1182
p4377
sg8
VNow Radio 
p4378
ssS'1028'
p4379
(dp4380
g4353
S'http://85.17.30.90:8078'
p4381
sg13
V/logos/gr/mini/river1066.gif
p4382
sg4
V\u039b\u0391\u03a1\u0399\u03a3\u0391
p4383
sg15
V1028
p4384
sg8
VRiver FM 106,6
p4385
ssS'726'
p4386
(dp4387
g4353
S'http://174.36.237.66:9450'
p4388
sg13
V/logos/gr/mini/nologo.gif
p4389
sg4
V\u0399\u03a9\u0391\u039d\u039d\u0399\u039d\u0391
p4390
sg15
V726
p4391
sg8
V\u03a1\u03ac\u03b4\u03b9\u03bf \u0397\u03c0\u03b5\u03b9\u03c1\u03bf\u03c2 94,5
p4392
ssS'727'
p4393
(dp4394
g4353
S'http://70.38.101.150:8012'
p4395
sg13
V/logos/gr/mini/feverkoz.gif
p4396
sg4
V\u039a\u039f\u0396\u0391\u039d\u0397
p4397
sg15
V727
p4398
sg8
VFever Radio 106,3
p4399
ssS'725'
p4400
(dp4401
g13
V/logos/gr/mini/nologo.gif
p4402
sg4
V\u039b\u0391\u03a1\u0399\u03a3\u0391
p4403
sg15
V725
p4404
sg8
VBest Fm 93,3
p4405
ssS'722'
p4406
(dp4407
g846
S'http://vimafm.live24.gr/vimafm'
p4408
sg13
V/logos/gr/mini/vimafm995.gif
p4409
sg4
V\u0391\u0398\u0397\u039d\u0391
p4410
sg15
V722
p4411
sg8
V\u0392\u03b7\u03bc\u03b1 Fm 99,5
p4412
ssS'728'
p4413
(dp4414
g13
V/logos/gr/mini/tripradio.gif
p4415
sg4
VINTERNET RADIO
p4416
sg15
V728
p4417
sg8
VTrip Radio 
p4418
ssS'1165'
p4419
(dp4420
g13
V/logos/gr/mini/wave974.gif
p4421
sg4
V\u03a0\u0391\u03a4\u03a1\u0391
p4422
sg15
V1165
p4423
sg8
VWave 97,4
p4424
ssS'1160'
p4425
(dp4426
g846
S'http://legacy-100-ams.servers.mediacdn.com/maxfm93-4-patra'
p4427
sg13
V/logos/gr/mini/maxfm934.gif
p4428
sg4
V\u03a0\u0391\u03a4\u03a1\u0391
p4429
sg15
V1160
p4430
sg8
VMax FM 93,4
p4431
ssS'1207'
p4432
(dp4433
g13
V/logos/gr/mini/psradio.gif
p4434
sg4
VINTERNET RADIO
p4435
sg15
V1207
p4436
sg8
VPs Radio 
p4437
ssS'1203'
p4438
(dp4439
g846
S'http://live.onestreaming.com/notesserres'
p4440
sg13
V/logos/gr/mini/notesserres.gif
p4441
sg4
V\u03a3\u0395\u03a1\u03a1\u0395\u03a3
p4442
sg15
V1203
p4443
sg8
VN\u03cc\u03c4\u03b5\u03c2 FM 106
p4444
ssS'633'
p4445
(dp4446
g846
S'http://live.onestreaming.com/politia'
p4447
sg13
V/logos/gr/mini/politia.gif
p4448
sg4
V\u03a3\u03a0\u0391\u03a1\u03a4\u0397
p4449
sg15
V633
p4450
sg8
V\u03a0\u03bf\u03bb\u03b9\u03c4\u03b5\u03af\u03b1 90,7
p4451
ssS'1899'
p4452
(dp4453
g4353
S'http://99.198.118.250:8008/live'
p4454
sg13
V/logos/gr/mini/mustathens.gif
p4455
sg4
VINTERNET RADIO
p4456
sg15
V1899
p4457
sg8
VRadio Must Athens 
p4458
ssS'634'
p4459
(dp4460
g846
S'http://live.onestreaming.com/avanti'
p4461
sg13
V/logos/gr/mini/avantiradio.gif
p4462
sg4
V\u03a3\u039a\u0399\u0391\u0398\u039f\u03a3
p4463
sg15
V634
p4464
sg8
VAvanti Fm 98,3
p4465
ssS'1896'
p4466
(dp4467
g13
V/logos/gr/mini/nologo.gif
p4468
sg4
VINTERNET RADIO
p4469
sg15
V1896
p4470
sg8
VSteezy Radio 
p4471
ssS'1897'
p4472
(dp4473
g4353
S'http://eco.onestreaming.com:8125'
p4474
sg13
V/logos/gr/mini/milos108.gif
p4475
sg4
V\u039c\u0397\u039b\u039f\u03a3
p4476
sg15
V1897
p4477
sg8
V\u039c\u03ae\u03bb\u03bf\u03c2 108 108
p4478
ssS'1890'
p4479
(dp4480
g13
V/logos/gr/mini/radiofasi.gif
p4481
sg4
V\u0398\u0395\u03a3\u03a3\u0391\u039b\u039f\u039d\u0399\u039a\u0397
p4482
sg15
V1890
p4483
sg8
V\u03a1\u03ac\u03b4\u03b9\u03bf \u03a6\u03ac\u03c3\u03b7 
p4484
ssS'1891'
p4485
(dp4486
g4353
S'http://www.iek-akmi.gr:9998'
p4487
sg13
V/logos/gr/mini/iekakmi.gif
p4488
sg4
V\u0391\u0398\u0397\u039d\u0391
p4489
sg15
V1891
p4490
sg8
V\u0391\u039a\u039c\u0397 Radio 
p4491
ssS'1892'
p4492
(dp4493
g4353
S'http://94.100.18.210:8022'
p4494
sg13
V/logos/gr/mini/flippin.gif
p4495
sg4
VINTERNET RADIO
p4496
sg15
V1892
p4497
sg8
VFlippinradio 
p4498
ssS'635'
p4499
(dp4500
g846
S'http://live.onestreaming.com/toxotis'
p4501
sg13
V/logos/gr/mini/toxotisfm.gif
p4502
sg4
V\u0393\u0399\u0391\u039d\u039d\u0399\u03a4\u03a3\u0391
p4503
sg15
V635
p4504
sg8
V\u03a4\u03bf\u03be\u03cc\u03c4\u03b7\u03c2 96,3
p4505
ssS'958'
p4506
(dp4507
g846
S'http://live.onestreaming.com/super88'
p4508
sg13
V/logos/gr/mini/super88.gif
p4509
sg4
V\u039e\u0391\u039d\u0398\u0397
p4510
sg15
V958
p4511
sg8
VSuper 88
p4512
ssS'48'
p4513
(dp4514
g4353
S'http://activeradio.gr:8000/activemp3'
p4515
sg13
V/logos/gr/mini/activeradio.gif
p4516
sg4
VINTERNET RADIO
p4517
sg15
V48
p4518
sg8
VActive Radio 
p4519
ssS'2003'
p4520
(dp4521
g13
V/logos/gr/mini/radioparis.gif
p4522
sg4
V\u03a1\u039f\u0394\u039f\u03a3
p4523
sg15
V2003
p4524
sg8
VRadio Paris 
p4525
ssS'46'
p4526
(dp4527
S'url'
p4528
S'http://s1.onweb.gr:8860'
p4529
sg13
V/logos/gr/mini/stylidafm.gif
p4530
sg4
V\u039b\u0391\u039c\u0399\u0391
p4531
sg15
V46
p4532
sg8
VStylida Fm 94,1
p4533
ssS'950'
p4534
(dp4535
g13
V/logos/gr/mini/ixoxromma.gif
p4536
sg4
VINTERNET RADIO
p4537
sg15
V950
p4538
sg8
V\u03a7\u03c1\u03ce\u03bc\u03b1\u03c4\u03b1 \u0388\u03c1\u03c9\u03c4\u03bf\u03c2 
p4539
ssS'44'
p4540
(dp4541
g4528
S'http://s1.onweb.gr:8096'
p4542
sg13
V/logos/gr/mini/936.gif
p4543
sg4
V\u039a\u03a5\u03a0\u0391\u03a1\u0399\u03a3\u03a3\u0399\u0391
p4544
sg15
V44
p4545
sg8
V\u03a1\u03ac\u03b4\u03b9\u03bf \u039a\u03c5\u03c0\u03b1\u03c1\u03b9\u03c3\u03c3\u03af\u03b1 93,6
p4546
ssS'45'
p4547
(dp4548
g479
S'http://legacy-100-ams.servers.mediacdn.com/enaplus'
p4549
sg13
V/logos/gr/mini/chroma985.gif
p4550
sg4
V\u039b\u0391\u039c\u0399\u0391
p4551
sg15
V45
p4552
sg8
V\u03a7\u03c1\u03ce\u03bc\u03b1 98,5
p4553
ssS'955'
p4554
(dp4555
g846
S'http://live.onestreaming.com/makistia'
p4556
sg13
V/logos/gr/mini/makistia.gif
p4557
sg4
V\u03a0\u03a5\u03a1\u0393\u039f\u03a3
p4558
sg15
V955
p4559
sg8
V\u03a1\u03ac\u03b4\u03b9\u03bf \u039c\u03b1\u03ba\u03b9\u03c3\u03c4\u03af\u03b1 98,6
p4560
ssS'954'
p4561
(dp4562
g13
V/logos/gr/mini/star884.gif
p4563
sg4
V\u0397\u03a1\u0391\u039a\u039b\u0395\u0399\u039f
p4564
sg15
V954
p4565
sg8
VStar 88,4
p4566
ssS'1112'
p4567
(dp4568
g13
V/logos/gr/mini/diavlosdramas.gif
p4569
sg4
V\u0394\u03a1\u0391\u039c\u0391
p4570
sg15
V1112
p4571
sg8
V\u0394\u03af\u03b1\u03c5\u03bb\u03bf\u03c2 \u0394\u03c1\u03ac\u03bc\u03b1\u03c2 93
p4572
ssS'5'
(dp4573
g846
S'http://golive.onestreaming.com/arion2'
p4574
sg13
V/logos/gr/mini/arion_2.gif
p4575
sg4
V\u0391\u0398\u0397\u039d\u0391
p4576
sg15
V5
sg8
VArion 2 
p4577
ssS'1713'
p4578
(dp4579
g13
V/logos/gr/mini/romeos.gif
p4580
sg4
V\u0399\u03a9\u0391\u039d\u039d\u0399\u039d\u0391
p4581
sg15
V1713
p4582
sg8
V\u03a1\u03ac\u03b4\u03b9\u03bf \u03a1\u03c9\u03bc\u03b1\u03af\u03bf\u03c2 94
p4583
ssS'489'
p4584
(dp4585
g846
S'http://live.onestreaming.com/deltaradio'
p4586
sg13
V/logos/gr/mini/deltaradio.gif
p4587
sg4
V\u0398\u0395\u03a3\u03a3\u0391\u039b\u039f\u039d\u0399\u039a\u0397
p4588
sg15
V489
p4589
sg8
VIEK Delta Radio 
p4590
ssS'488'
p4591
(dp4592
g13
V/logos/gr/mini/knossosfm.gif
p4593
sg4
V\u0397\u03a1\u0391\u039a\u039b\u0395\u0399\u039f
p4594
sg15
V488
p4595
sg8
V\u039a\u03bd\u03c9\u03c3\u03c3\u03cc\u03c2 Fm 100,6
p4596
ssS'484'
p4597
(dp4598
g846
S'http://mediaserver.mad.tv:33333/madradio'
p4599
sg13
V/logos/gr/mini/madradio.gif
p4600
sg4
V\u0391\u0398\u0397\u039d\u0391
p4601
sg15
V484
p4602
sg8
VMad Radio 106,2
p4603
ssS'482'
p4604
(dp4605
S'url'
p4606
S'http://s3.onweb.gr:8438'
p4607
sg13
V/logos/gr/mini/radioclub.gif
p4608
sg4
V\u03a4\u03a1\u0399\u039a\u0391\u039b\u0391
p4609
sg15
V482
p4610
sg8
V\u039b\u03ad\u03c3\u03c7\u03b7 97,6
p4611
ssS'480'
p4612
(dp4613
g4606
S'http://46.4.65.194:8025'
p4614
sg13
V/logos/gr/mini/star929.gif
p4615
sg4
V\u039d\u0391\u03a5\u03a0\u039b\u0399\u039f
p4616
sg15
V480
p4617
sg8
VStar Fm 92,9
p4618
ssS'1807'
p4619
(dp4620
g13
V/logos/gr/mini/nologo.gif
p4621
sg4
V\u0397\u03a1\u0391\u039a\u039b\u0395\u0399\u039f
p4622
sg15
V1807
p4623
sg8
VYouRadio 89
p4624
ssS'1806'
p4625
(dp4626
g4606
S'http://stream.myip.gr:8020'
p4627
sg13
V/logos/gr/mini/cosmos896.gif
p4628
sg4
V\u039a\u0391\u0392\u0391\u039b\u0391
p4629
sg15
V1806
p4630
sg8
VCosmos Fm 92,6
p4631
ssS'1805'
p4632
(dp4633
g4606
S'http://www.streamyourdream.org:8000/urbanradio'
p4634
sg13
V/logos/gr/mini/urbanradiogr.gif
p4635
sg4
VINTERNET RADIO
p4636
sg15
V1805
p4637
sg8
VUrban Radio 
p4638
ssS'1804'
p4639
(dp4640
g4606
S'http://listen.radionomy.com/midnight-events-radio.m3u'
p4641
sg13
V/logos/gr/mini/midnightevents.gif
p4642
sg4
VINTERNET RADIO
p4643
sg15
V1804
p4644
sg8
VMidnight Events Radio 
p4645
ssS'1803'
p4646
(dp4647
g4606
S'http://eco.onestreaming.com:8079'
p4648
sg13
V/logos/gr/mini/bangee.gif
p4649
sg4
V\u039b\u0391\u03a1\u0399\u03a3\u0391
p4650
sg15
V1803
p4651
sg8
VBangee 
p4652
ssS'1802'
p4653
(dp4654
g846
S'http://s3.onweb.gr:8454'
p4655
sg13
V/logos/gr/mini/superfm896.gif
p4656
sg4
V\u03a7\u0391\u039d\u0399\u0391
p4657
sg15
V1802
p4658
sg8
VSuper FM 89,6
p4659
ssS'1801'
p4660
(dp4661
g13
V/logos/gr/mini/sportfmvolos.gif
p4662
sg4
V\u0392\u039f\u039b\u039f\u03a3
p4663
sg15
V1801
p4664
sg8
VSport FM 89,5
p4665
ssS'1860'
p4666
(dp4667
g13
V/logos/gr/mini/inathensgreek.gif
p4668
sg4
VINTERNET RADIO
p4669
sg15
V1860
p4670
sg8
VIn Athens Greek Radio 
p4671
ssS'1714'
p4672
(dp4673
g846
S'http://live.camstreams.com/misconfig.wmv'
p4674
sg13
V/logos/gr/mini/sfinakiafm.gif
p4675
sg4
V
sg15
V1714
p4676
sg8
V\u03a3\u03c6\u03b7\u03bd\u03ac\u03ba\u03b9\u03b1 FM 97,3
p4677
ssS'1809'
p4678
(dp4679
g846
S'http://legacy-100-ams.servers.mediacdn.com/mea-limnos'
p4680
sg13
V/logos/gr/mini/nologo.gif
p4681
sg4
V\u039b\u0397\u039c\u039d\u039f\u03a3
p4682
sg15
V1809
p4683
sg8
V\u039c.\u0395.\u0391.\u03a3 \u03a1\u03ac\u03b4\u03b9\u03bf \u039b\u03ae\u03bc\u03bd\u03bf\u03c2 98
p4684
ssS'1808'
p4685
(dp4686
g13
V/logos/gr/mini/nologo.gif
p4687
sg4
V\u0395\u039b\u0391\u03a3\u03a3O\u039d\u0391
p4688
sg15
V1808
p4689
sg8
V\u0397 \u03a6\u03c9\u03bd\u03ae \u03c4\u03b7\u03c2 \u0395\u03bb\u03b1\u03c3\u03c3\u03cc\u03bd\u03b1\u03c2 
p4690
ssS'472'
p4691
(dp4692
g846
S'http://live.onestreaming.com/bestmytilini'
p4693
sg13
V/logos/gr/mini/bestmytilini.gif
p4694
sg4
V\u039c\u03a5\u03a4\u0399\u039b\u0397\u039d\u0397
p4695
sg15
V472
p4696
sg8
VBest Fm 98,1
p4697
ssS'473'
p4698
(dp4699
g13
V/logos/gr/mini/topfmioannina.gif
p4700
sg4
V\u0399\u03a9\u0391\u039d\u039d\u0399\u039d\u0391
p4701
sg15
V473
p4702
sg8
VTop Fm 
p4703
ssS'2000'
p4704
(dp4705
g4606
S'http://72.55.146.84:8020'
p4706
sg13
V/logos/gr/mini/sierakozani.gif
p4707
sg4
V\u03a3\u0399\u0391\u03a4\u0399\u03a3\u03a4\u0391
p4708
sg15
V2000
p4709
sg8
VSiera FM 105,3
p4710
ssS'2001'
p4711
(dp4712
g4606
S'http://s7.onweb.gr:8552'
p4713
sg13
V/logos/gr/mini/myradiokarditsa.gif
p4714
sg4
V\u039a\u0391\u03a1\u0394\u0399\u03a4\u03a3\u0391
p4715
sg15
V2001
p4716
sg8
VMy Radio 
p4717
ssS'2006'
p4718
(dp4719
g13
V/logos/gr/mini/nologo.gif
p4720
sg4
VINTERNET RADIO
p4721
sg15
V2006
p4722
sg8
VSok Radio 
p4723
ssS'2007'
p4724
(dp4725
g13
V/logos/gr/mini/nologo.gif
p4726
sg4
VINTERNET RADIO
p4727
sg15
V2007
p4728
sg8
VRadio Isart 
p4729
ssS'2004'
p4730
(dp4731
g13
V/logos/gr/mini/beton7art.gif
p4732
sg4
VINTERNET RADIO
p4733
sg15
V2004
p4734
sg8
VBeton7 Art Radio 
p4735
ssS'2008'
p4736
(dp4737
g846
S'http://live.onestreaming.com/armonia'
p4738
sg13
V/logos/gr/mini/armonia.gif
p4739
sg4
V\u0391\u0398\u0397\u039d\u0391
p4740
sg15
V2008
p4741
sg8
V\u0391\u03c1\u03bc\u03bf\u03bd\u03af\u03b1 
p4742
ssS'2009'
p4743
(dp4744
g4606
S'http://174.142.22.74:8281'
p4745
sg13
V/logos/gr/mini/monkeygr.gif
p4746
sg4
VINTERNET RADIO
p4747
sg15
V2009
p4748
sg8
VMonkey Webradio  
p4749
ssS'1864'
p4750
(dp4751
g4606
S'http://stream.myip.gr:8054'
p4752
sg13
V/logos/gr/mini/venusthess.gif
p4753
sg4
V\u0398\u0395\u03a3\u03a3\u0391\u039b\u039f\u039d\u0399\u039a\u0397
p4754
sg15
V1864
p4755
sg8
VVenus 91,1
p4756
ss.