(dp1
S'452'
p2
(dp3
S'logo'
p4
V/logos/gr/mini/xanthidj.gif
p5
sS'city'
p6
V\u039e\u0391\u039d\u0398\u0397
p7
sS'id'
p8
V452
p9
sS'title'
p10
VXanthi DeeJay 90,6
p11
ssS'1948'
p12
(dp13
S'city'
p14
VINTERNET RADIO
p15
sS'cn'
p16
S'patata'
p17
sS'title'
p18
VRadio Patata 
p19
sS'url'
p20
S'http://50.7.243.50:8082'
p21
sS'weblink'
p22
g21
sS'logo'
p23
V/logos/gr/mini/patata.gif
p24
sS'id'
p25
V1948
p26
ssS'1942'
p27
(dp28
g14
V\u0391\u0393\u03a1\u0399\u039d\u0399\u039f
p29
sg16
S'spaceagrinio'
p30
sg18
VSpace FM 107
p31
sg20
S'http://188.40.131.14:8004'
p32
sg22
g32
sg23
V/logos/gr/mini/spaceagrinio.gif
p33
sg25
V1942
p34
ssS'1943'
p35
(dp36
g14
VINTERNET RADIO
p37
sg16
S'radioclick'
p38
sg18
VDJ Vasilis WebRadio 
p39
sg20
S'http://176.9.35.49:9875'
p40
sg22
g40
sg23
V/logos/gr/mini/djvasilis.gif
p41
sg25
V1943
p42
ssS'1940'
p43
(dp44
g14
VINTERNET RADIO
p45
sg16
S'kapsimiwr'
p46
sg18
VKapsimi WR 
p47
sg20
S'http://78.129.142.4:8264'
p48
sg22
g48
sg23
V/logos/gr/mini/kapsimiwr.gif
p49
sg25
V1940
p50
ssS'1946'
p51
(dp52
g14
VINTERNET RADIO
p53
sg16
S'radio10'
p54
sg18
VRadio 10 
p55
sg20
S'http://live.onestreaming.com/radio10'
p56
sg22
g56
sg23
V/logos/gr/mini/radio10.gif
p57
sg25
V1946
p58
ssS'1947'
p59
(dp60
S'url'
p61
S'http://208.43.121.133:8144/;'
p62
sS'logo'
p63
Vhttp://cdn.e-radio.gr/logos/gr/mini/dynamicweb.png
p64
sS'city'
p65
V\u0391\u0398\u0397\u039d\u0391
p66
sS'id'
p67
V1947
p68
sS'title'
p69
VDynamic Web Radio
p70
ssS'1944'
p71
(dp72
g14
V\u0391\u0398\u0397\u039d\u0391
p73
sg16
S'existon'
p74
sg18
VExiston Radio 
p75
sg20
S'http://eco.onestreaming.com:8201'
p76
sg22
g76
sg23
V/logos/gr/mini/existon.gif
p77
sg25
V1944
p78
ssS'1945'
p79
(dp80
g14
VINTERNET RADIO
p81
sg16
S'starwalkersng'
p82
sg18
VStarwalkers New Generation 
p83
sg20
S'http://208.43.115.44:9178'
p84
sg22
g84
sg23
V/logos/gr/mini/starwalkersng.gif
p85
sg25
V1945
p86
ssS'819'
p87
(dp88
g23
V/logos/gr/mini/panorama.gif
p89
sg14
V\u0398\u0395\u03a3\u03a3\u0391\u039b\u039f\u039d\u0399\u039a\u0397
p90
sg25
V819
p91
sg18
V\u03a0\u03b1\u03bd\u03cc\u03c1\u03b1\u03bc\u03b1 98,4
p92
ssS'347'
p93
(dp94
g63
Vhttp://cdn.e-radio.gr/logos/gr/mini/lampsi886.png
p95
sg65
V\u0392\u039f\u039b\u039f\u03a3
p96
sg67
V347
p97
sg69
V\u039b\u03ac\u03bc\u03c8\u03b7
p98
ssS'341'
p99
(dp100
g14
V\u0397\u03a1\u0391\u039a\u039b\u0395\u0399\u039f
p101
sg16
S'melodyfm'
p102
sg18
VMelody Fm 98,7
p103
sg20
S'http://94.75.200.140/melody'
p104
sg22
g104
sg23
V/logos/gr/mini/melodyfm.gif
p105
sg25
V341
p106
ssS'343'
p107
(dp108
g63
Vhttp://cdn.e-radio.gr/logos/gr/mini/dromosweb.png
p109
sg65
VINTERNET RADIO
p110
sg67
V343
p111
sg69
VDromos Radio
p112
ssS'919'
p113
(dp114
g23
V/logos/gr/mini/happydreamradio.gif
p115
sg14
VINTERNET RADIO
p116
sg25
V919
p117
sg18
Vhappy dream radio 
p118
ssS'348'
p119
(dp120
g14
V\u0397\u03a1\u0391\u039a\u039b\u0395\u0399\u039f
p121
sg16
S'trafficfm'
p122
sg18
VTraffic FM 91,8
p123
sg20
S'http://s5.onweb.gr:8506'
p124
sg22
g124
sg23
V/logos/gr/mini/trafficfm.gif
p125
sg25
V348
p126
ssS'817'
p127
(dp128
g14
V\u039a\u039f\u03a1\u0399\u039d\u0398\u039f\u03a3
p129
sg16
S'myradionet'
p130
sg18
VMy Radio 89,6
p131
sg20
S'http://live.onestreaming.com/myradionet'
p132
sg22
g132
sg23
V/logos/gr/mini/myradionet.gif
p133
sg25
V817
p134
ssS'1799'
p135
(dp136
g14
VINTERNET RADIO
p137
sg16
S'radioenaau'
p138
sg18
VRadio ENA 87,6
p139
sg20
S'http://media.on.net/radio/51.m3u'
p140
sg22
g140
sg23
V/logos/gr/mini/radioenaau.gif
p141
sg25
V1799
p142
ssS'1798'
p143
(dp144
g14
V\u0395\u039b\u0391\u03a3\u03a3O\u039d\u0391
p145
sg16
S'party971'
p146
sg18
VParty 97,1
p147
sg20
S'http://s1.onweb.gr:8824'
p148
sg22
g148
sg23
V/logos/gr/mini/party971.gif
p149
sg25
V1798
p150
ssS'718'
p151
(dp152
g14
V\u039b\u0391\u03a1\u0399\u03a3\u0391
p153
sg16
S'avantifm'
p154
sg18
VAvanti Fm 107,6
p155
sg20
S'http://avantifm.live24.gr/avantifm'
p156
sg22
g156
sg23
V/logos/gr/mini/avantifm.gif
p157
sg25
V718
p158
ssS'1793'
p159
(dp160
g14
V\u039f\u03a1\u0395\u03a3\u03a4\u0399\u0391\u0394\u0391
p161
sg16
S'mad107orest'
p162
sg18
VKiss 107
p163
sg20
S'http://shout.streamwithq.gr:4126'
p164
sg22
g164
sg23
V/logos/gr/mini/kiss107orest.gif
p165
sg25
V1793
p166
ssS'716'
p167
(dp168
g14
V\u03a0\u0391\u03a4\u03a1\u0391
p169
sg16
S'radiopatra'
p170
sg18
VRadio \u03a0\u03ac\u03c4\u03c1\u03b1 106,5
p171
sg20
S'http://174.142.32.91:9200'
p172
sg22
g172
sg23
V/logos/gr/mini/radiopatra.gif
p173
sg25
V716
p174
ssS'1791'
p175
(dp176
g14
V\u039a\u039f\u03a1\u0399\u039d\u0398\u039f\u03a3
p177
sg16
S'kappa879'
p178
sg18
VKappa Radio 87,9
p179
sg20
S'http://s3.onweb.gr:8086'
p180
sg22
g180
sg23
V/logos/gr/mini/nologo.gif
p181
sg25
V1791
p182
ssS'714'
p183
(dp184
g14
V\u039a\u0391\u03a1\u03a0\u0395\u039d\u0397\u03a3\u0399
p185
sg16
S'karpenisi'
p186
sg18
V\u03a1\u03ac\u03b4\u03b9\u03bf \u039a\u03b1\u03c1\u03c0\u03b5\u03bd\u03ae\u03c3\u03b9 97,5
p187
sg20
S'http://live.onestreaming.com/karpenisi'
p188
sg22
g188
sg23
V/logos/gr/mini/karpenisi.gif
p189
sg25
V714
p190
ssS'1797'
p191
(dp192
g14
V\u0391\u039b\u0395\u039e\u0391\u039d\u0394\u03a1\u039f\u03a5\u03a0\u039f\u039b\u0397
p193
sg16
S'noise978'
p194
sg18
VNoise Radio 97,8
p195
sg20
S'http://ams01.egihosting.com:4240'
p196
sg22
g196
sg23
V/logos/gr/mini/noise978.gif
p197
sg25
V1797
p198
ssS'1796'
p199
(dp200
g14
V\u0391\u0398\u0397\u039d\u0391
p201
sg16
S'musicradiogr'
p202
sg18
VMusicRadio.Gr 
p203
sg20
S'http://musicradio.mediabox.gr/musicradio'
p204
sg22
g204
sg23
V/logos/gr/mini/musicradiogr.gif
p205
sg25
V1796
p206
ssS'1795'
p207
(dp208
g14
V\u0391\u0398\u0397\u039d\u0391
p209
sg16
S'moreradio'
p210
sg18
VMoreradio 
p211
sg20
S'http://96.30.20.193:8008'
p212
sg22
g212
sg23
V/logos/gr/mini/moreradio.gif
p213
sg25
V1795
p214
ssS'710'
p215
(dp216
g14
V\u03a3\u03a0\u0391\u03a1\u03a4\u0397
p217
sg16
S'ant1south'
p218
sg18
VAntenna \u039d.\u0395\u03bb\u03bb\u03ac\u03b4\u03b1\u03c2 97,1
p219
sg20
S'http://live.onestreaming.com/ant1south'
p220
sg22
g220
sg23
V/logos/gr/mini/ant1south.gif
p221
sg25
V710
p222
ssS'478'
p223
(dp224
g14
V\u0398\u0395\u03a3\u03a3\u0391\u039b\u039f\u039d\u0399\u039a\u0397
p225
sS'cn'
p226
S'republic'
p227
sg18
VRepublic 100,3
p228
sS'url'
p229
S'http://streamx2.greekradios.gr:8000'
p230
sS'weblink'
p231
g230
sg23
V/logos/gr/mini/republic.gif
p232
sg25
V478
p233
ssS'2072'
p234
(dp235
S'url'
p236
S'http://5.175.8.84:8050/;'
p237
sg63
Vhttp://cdn.e-radio.gr/logos/gr/mini/eroradio.png
p238
sg65
VMONHEIM
p239
sg67
V2072
p240
sg69
V\u0395\u03bb\u03bb\u03b7\u03bd\u03b9\u03ba\u03cc \u03a1\u03ac\u03b4\u03b9\u03bf \u039f\u03bc\u03bf\u03b3\u03ad\u03bd\u03b5\u03b9\u03b1\u03c2 2
p241
ssS'1069'
p242
(dp243
g14
V\u039a\u039f\u039c\u039f\u03a4H\u039d\u0397
p244
sg16
S'radiorodopi'
p245
sg18
V\u03a1\u03ac\u03b4\u03b9\u03bf \u03a1\u03bf\u03b4\u03cc\u03c0\u03b7 95,5
p246
sg20
S'http://173.236.59.82:8060'
p247
sg22
g247
sg23
V/logos/gr/mini/radiorodopi.gif
p248
sg25
V1069
p249
ssS'1068'
p250
(dp251
g236
S'http://69.175.13.130:8060/;'
p252
sg63
Vhttp://cdn.e-radio.gr/logos/gr/mini/nologo.png
p253
sg65
V\u039a\u039f\u039c\u039f\u03a4H\u039d\u0397
p254
sg67
V1068
p255
sg69
V\u03a1\u03ac\u03b4\u03b9\u03bf \u039e\u03c5\u03bb\u03b1\u03b3\u03b1\u03bd\u03ae
p256
ssS'1702'
p257
(dp258
g23
V/logos/cy/mini/mostra.gif
p259
sg14
VINTERNET RADIO
p260
sg25
V1702
p261
sg18
VRadio Mostra 
p262
ssS'422'
p263
(dp264
S'url'
p265
S'http://live.onestreaming.com/radiovelika'
p266
sg23
V/logos/gr/mini/radiovelika.gif
p267
sg14
V\u039b\u0391\u03a1\u0399\u03a3\u0391
p268
sg25
V422
p269
sg18
VRadio \u0392\u03b5\u03bb\u03af\u03ba\u03b1 92,2
p270
ssS'1706'
p271
(dp272
S'url'
p273
S'http://golive.onestreaming.com/akousgazi'
p274
sg23
V/logos/gr/mini/akous_gazi.gif
p275
sg14
V\u0391\u0398\u0397\u039d\u0391
p276
sg25
V1706
p277
sg18
VAkous. Gazi 
p278
ssS'1707'
p279
(dp280
g273
S'http://golive.onestreaming.com/akousstage'
p281
sg23
V/logos/gr/mini/akousstage_edgar.gif
p282
sg14
V\u0391\u0398\u0397\u039d\u0391
p283
sg25
V1707
p284
sg18
VAkous. Edgar's Stage 
p285
ssS'1708'
p286
(dp287
g273
S'http://golive.onestreaming.com/akousdeluxe'
p288
sg23
V/logos/gr/mini/akous_domoteldeluxe.gif
p289
sg14
V\u0391\u0398\u0397\u039d\u0391
p290
sg25
V1708
p291
sg18
VAkous.Domotel Deluxe 
p292
ssS'1709'
p293
(dp294
g273
S'http://golive.onestreaming.com/akous80s'
p295
sg23
V/logos/gr/mini/akous_80s.gif
p296
sg14
V\u0391\u0398\u0397\u039d\u0391
p297
sg25
V1709
p298
sg18
VAkous. 80s 
p299
ssS'1064'
p300
(dp301
g236
S'http://s4.onweb.gr:8404/;'
p302
sg63
Vhttp://cdn.e-radio.gr/logos/gr/mini/kralfm.png
p303
sg65
V\u039e\u0391\u039d\u0398\u0397
p304
sg67
V1064
p305
sg69
VKral FM
p306
ssS'1066'
p307
(dp308
g14
V\u039a\u0391\u0392\u0391\u039b\u0391
p309
sS'cn'
p310
S'proini937'
p311
sg18
V\u03a1\u03ac\u03b4\u03b9\u03bf \u03a0\u03c1\u03c9\u03ca\u03bd\u03ae 93,7
p312
sS'url'
p313
S'http://62.103.31.151:8000'
p314
sS'weblink'
p315
g314
sg23
V/logos/gr/mini/proini937.gif
p316
sg25
V1066
p317
ssS'913'
p318
(dp319
S'url'
p320
S'http://eco.onestreaming.com:8168'
p321
sg23
V/logos/gr/mini/radioinlaiko.gif
p322
sg14
VINTERNET RADIO
p323
sg25
V913
p324
sg18
VRadioIn \u039b\u03b1\u03ca\u03ba\u03cc 
p325
ssS'298'
p326
(dp327
g14
V\u03a3\u03a5\u039c\u0397
p328
sg310
S'starradio1078'
p329
sg18
VStar Radio 107,8
p330
sg313
S'http://starradio.no-ip.biz:2380'
p331
sg315
g331
sg23
V/logos/gr/mini/starradio1078.gif
p332
sg25
V298
p333
ssS'299'
p334
(dp335
g14
V\u039a\u0391\u0392\u0391\u039b\u0391
p336
sg310
S'energy988'
p337
sg18
VRadio Energy 96,6
p338
sg313
S'http://liveradio.energy966.com:8008'
p339
sg315
g339
sg23
V/logos/gr/mini/energy988.gif
p340
sg25
V299
p341
ssS'296'
p342
(dp343
g14
V\u03a7\u0391\u039b\u039a\u0399\u0394\u0391
p344
sg310
S'dalkas'
p345
sg18
VDalkas 88,2
p346
sg313
S'http://78.46.66.215:8007'
p347
sg315
g347
sg23
V/logos/gr/mini/dalkas.gif
p348
sg25
V296
p349
ssS'295'
p350
(dp351
S'url'
p352
S'http://stream2.greekradios.gr:8012'
p353
sg23
V/logos/gr/mini/elladafm.gif
p354
sg14
V\u0391\u039b\u0395\u039e\u0391\u039d\u0394\u03a1\u039f\u03a5\u03a0\u039f\u039b\u0397
p355
sg25
V295
p356
sg18
V\u0395\u03bb\u03bb\u03ac\u03b4\u03b1 FM 98,7
p357
ssS'292'
p358
(dp359
g23
V/logos/gr/mini/VFM.gif
p360
sg14
V\u0391\u0398\u0397\u039d\u0391
p361
sg25
V292
p362
sg18
VVFM 88,3
p363
ssS'293'
p364
(dp365
g352
S'http://91.132.6.21:8005'
p366
sg23
V/logos/gr/mini/lampsifm.gif
p367
sg14
V\u0391\u0398\u0397\u039d\u0391
p368
sg25
V293
p369
sg18
V\u039b\u03ac\u03bc\u03c8\u03b7 92,3
p370
ssS'290'
p371
(dp372
g352
S'http://174.36.237.66:8220'
p373
sg23
V/logos/gr/mini/rythmos1038.gif
p374
sg14
V\u0391\u03a1\u0393\u039f\u03a3
p375
sg25
V290
p376
sg18
V\u03a1\u03c5\u03b8\u03bc\u03cc\u03c2 Fm 103,8
p377
ssS'1086'
p378
(dp379
g63
Vhttp://cdn.e-radio.gr/logos/gr/mini/deliciousradio.png
p380
sg65
VINTERNET RADIO
p381
sg67
V1086
p382
sg69
VDelicious Radio
p383
ssS'198'
p384
(dp385
g273
S'http://metro903.live24.gr/metro903-1000'
p386
sg23
V/logos/gr/mini/metro903.gif
p387
sg14
V\u039b\u0391\u039c\u0399\u0391
p388
sg25
V198
p389
sg18
VMetro Fm 90,3
p390
ssS'195'
p391
(dp392
g352
S'http://eco.onestreaming.com:8107'
p393
sg23
V/logos/gr/mini/kastoriafm.gif
p394
sg14
V\u039a\u0391\u03a3\u03a4\u039f\u03a1\u0399\u0391
p395
sg25
V195
p396
sg18
V\u039a\u03b1\u03c3\u03c4\u03bf\u03c1\u03b9\u03ac Fm 91,5
p397
ssS'194'
p398
(dp399
g273
S'http://rs2.radiostreamer.com/radioalfa'
p400
sg23
V/logos/gr/mini/alfa.gif
p401
sg14
V\u0391\u039b\u0395\u039e\u0391\u039d\u0394\u03a1\u039f\u03a5\u03a0\u039f\u039b\u0397
p402
sg25
V194
p403
sg18
V\u0391\u03bb\u03c6\u03b1 104
p404
ssS'196'
p405
(dp406
g273
S'http://live.onestreaming.com/lihnari'
p407
sg23
V/logos/gr/mini/lihnari.gif
p408
sg14
V\u03a1\u039f\u0394\u039f\u03a3
p409
sg25
V196
p410
sg18
V\u039b\u03c5\u03c7\u03bd\u03ac\u03c1\u03b9 91,7
p411
ssS'191'
p412
(dp413
g236
S'http://livecy.onestreaming.com/starfmcy'
p414
sg63
Vhttp://cdn.e-radio.gr/logos/cy/mini/starfmcy.png
p415
sg65
V\u039b\u0391\u03a1\u039d\u0391\u039a\u0391
p416
sg67
V191
p417
sg69
VStar Fm
p418
ssS'190'
p419
(dp420
g273
S'http://stream.1045.gr/1045fm/'
p421
sg23
V/logos/gr/mini/rythmoscrete.gif
p422
sg14
V\u0397\u03a1\u0391\u039a\u039b\u0395\u0399\u039f
p423
sg25
V190
p424
sg18
V\u03a1\u03c5\u03b8\u03bc\u03cc\u03c2 104,5
p425
ssS'193'
p426
(dp427
g273
S'http://hotmedia.gr:8086/magicfm'
p428
sg23
V/logos/gr/mini/magicfm.gif
p429
sg14
V\u03a7\u0391\u039d\u0399\u0391
p430
sg25
V193
p431
sg18
VMagic Fm 98,2
p432
ssS'192'
p433
(dp434
g273
S'http://live.onestreaming.com/hxofm'
p435
sg23
V/logos/gr/mini/hxofm.gif
p436
sg14
V\u039b\u0391\u03a3\u0399\u0398\u0399
p437
sg25
V192
p438
sg18
V\u0397\u03c7\u03ce Fm 99,8
p439
ssS'270'
p440
(dp441
g23
V/logos/gr/mini/sfera966.gif
p442
sg14
V\u03a0\u0391\u03a4\u03a1\u0391
p443
sg25
V270
p444
sg18
VSfera 96,6
p445
ssS'275'
p446
(dp447
S'url'
p448
S'http://hotmedia.gr:8086/teamfm'
p449
sg23
V/logos/gr/mini/teamfm.gif
p450
sg14
V\u03a1\u0395\u0398\u03a5\u039c\u039d\u039f
p451
sg25
V275
p452
sg18
VTeam Fm 102
p453
ssS'279'
p454
(dp455
g23
V/logos/gr/mini/arisfm.gif
p456
sg14
V\u0398\u0395\u03a3\u03a3\u0391\u039b\u039f\u039d\u0399\u039a\u0397
p457
sg25
V279
p458
sg18
V\u0386\u03c1\u03b7\u03c2 Fm 92,8
p459
ssS'2119'
p460
(dp461
S'url'
p462
S'http://streaming.radionomy.com/TrapFm'
p463
sg63
Vhttp://cdn.e-radio.gr/logos/gr/mini/trapgr.png
p464
sg65
VINTERNET RADIO
p465
sg67
V2119
p466
sg69
VTrap Radio
p467
ssS'1780'
p468
(dp469
g23
V/logos/gr/mini/classicalradio.gif
p470
sg14
VINTERNET RADIO
p471
sg25
V1780
p472
sg18
VClassical Radio 
p473
ssS'1104'
p474
(dp475
S'url'
p476
S'http://5.9.15.53:9996'
p477
sg23
V/logos/gr/mini/rockarolla.gif
p478
sg14
V\u0398\u0395\u03a3\u03a3\u0391\u039b\u039f\u039d\u0399\u039a\u0397
p479
sg25
V1104
p480
sg18
VRockarolla Radio 
p481
ssS'524'
p482
(dp483
g320
S'http://85.17.30.90:9986'
p484
sg23
V/logos/gr/mini/ixorama.gif
p485
sg14
V\u039a\u0391\u03a1\u0394\u0399\u03a4\u03a3\u0391
p486
sg25
V524
p487
sg18
V\u0397\u03c7\u03cc\u03c1\u03b1\u03bc\u03b1 Radio 100,8
p488
ssS'525'
p489
(dp490
g320
S'http://s1.onweb.gr:8040'
p491
sg23
V/logos/gr/mini/rizites.gif
p492
sg14
V\u039a\u0391\u03a3\u03a4\u0395\u039bI
p493
sg25
V525
p494
sg18
VRadio \u03a1\u03b9\u03b6\u03af\u03c4\u03b5\u03c2 92,4
p495
ssS'526'
p496
(dp497
g320
S'http://78.47.56.126:8032'
p498
sg23
V/logos/gr/mini/radiosamothraki.gif
p499
sg14
V\u03a3\u0391\u039c\u039f\u0398\u03a1\u0391\u039a\u0397
p500
sg25
V526
p501
sg18
VRadio \u03a3\u03b1\u03bc\u03bf\u03b8\u03c1\u03ac\u03ba\u03b7 101,9
p502
ssS'1105'
p503
(dp504
g236
S'http://174.36.20.51:9380/;'
p505
sg63
Vhttp://cdn.e-radio.gr/logos/gr/mini/kritikorama.png
p506
sg65
V\u03a7\u0391\u039d\u0399\u0391
p507
sg67
V1105
p508
sg69
V\u039a\u03c1\u03b7\u03c4\u03b9\u03ba\u03cc\u03c1\u03b1\u03bc\u03b1 FM
p509
ssS'520'
p510
(dp511
g448
S'http://stream-push2.live24.gr/sky1007'
p512
sg23
V/logos/gr/mini/skyfm1007.gif
p513
sg14
V\u039f\u03a1\u0395\u03a3\u03a4\u0399\u0391\u0394\u0391
p514
sg25
V520
p515
sg18
VSky Fm 100,7
p516
ssS'521'
p517
(dp518
g23
V/logos/gr/mini/radiothesprotia.gif
p519
sg14
V\u03a0\u0391\u03a1\u0391\u039c\u03a5\u0398\u0399\u0391
p520
sg25
V521
p521
sg18
VRadio Thesprotia 97,2
p522
ssS'523'
p523
(dp524
S'url'
p525
S'http://s6.onweb.gr:8012'
p526
sg23
V/logos/gr/mini/topfmvolos.gif
p527
sg14
V\u0392\u039f\u039b\u039f\u03a3
p528
sg25
V523
p529
sg18
VTop Fm 106,4
p530
ssS'1015'
p531
(dp532
g236
S'http://50.7.184.106:8900/;'
p533
sg63
Vhttp://cdn.e-radio.gr/logos/gr/mini/sin.png
p534
sg65
VINTERNET RADIO
p535
sg67
V1015
p536
sg69
VSin Radio
p537
ssS'528'
p538
(dp539
g23
V/logos/gr/mini/orestidos.gif
p540
sg14
V\u0391\u03a1\u0393\u039f\u03a3 \u039f\u03a1\u0395\u03a3\u03a4\u0399\u039a\u039f
p541
sg25
V528
p542
sg18
VRadio Argos Orestiko 97,4
p543
ssS'529'
p544
(dp545
g525
S'http://eco.onestreaming.com:8083'
p546
sg23
V/logos/gr/mini/sunshine1077.gif
p547
sg14
V\u0398\u0395\u03a3\u03a3\u0391\u039b\u039f\u039d\u0399\u039a\u0397
p548
sg25
V529
p549
sg18
VSunshine Fm 107,7
p550
ssS'1012'
p551
(dp552
g525
S'http://46.4.8.222:9998'
p553
sg23
V/logos/gr/mini/octava.gif
p554
sg14
V\u0391\u0398\u0397\u039d\u0391
p555
sg25
V1012
p556
sg18
VOctava Radio 
p557
ssS'449'
p558
(dp559
g23
V/logos/gr/mini/metro1054.gif
p560
sg14
V\u03a7\u0391\u039d\u0399\u0391
p561
sg25
V449
p562
sg18
V\u03a1\u03ac\u03b4\u03b9\u03bf Metro 105,4
p563
ssS'448'
p564
(dp565
g525
S'http://70.38.101.150:8004'
p566
sg23
V/logos/gr/mini/divaradio.gif
p567
sg14
V\u039a\u039f\u0396\u0391\u039d\u0397
p568
sg25
V448
p569
sg18
VDiva Radio 91,6
p570
ssS'1233'
p571
(dp572
S'url'
p573
S'http://captainjack.live24.gr/captainjack9660'
p574
sg23
V/logos/gr/mini/pepper966.gif
p575
sg14
V\u0391\u0398\u0397\u039d\u0391
p576
sg25
V1233
p577
sg18
VPepper 96,6
p578
ssS'447'
p579
(dp580
g525
S'http://72.55.146.84:8002'
p581
sg23
V/logos/gr/mini/kardia.gif
p582
sg14
V\u039a\u039f\u0396\u0391\u039d\u0397
p583
sg25
V447
p584
sg18
V\u0395\u03c1\u03c9\u03c4\u03b9\u03ba\u03cc 99,5
p585
ssS'1239'
p586
(dp587
g23
V/logos/gr/mini/nologo.gif
p588
sg14
V\u039a\u0391\u039b\u0391\u039c\u0391\u03a4\u0391
p589
sg25
V1239
p590
sg18
VDiasNews 
p591
ssS'712'
p592
(dp593
g265
S'http://live.onestreaming.com/elladaradio'
p594
sg23
V/logos/gr/mini/elladaradio.gif
p595
sg14
V\u03a3\u03a0\u0391\u03a1\u03a4\u0397
p596
sg25
V712
p597
sg18
V\u0395\u03bb\u03bb\u03ac\u03b4\u03b1 Fm 96,7
p598
ssS'47'
p599
(dp600
g476
S'http://s1.onweb.gr:8852'
p601
sg23
V/logos/gr/mini/kritikos.gif
p602
sg14
V\u0397\u03a1\u0391\u039a\u039b\u0395\u0399\u039f
p603
sg25
V47
p604
sg18
V\u039a\u03c1\u03b7\u03c4\u03b9\u03ba\u03cc\u03c2 88,7
p605
ssS'108'
p606
(dp607
g573
S'http://a999.l3271920998.c32719.g.lm.akamaistream.net/D/999/32719/v0001/reflector:20998'
p608
sg23
V/logos/gr/mini/VOG.gif
p609
sg14
V\u0391\u0398\u0397\u039d\u0391
p610
sg25
V108
p611
sg18
V\u0395\u03a1\u0391 \u03a6\u03c9\u03bd\u03ae \u03c4\u03b7\u03c2 \u0395\u03bb\u03bb\u03ac\u03b4\u03b1\u03c2 
p612
ssS'109'
p613
(dp614
g573
S'http://a1113.l3271935112.c32719.g.lm.akamaistream.net/D/1113/32719/v0001/reflector:35112'
p615
sg23
V/logos/gr/mini/erasport.gif
p616
sg14
V\u0391\u0398\u0397\u039d\u0391
p617
sg25
V109
p618
sg18
V\u0395\u03a1\u0391 \u03a3\u03c0\u03bf\u03c1 101,8
p619
ssS'102'
p620
(dp621
g23
V/logos/gr/mini/Red.gif
p622
sg14
V\u0391\u0398\u0397\u039d\u0391
p623
sg25
V102
p624
sg18
VRed 96,3
p625
ssS'103'
p626
(dp627
g23
V/logos/gr/mini/skai.gif
p628
sg14
V\u0391\u0398\u0397\u039d\u0391
p629
sg25
V103
p630
sg18
V\u03a3\u03ba\u03ac\u03ca Radio 100,3
p631
ssS'100'
p632
(dp633
g23
V/logos/gr/mini/heartfm.gif
p634
sg14
V\u0398\u0395\u03a3\u03a3\u0391\u039b\u039f\u039d\u0399\u039a\u0397
p635
sg25
V100
p636
sg18
VHeart Fm 93,1
p637
ssS'101'
p638
(dp639
g573
S'http://radiogold.live24.gr/radiogold'
p640
sg23
V/logos/gr/mini/Gold.gif
p641
sg14
V\u0391\u0398\u0397\u039d\u0391
p642
sg25
V101
p643
sg18
VRadio Gold 
p644
ssS'106'
p645
(dp646
g573
S'http://flash.live24.gr/flash5252'
p647
sg23
V/logos/gr/mini/flash.gif
p648
sg14
V\u0391\u0398\u0397\u039d\u0391
p649
sg25
V106
p650
sg18
VFlash 96
p651
ssS'107'
p652
(dp653
g23
V/logos/gr/mini/athina984.gif
p654
sg14
V\u0391\u0398\u0397\u039d\u0391
p655
sg25
V107
p656
sg18
V\u0391\u03b8\u03ae\u03bd\u03b1 984 98,3
p657
ssS'104'
p658
(dp659
g23
V/logos/gr/mini/radio9ath.gif
p660
sg14
V\u0391\u0398\u0397\u039d\u0391
p661
sg25
V104
p662
sg18
VRADIO 9 98,9
p663
ssS'105'
p664
(dp665
g573
S'http://a1709.l3271943708.c32719.g.lm.akamaistream.net/D/1709/32719/v0001/reflector:43708'
p666
sg23
V/logos/gr/mini/eranet.gif
p667
sg14
V\u0391\u0398\u0397\u039d\u0391
p668
sg25
V105
p669
sg18
V\u0395\u03a1\u0391 \u039d\u0395\u03a4 105,8
p670
ssS'902'
p671
(dp672
g23
V/logos/gr/mini/nologo.gif
p673
sg14
V\u03a1\u0395\u0398\u03a5\u039c\u039d\u039f
p674
sg25
V902
p675
sg18
V\u03a1\u03ac\u03b4\u03b9\u03bf \u03a5\u03c0\u03ac\u03c1\u03c7\u03c9 103,7
p676
ssS'1849'
p677
(dp678
S'url'
p679
S'http://eco.onestreaming.com:8091'
p680
sg23
V/logos/gr/mini/syxnotita102.gif
p681
sg14
V\u0391\u0399\u0393\u0399\u039f
p682
sg25
V1849
p683
sg18
V\u03a1\u03ac\u03b4\u03b9\u03bf \u03a3\u03c5\u03c7\u03bd\u03cc\u03c4\u03b7\u03c4\u03b1 100,7
p684
ssS'901'
p685
(dp686
g679
S'http://s5.onweb.gr:8070'
p687
sg23
V/logos/gr/mini/kriti1003.gif
p688
sg14
V\u0397\u03a1\u0391\u039a\u039b\u0395\u0399\u039f
p689
sg25
V901
p690
sg18
V\u039a\u03c1\u03ae\u03c4\u03b7 Fm 100,3
p691
ssS'906'
p692
(dp693
g679
S'http://78.46.46.214:7054'
p694
sg23
V/logos/gr/mini/trifylias.gif
p695
sg14
V\u039a\u03a5\u03a0\u0391\u03a1\u0399\u03a3\u03a3\u0399\u0391
p696
sg25
V906
p697
sg18
V\u03a1\u03b1\u03b4\u03b9\u03bf\u03c6\u03c9\u03bd\u03af\u03b1 \u03a4\u03c1\u03b9\u03c6\u03c5\u03bb\u03af\u03b1\u03c2 101,3
p698
ssS'2040'
p699
(dp700
g63
Vhttp://cdn.e-radio.gr/logos/gr/mini/angels.png
p701
sg65
V\u0398\u0395\u03a3\u03a3\u0391\u039b\u039f\u039d\u0399\u039a\u0397
p702
sg67
V2040
p703
sg69
VAngels
p704
ssS'905'
p705
(dp706
g679
S'http://46.4.65.194:8015'
p707
sg23
V/logos/gr/mini/galaxy1061.gif
p708
sg14
V\u03a0\u0391\u03a4\u03a1\u0391
p709
sg25
V905
p710
sg18
VGalaxy 106,1
p711
ssS'1843'
p712
(dp713
g679
S'http://www.streamyourdream.org:8012/kiss98'
p714
sg23
V/logos/gr/mini/kiss98.gif
p715
sg14
V\u0392\u039f\u039b\u039f\u03a3
p716
sg25
V1843
p717
sg18
VKiss 98
p718
ssS'1842'
p719
(dp720
g236
S'http://66.90.103.144:8992/;'
p721
sg63
Vhttp://cdn.e-radio.gr/logos/gr/mini/life1063.png
p722
sg65
V\u0393\u0399\u0391\u039d\u039d\u0399\u03a4\u03a3\u0391
p723
sg67
V1842
p724
sg69
VLife Radio
p725
ssS'908'
p726
(dp727
g679
S'http://eco.onestreaming.com:8257'
p728
sg23
V/logos/gr/mini/star955.gif
p729
sg14
V\u039d\u0395\u0391 \u039c\u039f\u03a5\u0394\u0391\u039d\u0399\u0391
p730
sg25
V908
p731
sg18
VRadio Star 95,5
p732
ssS'30'
p733
(dp734
g679
S'http://eco.onestreaming.com:8209'
p735
sg23
V/logos/gr/mini/coolfm.gif
p736
sg14
V\u03a1\u0395\u0398\u03a5\u039c\u039d\u039f
p737
sg25
V30
p738
sg18
VCool Fm 106,8
p739
ssS'1847'
p740
(dp741
g679
S'http://www.radiodistomo.gr:9420'
p742
sg23
V/logos/gr/mini/nologo.gif
p743
sg14
V\u039b\u0399\u0392\u0391\u0394\u0395\u0399\u0391
p744
sg25
V1847
p745
sg18
V\u03a1\u0391\u0394\u0399\u039f \u0394\u0399\u03a3\u03a4\u039f\u039c\u039f 106,1
p746
ssS'1846'
p747
(dp748
g573
S'http://legacy-100-ams.servers.mediacdn.com/mfm102-7-patra'
p749
sg23
V/logos/gr/mini/mfm1027.gif
p750
sg14
V\u03a0\u0391\u03a4\u03a1\u0391
p751
sg25
V1846
p752
sg18
VMfm 102,7
p753
ssS'1845'
p754
(dp755
g679
S'http://s6.onweb.gr:8020'
p756
sg23
V/logos/gr/mini/paratiritis.gif
p757
sg14
V\u039a\u039f\u039c\u039f\u03a4H\u039d\u0397
p758
sg25
V1845
p759
sg18
V\u03a1\u03ac\u03b4\u03b9\u03bf \u03a0\u03b1\u03c1\u03b1\u03c4\u03b7\u03c1\u03b7\u03c4\u03ae\u03c2 94
p760
ssS'1844'
p761
(dp762
g63
Vhttp://cdn.e-radio.gr/logos/cy/mini/ucyvoice.png
p763
sg65
V\u039b\u0395\u03a5\u039a\u03a9\u03a3\u0399\u0391
p764
sg67
V1844
p765
sg69
VUCY Voice
p766
ssS'640'
p767
(dp768
g573
S'http://live.onestreaming.com/cosmos965'
p769
sg23
V/logos/gr/mini/cosmos965.gif
p770
sg14
V\u0391\u03a1\u0393\u039f\u03a3\u03a4\u039f\u039b\u0399
p771
sg25
V640
p772
sg18
V\u039a\u03cc\u03c3\u03bc\u03bf\u03c2 96,5
p773
ssS'1930'
p774
(dp775
S'url'
p776
S'http://204.45.6.58:8081'
p777
sg23
V/logos/gr/mini/kissdance.gif
p778
sg14
VINTERNET RADIO
p779
sg25
V1930
p780
sg18
VKiss Danceradio 
p781
ssS'2169'
p782
(dp783
g236
S'http://81.4.144.146:8000/live'
p784
sg63
Vhttp://cdn.e-radio.gr/logos/cy/mini/capital961cy.png
p785
sg65
V\u039b\u0395\u039c\u0395\u03a3\u039f\u03a3
p786
sg67
V2169
p787
sg69
VCapital FM
p788
ssS'644'
p789
(dp790
g679
S'http://s6.onweb.gr:8034'
p791
sg23
V/logos/gr/mini/radiomires.gif
p792
sg14
V\u0397\u03a1\u0391\u039a\u039b\u0395\u0399\u039f
p793
sg25
V644
p794
sg18
V\u03a1\u03ac\u03b4\u03b9\u03bf \u039c\u03bf\u03af\u03c1\u03b5\u03c2 
p795
ssS'438'
p796
(dp797
g679
S'http://s6.onweb.gr:8048'
p798
sg23
V/logos/gr/mini/musicclub.gif
p799
sg14
V\u0397\u03a1\u0391\u039a\u039b\u0395\u0399\u039f
p800
sg25
V438
p801
sg18
VMusic Club 105,8
p802
ssS'649'
p803
(dp804
g573
S'http://m2.onweb.gr/amorefm'
p805
sg23
V/logos/gr/mini/amorefm.gif
p806
sg14
V\u03a1\u0395\u0398\u03a5\u039c\u039d\u039f
p807
sg25
V649
p808
sg18
VAmore Fm 107,9
p809
ssS'648'
p810
(dp811
g679
S'http://s4.onweb.gr:8414'
p812
sg23
V/logos/gr/mini/media92.gif
p813
sg14
V\u03a3\u03a5\u03a1\u039f\u03a3
p814
sg25
V648
p815
sg18
VMedia 92
p816
ssS'2167'
p817
(dp818
g236
S'http://streaming.radionomy.com/RedDancerRadio'
p819
sg63
Vhttp://cdn.e-radio.gr/logos/gr/mini/reddancer.png
p820
sg65
VINTERNET RADIO
p821
sg67
V2167
p822
sg69
VRed Dancer Radio
p823
ssS'2166'
p824
(dp825
g236
S'http://s4.myradiostream.com:14374/;'
p826
sg63
Vhttp://cdn.e-radio.gr/logos/gr/mini/pyloslive.png
p827
sg65
VINTERNET RADIO
p828
sg67
V2166
p829
sg69
VPylos Live
p830
ssS'2161'
p831
(dp832
g236
S'http://37.187.79.153:5262/stream'
p833
sg63
Vhttp://cdn.e-radio.gr/logos/gr/mini/nextfm961.png
p834
sg65
V\u0398\u0395\u03a3\u03a3\u0391\u039b\u039f\u039d\u0399\u039a\u0397
p835
sg67
V2161
p836
sg69
VNext
p837
ssS'2160'
p838
(dp839
g236
S'http://176.9.22.6:8664/;'
p840
sg63
Vhttp://cdn.e-radio.gr/logos/gr/mini/gzx.png
p841
sg65
VINTERNET RADIO
p842
sg67
V2160
p843
sg69
VGreek Zempekika Xasapika
p844
ssS'2163'
p845
(dp846
g462
S'http://stream.radiojar.com/2uh8e4akb'
p847
sg63
Vhttp://cdn.e-radio.gr/logos/gr/mini/joinradio.png
p848
sg65
V\u0391\u0398\u0397\u039d\u0391
p849
sg67
V2163
p850
sg69
VJoin Radio
p851
ssS'431'
p852
(dp853
g573
S'http://oasis.live24.gr/oasis8888'
p854
sg23
V/logos/gr/mini/oasis.gif
p855
sg14
V\u0391\u0398\u0397\u039d\u0391
p856
sg25
V431
p857
sg18
VOasis Fm 88
p858
ssS'1908'
p859
(dp860
g23
V/logos/gr/mini/istiaea.gif
p861
sg14
V\u0399\u03a3\u03a4\u0399\u0391\u0399\u0391
p862
sg25
V1908
p863
sg18
V\u03a1\u03ac\u03b4\u03b9\u03bf \u0399\u03c3\u03c4\u03b9\u03b1\u03af\u03b1 100,4
p864
ssS'1909'
p865
(dp866
g679
S'http://stream.katsiris.net:8080/galaxy1011'
p867
sg23
V/logos/gr/mini/galaxy1011.gif
p868
sg14
V\u03a4\u03a1\u0399\u03a0\u039f\u039b\u0397
p869
sg25
V1909
p870
sg18
VGalaxy FM 101,1
p871
ssS'1907'
p872
(dp873
g23
V/logos/gr/mini/palmos949.gif
p874
sg14
V\u03a7\u0399\u039f\u03a3
p875
sg25
V1907
p876
sg18
V\u03a0\u03b1\u03bb\u03bc\u03cc\u03c2 FM 94,9
p877
ssS'1904'
p878
(dp879
g23
V/logos/gr/mini/mathematikos.gif
p880
sg14
VINTERNET RADIO
p881
sg25
V1904
p882
sg18
VMathimatikos Web Radio 
p883
ssS'1905'
p884
(dp885
g573
S'http://live.onestreaming.com/ogdoo'
p886
sg23
V/logos/gr/mini/ogdoo2.gif
p887
sg14
VINTERNET RADIO
p888
sg25
V1905
p889
sg18
V\u038c\u03b3\u03b4\u03bf\u03bf 
p890
ssS'1902'
p891
(dp892
g679
S'http://eco.onestreaming.com:8135'
p893
sg23
V/logos/gr/mini/donnaradio.gif
p894
sg14
VINTERNET RADIO
p895
sg25
V1902
p896
sg18
VDonna Radio 
p897
ssS'1903'
p898
(dp899
g23
V/logos/gr/mini/radio11025.gif
p900
sg14
V\u0392\u039f\u039b\u039f\u03a3
p901
sg25
V1903
p902
sg18
V\u03a1\u03ac\u03b4\u03b9\u03bf 1 102,5
p903
ssS'1900'
p904
(dp905
g23
V/logos/gr/mini/hxosradio.gif
p906
sg14
VINTERNET RADIO
p907
sg25
V1900
p908
sg18
V\u0389\u03c7\u03bf\u03c2 Radio 
p909
ssS'1901'
p910
(dp911
g679
S'http://208.94.241.26:8000/stream'
p912
sg23
V/logos/gr/mini/intersonik.gif
p913
sg14
VINTERNET RADIO
p914
sg25
V1901
p915
sg18
VIntersonik 
p916
ssS'857'
p917
(dp918
g573
S'http://wm3.greekstream.net/driverfm'
p919
sg23
V/logos/gr/mini/radiodriver.gif
p920
sg14
VINTERNET RADIO
p921
sg25
V857
p922
sg18
VDriver Fm 
p923
ssS'850'
p924
(dp925
g23
V/logos/gr/mini/radiofever.gif
p926
sg14
VINTERNET RADIO
p927
sg25
V850
p928
sg18
VRadio Fever 
p929
ssS'852'
p930
(dp931
g23
V/logos/gr/mini/radioemse.gif
p932
sg14
VINTERNET RADIO
p933
sg25
V852
p934
sg18
VRadio \u0395.\u039c.\u03a3.\u0395. 
p935
ssS'345'
p936
(dp937
g14
V\u03a7\u0391\u039b\u039a\u0399\u0394\u0391
p938
sg16
S'justradio'
p939
sg18
VJust Radio 93
p940
sg20
S'http://legacy-100-ams.servers.mediacdn.com/justradio'
p941
sg22
g941
sg23
V/logos/gr/mini/justradio.gif
p942
sg25
V345
p943
ssS'42'
p944
(dp945
g776
S'http://s5.onweb.gr:8002'
p946
sg23
V/logos/gr/mini/pellafm.gif
p947
sg14
V\u0393\u0399\u0391\u039d\u039d\u0399\u03a4\u03a3\u0391
p948
sg25
V42
p949
sg18
V\u03a0\u03ad\u03bb\u03bb\u03b1 FM 103,2
p950
ssS'859'
p951
(dp952
g23
V/logos/gr/mini/empneusi.gif
p953
sg14
VINTERNET RADIO
p954
sg25
V859
p955
sg18
VEmpneusi Radio 
p956
ssS'6'
(dp957
g23
V/logos/gr/mini/akous_musices.gif
p958
sg14
V\u0398\u0395\u03a3\u03a3\u0391\u039b\u039f\u039d\u0399\u039a\u0397
p959
sg25
V6
sg18
VAkous. MusicES 
p960
ssS'425'
p961
(dp962
g776
S'http://s1.onweb.gr:8836'
p963
sg23
V/logos/gr/mini/liferadio1029.gif
p964
sg14
V\u039a\u0395\u03a1\u039a\u03a5\u03a1\u0391
p965
sg25
V425
p966
sg18
VLife Radio 102,9
p967
ssS'99'
p968
(dp969
g573
S'http://galaxy.live24.gr/galaxy9292'
p970
sg23
V/logos/gr/mini/galaxy92.gif
p971
sg14
V\u0391\u0398\u0397\u039d\u0391
p972
sg25
V99
p973
sg18
VGalaxy 92
p974
ssS'98'
p975
(dp976
g23
V/logos/gr/mini/Radioena.gif
p977
sg14
V\u03a1\u039f\u0394\u039f\u03a3
p978
sg25
V98
p979
sg18
VRadio 1 88
p980
ssS'90'
p981
(dp982
g679
S'http://shout.cosmoradio.gr:8130'
p983
sg23
V/logos/gr/mini/kosmoradio.gif
p984
sg14
V\u0398\u0395\u03a3\u03a3\u0391\u039b\u039f\u039d\u0399\u039a\u0397
p985
sg25
V90
p986
sg18
V\u039a\u03bf\u03c3\u03bc\u03bf\u03c1\u03ac\u03b4\u03b9\u03bf 95,1
p987
ssS'93'
p988
(dp989
g573
S'http://178.32.72.194:8050/eroticos'
p990
sg23
V/logos/gr/mini/Erotikos.gif
p991
sg14
V\u0398\u0395\u03a3\u03a3\u0391\u039b\u039f\u039d\u0399\u039a\u0397
p992
sg25
V93
p993
sg18
V\u0395\u03c1\u03c9\u03c4\u03b9\u03ba\u03cc\u03c2 94,8
p994
ssS'92'
p995
(dp996
g679
S'http://stream.greekradios.gr:4000'
p997
sg23
V/logos/gr/mini/rainbow.gif
p998
sg14
V\u0398\u0395\u03a3\u03a3\u0391\u039b\u039f\u039d\u0399\u039a\u0397
p999
sg25
V92
p1000
sg18
VRainbow 89
p1001
ssS'95'
p1002
(dp1003
g265
S'http://best.live24.gr/best1222'
p1004
sg23
V/logos/gr/mini/bestradio.gif
p1005
sg14
V\u0391\u0398\u0397\u039d\u0391
p1006
sg25
V95
p1007
sg18
VBest 92,6
p1008
ssS'94'
p1009
(dp1010
g679
S'http://78.129.143.157:8000/starfm'
p1011
sg23
V/logos/gr/mini/starfm.gif
p1012
sg14
V\u0398\u0395\u03a3\u03a3\u0391\u039b\u039f\u039d\u0399\u039a\u0397
p1013
sg25
V94
p1014
sg18
VStar Fm 97,1
p1015
ssS'97'
p1016
(dp1017
g679
S'http://stream.greekradios.gr:9060'
p1018
sg23
V/logos/gr/mini/zoo.gif
p1019
sg14
V\u0398\u0395\u03a3\u03a3\u0391\u039b\u039f\u039d\u0399\u039a\u0397
p1020
sg25
V97
p1021
sg18
VZoo 90,8
p1022
ssS'96'
p1023
(dp1024
g679
S'http://91.132.6.21:8003'
p1025
sg23
V/logos/gr/mini/rockfm.gif
p1026
sg14
V\u0391\u0398\u0397\u039d\u0391
p1027
sg25
V96
p1028
sg18
VRock Fm 96,9
p1029
ssS'1991'
p1030
(dp1031
g23
V/logos/gr/mini/nologo.gif
p1032
sg14
VINTERNET RADIO
p1033
sg25
V1991
p1034
sg18
VHits FM 
p1035
ssS'1990'
p1036
(dp1037
g23
V/logos/gr/mini/karpathosfm.gif
p1038
sg14
V\u039a\u0391\u03a1\u03a0\u0391\u0398\u039f\u03a3
p1039
sg25
V1990
p1040
sg18
V\u039a\u03ac\u03c1\u03c0\u03b1\u03b8\u03bf\u03c2 FM 101,3
p1041
ssS'1993'
p1042
(dp1043
g679
S'http://204.45.8.170:8037'
p1044
sg23
V/logos/gr/mini/nrgradiome.gif
p1045
sg14
VINTERNET RADIO
p1046
sg25
V1993
p1047
sg18
VNRG Radio 
p1048
ssS'1992'
p1049
(dp1050
g679
S'http://99.198.109.147:80'
p1051
sg23
V/logos/gr/mini/planetkozani.gif
p1052
sg14
V\u039a\u039f\u0396\u0391\u039d\u0397
p1053
sg25
V1992
p1054
sg18
VPlanet 100,8
p1055
ssS'1995'
p1056
(dp1057
g23
V/logos/gr/mini/artistico.gif
p1058
sg14
VINTERNET RADIO
p1059
sg25
V1995
p1060
sg18
VArtistico Web Radio 
p1061
ssS'1994'
p1062
(dp1063
g23
V/logos/gr/mini/radiopontos94.gif
p1064
sg14
V\u039a\u039f\u0396\u0391\u039d\u0397
p1065
sg25
V1994
p1066
sg18
V\u03a1\u03ac\u03b4\u03b9\u03bf \u03a0\u03cc\u03bd\u03c4\u03bf\u03c2 94
p1067
ssS'1999'
p1068
(dp1069
g679
S'http://174.36.237.66:8210'
p1070
sg23
V/logos/gr/mini/musicsociety.gif
p1071
sg14
VINTERNET RADIO
p1072
sg25
V1999
p1073
sg18
VMusic Society 
p1074
ssS'741'
p1075
(dp1076
g679
S'http://eco.onestreaming.com:8251/live'
p1077
sg23
V/logos/gr/mini/radiogrevena.gif
p1078
sg14
V\u0393\u03a1\u0395\u0392\u0395\u039d\u0391
p1079
sg25
V741
p1080
sg18
V\u03a1\u03ac\u03b4\u03b9\u03bf \u0393\u03c1\u03b5\u03b2\u03b5\u03bd\u03ac 101,5
p1081
ssS'743'
p1082
(dp1083
g23
V/logos/gr/mini/deltaradioalter.gif
p1084
sg14
V\u0391\u0398\u0397\u039d\u0391
p1085
sg25
V743
p1086
sg18
VIEK Delta Radio - Alternative 
p1087
ssS'744'
p1088
(dp1089
g23
V/logos/gr/mini/laikos.gif
p1090
sg14
V\u0398\u0395\u03a3\u03a3\u0391\u039b\u039f\u039d\u0399\u039a\u0397
p1091
sg25
V744
p1092
sg18
V\u039b\u03b1\u03ca\u03ba\u03cc\u03c2 87,6
p1093
ssS'745'
p1094
(dp1095
g23
V/logos/gr/mini/radioflorina.gif
p1096
sg14
V\u03a6\u039b\u03a9\u03a1\u0399\u039d\u0391
p1097
sg25
V745
p1098
sg18
V\u03a1\u03ac\u03b4\u03b9\u03bf \u03a6\u03bb\u03ce\u03c1\u03b9\u03bd\u03b1 101,5
p1099
ssS'746'
p1100
(dp1101
g679
S'http://s1.onweb.gr:8812'
p1102
sg23
V/logos/gr/mini/radiokimata.gif
p1103
sg14
V\u0398\u0395\u03a3\u03a3\u0391\u039b\u039f\u039d\u0399\u039a\u0397
p1104
sg25
V746
p1105
sg18
V\u03a1\u03b1\u03b4\u03b9\u03bf\u03ba\u03cd\u03bc\u03b1\u03c4\u03b1 104
p1106
ssS'747'
p1107
(dp1108
g23
V/logos/gr/mini/santorini1.gif
p1109
sg14
V\u03a3\u0391\u039d\u03a4\u039f\u03a1\u0399\u039d\u0397
p1110
sg25
V747
p1111
sg18
V\u03a1\u03ac\u03b4\u03b9\u03bf \u03a3\u03b1\u03bd\u03c4\u03bf\u03c1\u03af\u03bd\u03b7\u03c2 106,4
p1112
ssS'238'
p1113
(dp1114
g679
S'http://eco.onestreaming.com:8150'
p1115
sg23
V/logos/gr/mini/youfm.gif
p1116
sg14
V\u03a0\u0391\u03a4\u03a1\u0391
p1117
sg25
V238
p1118
sg18
VYou Fm 100,1
p1119
ssS'235'
p1120
(dp1121
g679
S'http://s1.onweb.gr:8068'
p1122
sg23
V/logos/gr/mini/superadio904.gif
p1123
sg14
V\u0397\u03a1\u0391\u039a\u039b\u0395\u0399\u039f
p1124
sg25
V235
p1125
sg18
VSupeRadio 90,4
p1126
ssS'237'
p1127
(dp1128
g679
S'http://s6.onweb.gr:8032'
p1129
sg23
V/logos/gr/mini/kisscrete.gif
p1130
sg14
V\u0397\u03a1\u0391\u039a\u039b\u0395\u0399\u039f
p1131
sg25
V237
p1132
sg18
VKissFm 96,1
p1133
ssS'426'
p1134
(dp1135
g776
S'http://stream.kiss922.gr:59922'
p1136
sg23
V/logos/gr/mini/kiss922.gif
p1137
sg14
V\u03a0\u0391\u03a4\u03a1\u0391
p1138
sg25
V426
p1139
sg18
VKiss Fm 92,2
p1140
ssS'232'
p1141
(dp1142
g23
V/logos/gr/mini/topfm.gif
p1143
sg14
V\u03a1\u039f\u0394\u039f\u03a3
p1144
sg25
V232
p1145
sg18
VTop Fm 102,4
p1146
ssS'233'
p1147
(dp1148
g23
V/logos/gr/mini/uoc.gif
p1149
sg14
V\u0397\u03a1\u0391\u039a\u039b\u0395\u0399\u039f
p1150
sg25
V233
p1151
sg18
VUOC 96,7
p1152
ssS'1199'
p1153
(dp1154
g679
S'http://s3.onweb.gr:8452'
p1155
sg23
V/logos/gr/mini/kivotosserres.gif
p1156
sg14
V\u03a3\u0395\u03a1\u03a1\u0395\u03a3
p1157
sg25
V1199
p1158
sg18
V\u03a1\u03ac\u03b4\u03b9\u03bf \u039a\u03b9\u03b2\u03c9\u03c4\u03cc\u03c2 99,2
p1159
ssS'1191'
p1160
(dp1161
g679
S'http://78.159.111.125:8092'
p1162
sg23
V/logos/gr/mini/trustradiothess.gif
p1163
sg14
VINTERNET RADIO
p1164
sg25
V1191
p1165
sg18
VTrust Radio 
p1166
ssS'1182'
p1167
(dp1168
S'url'
p1169
S'http://eco.onestreaming.com:8054'
p1170
sg23
V/logos/gr/mini/nowradio.gif
p1171
sg14
V\u0398\u0395\u03a3\u03a3\u0391\u039b\u039f\u039d\u0399\u039a\u0397
p1172
sg25
V1182
p1173
sg18
VNow Radio 
p1174
ssS'1197'
p1175
(dp1176
g679
S'http://s2.onweb.gr:8624'
p1177
sg23
V/logos/gr/mini/nologo.gif
p1178
sg14
V\u03a3\u0395\u03a1\u03a1\u0395\u03a3
p1179
sg25
V1197
p1180
sg18
V\u0386\u03bb\u03c6\u03b1 Radio 96
p1181
ssS'1196'
p1182
(dp1183
g23
V/logos/gr/mini/supertsportlarisa.gif
p1184
sg14
V\u039b\u0391\u03a1\u0399\u03a3\u0391
p1185
sg25
V1196
p1186
sg18
VSuper Sport Fm 90,1
p1187
ssS'1'
(dp1188
g265
S'http://golive.onestreaming.com/arion'
p1189
sg23
V/logos/gr/mini/arionradio.gif
p1190
sg14
V\u0391\u0398\u0397\u039d\u0391
p1191
sg25
V1
sg18
VArion Radio 
p1192
ssS'1759'
p1193
(dp1194
g265
S'http://legacy-100-ams.servers.mediacdn.com/avanti977lamia'
p1195
sg23
V/logos/gr/mini/avantifm977.gif
p1196
sg14
V\u039b\u0391\u039c\u0399\u0391
p1197
sg25
V1759
p1198
sg18
VAvanti FM 97,7
p1199
ssS'1758'
p1200
(dp1201
g23
V/logos/gr/mini/jestos.gif
p1202
sg14
VINTERNET RADIO
p1203
sg25
V1758
p1204
sg18
VJesto's Radio 
p1205
ssS'1757'
p1206
(dp1207
g265
S'http://live.onestreaming.com/pavleioslogos'
p1208
sg23
V/logos/gr/mini/pavleioslogos.gif
p1209
sg14
V\u0392\u0395\u03a1\u039f\u0399\u0391
p1210
sg25
V1757
p1211
sg18
V\u03a0\u03b1\u03cd\u03bb\u03b5\u03b9\u03bf\u03c2 \u039b\u03cc\u03b3\u03bf\u03c2 \u0399.\u039c. \u0392\u03ad\u03c1\u03bf\u03b9\u03b1\u03c2 90,2
p1212
ssS'1750'
p1213
(dp1214
g23
V/logos/gr/mini/freakme.gif
p1215
sg14
VINTERNET RADIO
p1216
sg25
V1750
p1217
sg18
VRadioFREAKme 
p1218
ssS'146'
p1219
(dp1220
g63
Vhttp://cdn.e-radio.gr/logos/cy/mini/deejay.png
p1221
sg65
V\u039b\u0395\u03a5\u039a\u03a9\u03a3\u0399\u0391
p1222
sg67
V146
p1223
sg69
VMy Deejay
p1224
ssS'147'
p1225
(dp1226
g236
S'http://livecy.onestreaming.com/astra'
p1227
sg63
Vhttp://cdn.e-radio.gr/logos/cy/mini/astracy.png
p1228
sg65
V\u039b\u0395\u03a5\u039a\u03a9\u03a3\u0399\u0391
p1229
sg67
V147
p1230
sg69
VAstra
p1231
ssS'144'
p1232
(dp1233
g265
S'http://nitro.live24.gr/nitro4555'
p1234
sg23
V/logos/gr/mini/nitro.gif
p1235
sg14
V\u0391\u0398\u0397\u039d\u0391
p1236
sg25
V144
p1237
sg18
VNitro Radio 102,5
p1238
ssS'145'
p1239
(dp1240
g265
S'http://sportfm.live24.gr/sportfm7712'
p1241
sg23
V/logos/gr/mini/novasportfm.gif
p1242
sg14
V\u0391\u0398\u0397\u039d\u0391
p1243
sg25
V145
p1244
sg18
VNova Sport Fm 94,6
p1245
ssS'142'
p1246
(dp1247
g679
S'http://eco.onestreaming.com:8245'
p1248
sg23
V/logos/gr/mini/skyradio992.gif
p1249
sg14
V\u0399\u03a9\u0391\u039d\u039d\u0399\u039d\u0391
p1250
sg25
V142
p1251
sg18
VSky Radio 99,2
p1252
ssS'143'
p1253
(dp1254
g265
S'http://sfera.live24.gr/sfera4132'
p1255
sg23
V/logos/gr/mini/sfera.gif
p1256
sg14
V\u0391\u0398\u0397\u039d\u0391
p1257
sg25
V143
p1258
sg18
VSfera 102,2
p1259
ssS'140'
p1260
(dp1261
g23
V/logos/gr/mini/piqerasdj.gif
p1262
sg14
V\u0391\u0398\u0397\u039d\u0391
p1263
sg25
V140
p1264
sg18
VPiqeras Deejay 105,6
p1265
ssS'148'
p1266
(dp1267
g63
Vhttp://cdn.e-radio.gr/logos/cy/mini/cosmos.png
p1268
sg65
V\u03a0\u0391\u03a6\u039f\u03a3
p1269
sg67
V148
p1270
sg69
VCosmos Radio
p1271
ssS'149'
p1272
(dp1273
g236
S'http://eco.onestreaming.com:8364/;'
p1274
sg63
Vhttp://cdn.e-radio.gr/logos/cy/mini/choice.png
p1275
sg65
V\u039b\u0395\u039c\u0395\u03a3\u039f\u03a3
p1276
sg67
V149
p1277
sg69
VChoice
p1278
ssS'1889'
p1279
(dp1280
g23
V/logos/gr/mini/oropos.gif
p1281
sg14
VINTERNET RADIO
p1282
sg25
V1889
p1283
sg18
V\u03a1\u03ac\u03b4\u03b9\u03bf \u03a9\u03c1\u03c9\u03c0\u03cc\u03c2 
p1284
ssS'1888'
p1285
(dp1286
g236
S'http://108.178.13.122:8139/;'
p1287
sg63
Vhttp://cdn.e-radio.gr/logos/gr/mini/nologo.png
p1288
sg65
V\u03a7\u0391\u039b\u039a\u0399\u0394\u0391
p1289
sg67
V1888
p1290
sg69
V\u03a1\u03ac\u03b4\u03b9\u03bf \u0391\u03bc\u03ac\u03c1\u03c5\u03bd\u03b8\u03bf\u03c2
p1291
ssS'1887'
p1292
(dp1293
g679
S'http://62.75.177.12:8006'
p1294
sg23
V/logos/gr/mini/rockgenesis.gif
p1295
sg14
VINTERNET RADIO
p1296
sg25
V1887
p1297
sg18
VRockgenesis.gr 
p1298
ssS'1886'
p1299
(dp1300
g679
S'http://66.90.103.144:8938'
p1301
sg23
V/logos/gr/mini/dradio.gif
p1302
sg14
V\u039b\u0391\u03a1\u0399\u03a3\u0391
p1303
sg25
V1886
p1304
sg18
VdRadio 
p1305
ssS'1884'
p1306
(dp1307
g23
V/logos/gr/mini/actradiogr.gif
p1308
sg14
VINTERNET RADIO
p1309
sg25
V1884
p1310
sg18
VAct Radio 
p1311
ssS'1883'
p1312
(dp1313
g679
S'http://s2.onweb.gr:8616'
p1314
sg23
V/logos/gr/mini/80smania.gif
p1315
sg14
VINTERNET RADIO
p1316
sg25
V1883
p1317
sg18
V80smania 
p1318
ssS'1882'
p1319
(dp1320
g23
V/logos/gr/mini/publicradiogr.gif
p1321
sg14
V\u039a\u0391\u039b\u0391\u039c\u0391\u03a4\u0391
p1322
sg25
V1882
p1323
sg18
VPublic Radio 
p1324
ssS'1881'
p1325
(dp1326
g23
V/logos/gr/mini/rockvelvetgr.gif
p1327
sg14
VINTERNET RADIO
p1328
sg25
V1881
p1329
sg18
VRock Velvet 
p1330
ssS'1880'
p1331
(dp1332
g23
V/logos/gr/mini/viasound.gif
p1333
sg14
VINTERNET RADIO
p1334
sg25
V1880
p1335
sg18
VViaSound 
p1336
ssS'2121'
p1337
(dp1338
g236
S'http://194.219.98.110:8010/;'
p1339
sg63
Vhttp://cdn.e-radio.gr/logos/gr/mini/grafima.png
p1340
sg65
VINTERNET RADIO
p1341
sg67
V2121
p1342
sg69
V\u03a1\u03ac\u03b4\u03b9\u03bf \u0393\u03c1\u03ac\u03c6\u03b7\u03bc\u03b1
p1343
ssS'2120'
p1344
(dp1345
g236
S'http://79.143.189.68:13262/;'
p1346
sg63
Vhttp://cdn.e-radio.gr/logos/gr/mini/ernest.png
p1347
sg65
VINTERNET RADIO
p1348
sg67
V2120
p1349
sg69
VErnest Radio
p1350
ssS'2088'
p1351
(dp1352
g63
Vhttp://cdn.e-radio.gr/logos/gr/mini/yoo.png
p1353
sg65
VINTERNET RADIO
p1354
sg67
V2088
p1355
sg69
VYooRadio
p1356
ssS'2089'
p1357
(dp1358
g63
Vhttp://cdn.e-radio.gr/logos/gr/mini/epalsamou.png
p1359
sg65
V\u03a3\u0391\u039c\u039f\u03a3
p1360
sg67
V2089
p1361
sg69
V\u0395\u03a0\u0391\u039b \u03a3\u03ac\u03bc\u03bf\u03c5
p1362
ssS'2125'
p1363
(dp1364
g236
S'http://80.86.82.101:8140/;'
p1365
sg63
Vhttp://cdn.e-radio.gr/logos/gr/mini/more971.png
p1366
sg65
V\u0398\u0395\u03a3\u03a3\u0391\u039b\u039f\u039d\u0399\u039a\u0397
p1367
sg67
V2125
p1368
sg69
VMore
p1369
ssS'2124'
p1370
(dp1371
g236
S'http://s6.onweb.gr:8002/;'
p1372
sg63
Vhttp://cdn.e-radio.gr/logos/gr/mini/legend1016.png
p1373
sg65
V\u039e\u0391\u039d\u0398\u0397
p1374
sg67
V2124
p1375
sg69
VLegend
p1376
ssS'948'
p1377
(dp1378
g776
S'http://eco.onestreaming.com:8047'
p1379
sg23
V/logos/gr/mini/klimaka.gif
p1380
sg14
VINTERNET RADIO
p1381
sg25
V948
p1382
sg18
VK\u03bb\u03af\u03bc\u03b1\u03be Plus 
p1383
ssS'949'
p1384
(dp1385
g776
S'http://eco.onestreaming.com:8077'
p1386
sg23
V/logos/gr/mini/maroni.gif
p1387
sg14
VINTERNET RADIO
p1388
sg25
V949
p1389
sg18
VMaroni 
p1390
ssS'946'
p1391
(dp1392
g265
S'http://live.onestreaming.com/blacklemon'
p1393
sg23
V/logos/gr/mini/blacklemon.gif
p1394
sg14
VINTERNET RADIO
p1395
sg25
V946
p1396
sg18
VBlack Lemon Radio 
p1397
ssS'2128'
p1398
(dp1399
S'url'
p1400
S'http://159.253.149.12:8138/;'
p1401
sg63
Vhttp://cdn.e-radio.gr/logos/gr/mini/radiokalavryta.png
p1402
sg65
VINTERNET RADIO
p1403
sg67
V2128
p1404
sg69
V\u03a1\u03ac\u03b4\u03b9\u03bf \u039a\u03b1\u03bb\u03ac\u03b2\u03c1\u03c5\u03c4\u03b1
p1405
ssS'944'
p1406
(dp1407
g776
S'http://eco.onestreaming.com:8025/live'
p1408
sg23
V/logos/gr/mini/iekdomi.gif
p1409
sg14
V\u0391\u0398\u0397\u039d\u0391
p1410
sg25
V944
p1411
sg18
V\u0399\u0395\u039a \u0394\u03bf\u03bc\u03ae Radio 
p1412
ssS'945'
p1413
(dp1414
g265
S'http://live.onestreaming.com/vetofm'
p1415
sg23
V/logos/gr/mini/vetofm.gif
p1416
sg14
V\u039a\u039f\u0396\u0391\u039d\u0397
p1417
sg25
V945
p1418
sg18
VVeto Fm 91
p1419
ssS'2086'
p1420
(dp1421
g236
S'http://radio.alfadramas.gr:9998/;'
p1422
sg63
Vhttp://cdn.e-radio.gr/logos/gr/mini/alphadramas.png
p1423
sg65
V\u0394\u03a1\u0391\u039c\u0391
p1424
sg67
V2086
p1425
sg69
VALPHA News
p1426
ssS'2087'
p1427
(dp1428
g63
Vhttp://cdn.e-radio.gr/logos/gr/mini/paranoid.png
p1429
sg65
VINTERNET RADIO
p1430
sg67
V2087
p1431
sg69
VParanoid
p1432
ssS'940'
p1433
(dp1434
g776
S'http://s2.onweb.gr:8600'
p1435
sg23
V/logos/gr/mini/dreamradio.gif
p1436
sg14
VINTERNET RADIO
p1437
sg25
V940
p1438
sg18
VDream Radio 
p1439
ssS'941'
p1440
(dp1441
g776
S'http://www.dit-radio.gr:7500'
p1442
sg23
V/logos/gr/mini/ditradio.gif
p1443
sg14
VINTERNET RADIO
p1444
sg25
V941
p1445
sg18
VD.I.T. Radio 
p1446
ssS'689'
p1447
(dp1448
g23
V/logos/gr/mini/spyridon.gif
p1449
sg14
V\u039a\u0395\u03a1\u039a\u03a5\u03a1\u0391
p1450
sg25
V689
p1451
sg18
V\u0391\u03b3\u03b9\u03bf\u03c2 \u03a3\u03c0\u03c5\u03c1\u03af\u03b4\u03c9\u03bd 91,1
p1452
ssS'688'
p1453
(dp1454
g265
S'http://live.onestreaming.com/skyptolem'
p1455
sg23
V/logos/gr/mini/skyptolem.gif
p1456
sg14
V\u03a0\u03a4\u039f\u039bE\u039c\u0391\u0399\u0394\u0391
p1457
sg25
V688
p1458
sg18
VSky Fm 99,7
p1459
ssS'685'
p1460
(dp1461
g776
S'http://s3.onweb.gr:8522'
p1462
sg23
V/logos/gr/mini/cretaplanet.gif
p1463
sg14
VINTERNET RADIO
p1464
sg25
V685
p1465
sg18
VCreta Planet 
p1466
ssS'684'
p1467
(dp1468
g23
V/logos/gr/mini/krestena.gif
p1469
sg14
V\u039a\u03a1\u0395\u03a3\u03a4\u0395\u039d\u0391
p1470
sg25
V684
p1471
sg18
V\u03a1\u03ac\u03b4\u03b9\u03bf \u039a\u03c1\u03ad\u03c3\u03c4\u03b5\u03bd\u03b1 101,3
p1472
ssS'687'
p1473
(dp1474
g265
S'http://live.onestreaming.com/mousikokanali'
p1475
sg23
V/logos/gr/mini/mousikokanali.gif
p1476
sg14
V\u0397\u03a1\u0391\u039a\u039b\u0395\u0399\u039f
p1477
sg25
V687
p1478
sg18
V\u039c\u03bf\u03c5\u03c3\u03b9\u03ba\u03cc \u039a\u03b1\u03bd\u03ac\u03bb\u03b9 105,1
p1479
ssS'686'
p1480
(dp1481
g776
S'http://eco.onestreaming.com:8314'
p1482
sg23
V/logos/gr/mini/nrgkozanis.gif
p1483
sg14
V\u039a\u039f\u0396\u0391\u039d\u0397
p1484
sg25
V686
p1485
sg18
VNRG Radio 89,5
p1486
ssS'681'
p1487
(dp1488
g236
S'http://dytikos.live24.gr/dytikos'
p1489
sg63
Vhttp://cdn.e-radio.gr/logos/gr/mini/dytikos.png
p1490
sg65
V\u03a0\u0391\u03a4\u03a1\u0391
p1491
sg67
V681
p1492
sg69
V\u0394\u03c5\u03c4\u03b9\u03ba\u03cc\u03c2
p1493
ssS'680'
p1494
(dp1495
g265
S'http://realfm.live24.gr/realfm'
p1496
sg23
V/logos/gr/mini/realfm.gif
p1497
sg14
V\u0391\u0398\u0397\u039d\u0391
p1498
sg25
V680
p1499
sg18
VReal Fm 97,8
p1500
ssS'683'
p1501
(dp1502
g23
V/logos/gr/mini/rockmachine.gif
p1503
sg14
VINTERNET RADIO
p1504
sg25
V683
p1505
sg18
VRock Machine 
p1506
ssS'1818'
p1507
(dp1508
g23
V/logos/gr/mini/inathens.gif
p1509
sg14
VINTERNET RADIO
p1510
sg25
V1818
p1511
sg18
VIn Athens Radio 
p1512
ssS'769'
p1513
(dp1514
g23
V/logos/gr/mini/uplifted.gif
p1515
sg14
VINTERNET RADIO
p1516
sg25
V769
p1517
sg18
VUpLifted 
p1518
ssS'131'
p1519
(dp1520
g236
S'http://m1.onweb.gr/loud'
p1521
sg63
Vhttp://cdn.e-radio.gr/logos/gr/mini/loudradio.png
p1522
sg65
V\u03a4\u03a1\u0399\u039a\u0391\u039b\u0391
p1523
sg67
V131
p1524
sg69
VLoud Radio
p1525
ssS'130'
p1526
(dp1527
g776
S'http://85.17.30.90:9984'
p1528
sg23
V/logos/gr/mini/hotmix.gif
p1529
sg14
V\u03a4\u03a1\u0399\u039a\u0391\u039b\u0391
p1530
sg25
V130
p1531
sg18
VHotMix 88
p1532
ssS'137'
p1533
(dp1534
g23
V/logos/gr/mini/88miso.gif
p1535
sg14
V\u0398\u0395\u03a3\u03a3\u0391\u039b\u039f\u039d\u0399\u039a\u0397
p1536
sg25
V137
p1537
sg18
V88 \u03bc\u03b9\u03c3\u03cc 88,5
p1538
ssS'499'
p1539
(dp1540
g265
S'http://live.onestreaming.com/aegeanant1'
p1541
sg23
V/logos/gr/mini/aegeanant1.gif
p1542
sg14
V\u03a7\u0399\u039f\u03a3
p1543
sg25
V499
p1544
sg18
VAnt1 \u0391\u03b9\u03b3\u03b1\u03af\u03bf 105
p1545
ssS'134'
p1546
(dp1547
g776
S'http://live.duth.gr:8000/erakom'
p1548
sg23
V/logos/gr/mini/eraweb.gif
p1549
sg14
V\u039a\u039f\u039c\u039f\u03a4H\u039d\u0397
p1550
sg25
V134
p1551
sg18
V\u0395\u03a1\u0391 \u039a\u03bf\u03bc\u03bf\u03c4\u03b7\u03bd\u03ae\u03c2 98,4
p1552
ssS'496'
p1553
(dp1554
g265
S'http://live.onestreaming.com/kanali3'
p1555
sg23
V/logos/gr/mini/kanali3.gif
p1556
sg14
V\u03a6\u039b\u03a9\u03a1\u0399\u039d\u0391
p1557
sg25
V496
p1558
sg18
V\u039a\u03b1\u03bd\u03ac\u03bb\u03b9 3 104
p1559
ssS'497'
p1560
(dp1561
g265
S'http://live.onestreaming.com/panoramafm'
p1562
sg23
V/logos/gr/mini/panoramafm.gif
p1563
sg14
V\u03a0\u03a4\u039f\u039bE\u039c\u0391\u0399\u0394\u0391
p1564
sg25
V497
p1565
sg18
V\u03a0\u03b1\u03bd\u03cc\u03c1\u03b1\u03bc\u03b1 Fm 101,8
p1566
ssS'490'
p1567
(dp1568
g23
V/logos/gr/mini/studio980.gif
p1569
sg14
V\u03a1\u0395\u0398\u03a5\u039c\u039d\u039f
p1570
sg25
V490
p1571
sg18
VStudio 98
p1572
ssS'491'
p1573
(dp1574
g776
S'http://s1.onweb.gr:8408'
p1575
sg23
V/logos/gr/mini/studio3.gif
p1576
sg14
V\u0398\u0395\u03a3\u03a3\u0391\u039b\u039f\u039d\u0399\u039a\u0397
p1577
sg25
V491
p1578
sg18
VStudio 3 103,5
p1579
ssS'1832'
p1580
(dp1581
g63
Vhttp://cdn.e-radio.gr/logos/cy/mini/nrgcy986.png
p1582
sg65
V\u039b\u0391\u03a1\u039d\u0391\u039a\u0391
p1583
sg67
V1832
p1584
sg69
VNRG Radio
p1585
ssS'1830'
p1586
(dp1587
g776
S'http://eco.onestreaming.com:8064'
p1588
sg23
V/logos/gr/mini/gorgona.gif
p1589
sg14
VINTERNET RADIO
p1590
sg25
V1830
p1591
sg18
VGorgona K1 
p1592
ssS'27'
p1593
(dp1594
g776
S'http://85.17.75.143:80'
p1595
sg23
V/logos/gr/mini/echoes.gif
p1596
sg14
VINTERNET RADIO
p1597
sg25
V27
p1598
sg18
VEchoes 
p1599
ssS'1836'
p1600
(dp1601
g265
S'http://eco.onestreaming.com:8146'
p1602
sg23
V/logos/gr/mini/radioolympos.gif
p1603
sg14
V\u039a\u0391\u03a1\u03a0\u0391\u0398\u039f\u03a3
p1604
sg25
V1836
p1605
sg18
VRadio Olympos 
p1606
ssS'21'
p1607
(dp1608
g23
V/logos/gr/mini/greca.gif
p1609
sg14
V\u03a0\u03a5\u03a1\u0393\u039f\u03a3
p1610
sg25
V21
p1611
sg18
VGreca Fm 99,4
p1612
ssS'1834'
p1613
(dp1614
g776
S'http://46.4.65.194:8039'
p1615
sg23
V/logos/gr/mini/yes912.gif
p1616
sg14
V\u03a0\u0391\u03a4\u03a1\u0391
p1617
sg25
V1834
p1618
sg18
VYES! 91,2
p1619
ssS'1835'
p1620
(dp1621
g236
S'http://live.onestreaming.com/fly889'
p1622
sg63
Vhttp://cdn.e-radio.gr/logos/gr/mini/fly889.png
p1623
sg65
V\u0397\u03a1\u0391\u039a\u039b\u0395\u0399\u039f
p1624
sg67
V1835
p1625
sg69
VFly FM
p1626
ssS'914'
p1627
(dp1628
g14
VINTERNET RADIO
p1629
sg226
S'popi'
p1630
sg18
VPop-I 
p1631
sg229
S'http://eco.onestreaming.com:8340'
p1632
sg231
g1632
sg23
V/logos/gr/mini/popi.gif
p1633
sg25
V914
p1634
ssS'1838'
p1635
(dp1636
g776
S'http://eco.onestreaming.com:8074/live'
p1637
sg23
V/logos/gr/mini/maelli.gif
p1638
sg14
VINTERNET RADIO
p1639
sg25
V1838
p1640
sg18
VMaelli Radio 
p1641
ssS'1839'
p1642
(dp1643
g265
S'http://golive.onestreaming.com/akousinlove'
p1644
sg23
V/logos/gr/mini/akous_inlove.gif
p1645
sg14
V\u0391\u0398\u0397\u039d\u0391
p1646
sg25
V1839
p1647
sg18
VAkous. InLove 
p1648
ssS'2154'
p1649
(dp1650
g236
S'http://188.138.121.94:8036/;'
p1651
sg63
Vhttp://cdn.e-radio.gr/logos/gr/mini/timeradiogr.png
p1652
sg65
VINTERNET RADIO
p1653
sg67
V2154
p1654
sg69
VTime Radio
p1655
ssS'2155'
p1656
(dp1657
g63
Vhttp://cdn.e-radio.gr/logos/gr/mini/epontus.png
p1658
sg65
VINTERNET RADIO
p1659
sg67
V2155
p1660
sg69
VePontus
p1661
ssS'2156'
p1662
(dp1663
g236
S'http://s3.viastreaming.net:8720/;'
p1664
sg63
Vhttp://cdn.e-radio.gr/logos/gr/mini/biscotto.png
p1665
sg65
VINTERNET RADIO
p1666
sg67
V2156
p1667
sg69
VBiscotto Radio
p1668
ssS'404'
p1669
(dp1670
g476
S'http://eco.onestreaming.com:8189'
p1671
sg23
V/logos/gr/mini/rythmos988.gif
p1672
sg14
V\u039b\u0391\u03a1\u0399\u03a3\u0391
p1673
sg25
V404
p1674
sg18
V\u03a1\u03c5\u03b8\u03bc\u03cc\u03c2 98,8
p1675
ssS'2019'
p1676
(dp1677
g23
V/logos/gr/mini/albishara.gif
p1678
sg14
VINTERNET RADIO
p1679
sg25
V2019
p1680
sg18
VRadio Al-Bishara 
p1681
ssS'2018'
p1682
(dp1683
g776
S'http://208.43.115.44:9632'
p1684
sg23
V/logos/gr/mini/silibre.gif
p1685
sg14
VINTERNET RADIO
p1686
sg25
V2018
p1687
sg18
VSilibre 
p1688
ssS'2152'
p1689
(dp1690
g61
S'http://188.40.95.16:7040/;'
p1691
sg63
Vhttp://cdn.e-radio.gr/logos/gr/mini/0211media.png
p1692
sg65
VINTERNET RADIO
p1693
sg67
V2152
p1694
sg69
V0211 Media
p1695
ssS'2153'
p1696
(dp1697
g63
Vhttp://cdn.e-radio.gr/logos/gr/mini/lacoza.png
p1698
sg65
VINTERNET RADIO
p1699
sg67
V2153
p1700
sg69
VLacoza
p1701
ssS'933'
p1702
(dp1703
g776
S'http://208.43.121.133:9088'
p1704
sg23
V/logos/gr/mini/nologo.gif
p1705
sg14
VINTERNET RADIO
p1706
sg25
V933
p1707
sg18
VMidnight Blues 
p1708
ssS'2014'
p1709
(dp1710
g23
V/logos/gr/mini/nologo.gif
p1711
sg14
V\u039b\u0397\u039c\u039d\u039f\u03a3
p1712
sg25
V2014
p1713
sg18
VFm 100 100
p1714
ssS'931'
p1715
(dp1716
g23
V/logos/gr/mini/freshwebradio.gif
p1717
sg14
VINTERNET RADIO
p1718
sg25
V931
p1719
sg18
VFresh Web Radio 
p1720
ssS'2016'
p1721
(dp1722
g23
V/logos/gr/mini/fradio.gif
p1723
sg14
V\u0391\u0398\u0397\u039d\u0391
p1724
sg25
V2016
p1725
sg18
VF Radio 
p1726
ssS'937'
p1727
(dp1728
g776
S'http://85.17.238.96:8050'
p1729
sg23
V/logos/gr/mini/ianosradio.gif
p1730
sg14
VINTERNET RADIO
p1731
sg25
V937
p1732
sg18
VIanos Radio 
p1733
ssS'2010'
p1734
(dp1735
g776
S'http://free.freeshoutcast.com:6768'
p1736
sg23
V/logos/gr/mini/nologo.gif
p1737
sg14
V\u03a7\u0391\u039d\u0399\u0391
p1738
sg25
V2010
p1739
sg18
VHip Hop Radio 107,3
p1740
ssS'935'
p1741
(dp1742
S'url'
p1743
S'http://85.17.238.96:8050'
p1744
sg23
V/logos/gr/mini/radioart.gif
p1745
sg14
VINTERNET RADIO
p1746
sg25
V935
p1747
sg18
VRadio Art 1 
p1748
ssS'2012'
p1749
(dp1750
g776
S'http://live.radio-sense.com:8035'
p1751
sg23
V/logos/gr/mini/radiosensecy.gif
p1752
sg14
V\u039b\u0395\u03a5\u039a\u03a9\u03a3\u0399\u0391
p1753
sg25
V2012
p1754
sg18
VRadio Sense 
p1755
ssS'414'
p1756
(dp1757
g476
S'http://eu02.egihosting.com:9108'
p1758
sg23
V/logos/gr/mini/heatfm.gif
p1759
sg14
V\u0391\u039b\u0395\u039e\u0391\u039d\u0394\u03a1\u039f\u03a5\u03a0\u039f\u039b\u0397
p1760
sg25
V414
p1761
sg18
VHeat Radio 88,3
p1762
ssS'1955'
p1763
(dp1764
g23
V/logos/gr/mini/nologo.gif
p1765
sg14
VINTERNET RADIO
p1766
sg25
V1955
p1767
sg18
VSeal Radio 
p1768
ssS'1954'
p1769
(dp1770
g776
S'http://www.cancelled.gr:8015/cancelled.mp3'
p1771
sg23
V/logos/gr/mini/cancelled.gif
p1772
sg14
V\u0391\u0398\u0397\u039d\u0391
p1773
sg25
V1954
p1774
sg18
VRadio Cancelled  
p1775
ssS'1957'
p1776
(dp1777
g776
S'http://s1.viastreaming.net:7370'
p1778
sg23
V/logos/gr/mini/skordo.gif
p1779
sg14
V\u0398\u0395\u03a3\u03a3\u0391\u039b\u039f\u039d\u0399\u039a\u0397
p1780
sg25
V1957
p1781
sg18
VSkordo Radio 
p1782
ssS'1956'
p1783
(dp1784
g776
S'http://159.253.149.12:8188'
p1785
sg23
V/logos/gr/mini/solidradio.gif
p1786
sg14
VINTERNET RADIO
p1787
sg25
V1956
p1788
sg18
VSolid Radio 
p1789
ssS'1951'
p1790
(dp1791
g776
S'http://147.102.216.3:8000/live'
p1792
sg23
V/logos/gr/mini/polytexneio.gif
p1793
sg14
VINTERNET RADIO
p1794
sg25
V1951
p1795
sg18
VPolyteXneio FM 
p1796
ssS'1950'
p1797
(dp1798
g776
S'http://188.40.131.14:6004'
p1799
sg23
V/logos/gr/mini/cosiradio.gif
p1800
sg14
VINTERNET RADIO
p1801
sg25
V1950
p1802
sg18
VCosiRadio Int'l Station 
p1803
ssS'1953'
p1804
(dp1805
g23
V/logos/gr/mini/nologo.gif
p1806
sg14
VINTERNET RADIO
p1807
sg25
V1953
p1808
sg18
VPiratis Radio 
p1809
ssS'1952'
p1810
(dp1811
g23
V/logos/gr/mini/mouspanintl.gif
p1812
sg14
V\u039a\u0391\u03a4\u0395\u03a1\u0399\u039d\u0397
p1813
sg25
V1952
p1814
sg18
V\u039c\u03bf\u03c5\u03c3\u03b9\u03ba\u03cc \u03a0\u03b1\u03bd\u03cc\u03c1\u03b1\u03bc\u03b1 Int'l Radio 
p1815
ssS'1958'
p1816
(dp1817
g23
V/logos/gr/mini/taelafakia.gif
p1818
sg14
V\u03a1\u039f\u0394\u039f\u03a3
p1819
sg25
V1958
p1820
sg18
VTa Elafakia 
p1821
ssS'415'
p1822
(dp1823
S'url'
p1824
S'http://stokokkino.gr:8000/stream'
p1825
sg23
V/logos/gr/mini/kokkino.gif
p1826
sg14
V\u0391\u0398\u0397\u039d\u0391
p1827
sg25
V415
p1828
sg18
VSto Kokkino 105,5
p1829
ssS'379'
p1830
(dp1831
g265
S'http://eco.onestreaming.com:8226'
p1832
sg23
V/logos/gr/mini/topfmxanthi.gif
p1833
sg14
V\u039e\u0391\u039d\u0398\u0397
p1834
sg25
V379
p1835
sg18
VTop Fm 96,9
p1836
ssS'829'
p1837
(dp1838
g23
V/logos/gr/mini/sportfmrethymno.gif
p1839
sg14
V\u03a1\u0395\u0398\u03a5\u039c\u039d\u039f
p1840
sg25
V829
p1841
sg18
VSport Fm 103,3
p1842
ssS'828'
p1843
(dp1844
g236
S'http://159.253.149.12:9300/;'
p1845
sg63
Vhttp://cdn.e-radio.gr/logos/gr/mini/radioin.png
p1846
sg65
VINTERNET RADIO
p1847
sg67
V828
p1848
sg69
VRadioIn
p1849
ssS'824'
p1850
(dp1851
g23
V/logos/gr/mini/proinosfm.gif
p1852
sg14
V\u03a4\u03a1\u0399\u039a\u0391\u039b\u0391
p1853
sg25
V824
p1854
sg18
V\u03a0\u03c1\u03c9\u03b9\u03bd\u03cc\u03c2 Fm 105,3
p1855
ssS'827'
p1856
(dp1857
g23
V/logos/gr/mini/ermisradio.gif
p1858
sg14
V\u0396\u0391\u039a\u03a5\u039d\u0398\u039f\u03a3
p1859
sg25
V827
p1860
sg18
V\u0395\u03c1\u03bc\u03ae\u03c2 91,8
p1861
ssS'826'
p1862
(dp1863
g265
S'http://live.onestreaming.com/radiosiatistas'
p1864
sg23
V/logos/gr/mini/radiosiatistas.gif
p1865
sg14
V\u03a3\u0399\u0391\u03a4\u0399\u03a3\u03a4\u0391
p1866
sg25
V826
p1867
sg18
V\u03a1\u03ac\u03b4\u03b9\u03bf \u03a3\u03b9\u03ac\u03c4\u03b9\u03c3\u03c4\u03b1\u03c2 
p1868
ssS'821'
p1869
(dp1870
g265
S'http://live.onestreaming.com/nautilusradio'
p1871
sg23
V/logos/gr/mini/nautilus.gif
p1872
sg14
VINTERNET RADIO
p1873
sg25
V821
p1874
sg18
VNautilus Radio 
p1875
ssS'820'
p1876
(dp1877
g265
S'mmsh://a714.l649552713.c6495.g.lm.akamaistream.net/D/714/6495/v0001/reflector:52713'
p1878
sg23
V/logos/gr/mini/music892new.gif
p1879
sg14
V\u0391\u0398\u0397\u039d\u0391
p1880
sg25
V820
p1881
sg18
VMusic 89,2
p1882
ssS'376'
p1883
(dp1884
g265
S'http://live.onestreaming.com/latofm'
p1885
sg23
V/logos/gr/mini/latofm.gif
p1886
sg14
V\u0391\u0393.\u039d\u0399\u039a\u039f\u039b\u0391\u039f\u03a3
p1887
sg25
V376
p1888
sg18
V\u039b\u03b1\u03c4\u03ce Fm 103,3
p1889
ssS'708'
p1890
(dp1891
g265
S'http://live.onestreaming.com/ermionida'
p1892
sg23
V/logos/gr/mini/ermionidas.gif
p1893
sg14
V\u039a\u03a1\u0391\u039d\u0399\u0394\u0399
p1894
sg25
V708
p1895
sg18
V\u03a1\u03ac\u03b4\u03b9\u03bf \u0395\u03c1\u03bc\u03b9\u03bf\u03bd\u03af\u03b4\u03b1 104,3
p1896
ssS'1871'
p1897
(dp1898
g1824
S'http://radio.e-pro.gr:9006'
p1899
sg23
V/logos/gr/mini/viva883.gif
p1900
sg14
V\u039a\u0391\u03a4\u0395\u03a1\u0399\u039d\u0397
p1901
sg25
V1871
p1902
sg18
VViva 88,3
p1903
ssS'700'
p1904
(dp1905
g1824
S'http://178.21.22.213:9650'
p1906
sg23
V/logos/gr/mini/smoothtraxx.gif
p1907
sg14
VINTERNET RADIO
p1908
sg25
V700
p1909
sg18
VSmooth Traxx 
p1910
ssS'702'
p1911
(dp1912
g236
S'http://vm.motionfm.com//motionone_free'
p1913
sg63
Vhttp://cdn.e-radio.gr/logos/gr/mini/motionfm_deep.png
p1914
sg65
VMONTREAL
p1915
sg67
V702
p1916
sg69
VMotionFm Deep
p1917
ssS'392'
p1918
(dp1919
g1824
S'http://bestgreek.info:8104'
p1920
sg23
V/logos/gr/mini/a100.gif
p1921
sg14
V\u0391\u0398\u0397\u039d\u0391
p1922
sg25
V392
p1923
sg18
VA100 107,4
p1924
ssS'88'
p1925
(dp1926
g265
S'http://enleuko.live24.gr/enleuko877'
p1927
sg23
V/logos/gr/mini/enlefko.gif
p1928
sg14
V\u0391\u0398\u0397\u039d\u0391
p1929
sg25
V88
p1930
sg18
V\u0395\u03bd \u039b\u03b5\u03c5\u03ba\u03ce 87,7
p1931
ssS'89'
p1932
(dp1933
g1824
S'http://178.32.72.194:8060/rthes'
p1934
sg23
V/logos/gr/mini/radiothess.gif
p1935
sg14
V\u0398\u0395\u03a3\u03a3\u0391\u039b\u039f\u039d\u0399\u039a\u0397
p1936
sg25
V89
p1937
sg18
V\u03a1\u03ac\u03b4\u03b9\u03bf \u0398\u03b5\u03c3\u03c3\u03b1\u03bb\u03bf\u03bd\u03af\u03ba\u03b7 94,5
p1938
ssS'395'
p1939
(dp1940
g23
V/logos/gr/mini/atlantis.gif
p1941
sg14
V\u0391\u0398\u0397\u039d\u0391
p1942
sg25
V395
p1943
sg18
VAtlantis 105,2
p1944
ssS'82'
p1945
(dp1946
g265
S'http://diesi.live24.gr/diesi1013'
p1947
sg23
V/logos/gr/mini/diesi.gif
p1948
sg14
V\u0391\u0398\u0397\u039d\u0391
p1949
sg25
V82
p1950
sg18
V\u0394\u03af\u03b5\u03c3\u03b7 101,3
p1951
ssS'83'
p1952
(dp1953
g23
V/logos/gr/mini/melodia.gif
p1954
sg14
V\u0391\u0398\u0397\u039d\u0391
p1955
sg25
V83
p1956
sg18
V\u039c\u03b5\u03bb\u03c9\u03b4\u03af\u03b1 99,2
p1957
ssS'399'
p1958
(dp1959
g265
S'http://golive.onestreaming.com/thepopfm'
p1960
sg23
V/logos/gr/mini/thepopfm.gif
p1961
sg14
V\u039c\u03a5\u03a4\u0399\u039b\u0397\u039d\u0397
p1962
sg25
V399
p1963
sg18
VThe Pop Fm 98,6
p1964
ssS'81'
p1965
(dp1966
g1743
S'http://sc2.greekstream.net:4008'
p1967
sg23
V/logos/gr/mini/stathmos.gif
p1968
sg14
VINTERNET RADIO
p1969
sg25
V81
p1970
sg18
V\u03a3\u03c4\u03b1\u03b8\u03bc\u03cc\u03c2 
p1971
ssS'87'
p1972
(dp1973
g63
Vhttp://cdn.e-radio.gr/logos/gr/mini/nerit.png
p1974
sg65
V\u0391\u0398\u0397\u039d\u0391
p1975
sg67
V87
p1976
sg69
V\u039d\u0395\u03a1\u0399\u03a4 \u03a4\u03c1\u03af\u03c4\u03bf
p1977
ssS'85'
p1978
(dp1979
g1743
S'http://149.5.240.22/WR-GR-WR71'
p1980
sg23
V/logos/gr/mini/nrjathens.gif
p1981
sg14
V\u0391\u0398\u0397\u039d\u0391
p1982
sg25
V85
p1983
sg18
VEnergy Athens 88,6
p1984
ssS'797'
p1985
(dp1986
g1743
S'http://live.waveradio.gr:8000/listen'
p1987
sg23
V/logos/gr/mini/waveradio.gif
p1988
sg14
VINTERNET RADIO
p1989
sg25
V797
p1990
sg18
VWave Radio 
p1991
ssS'2147'
p1992
(dp1993
g236
S'http://37.187.90.121:3226/;'
p1994
sg63
Vhttp://cdn.e-radio.gr/logos/gr/mini/epic.png
p1995
sg65
VINTERNET RADIO
p1996
sg67
V2147
p1997
sg69
VEpic Radio
p1998
ssS'1710'
p1999
(dp2000
g265
S'http://hotsoft.ws:8086/talosfm?.wma'
p2001
sg23
V/logos/gr/mini/talosfm886.gif
p2002
sg14
V\u03a1\u0395\u0398\u03a5\u039c\u039d\u039f
p2003
sg25
V1710
p2004
sg18
V\u03a4\u03ac\u03bb\u03c9\u03c2 FM 88,6
p2005
ssS'793'
p2006
(dp2007
g1743
S'http://eco.onestreaming.com:8005/stream'
p2008
sg23
V/logos/gr/mini/loco.gif
p2009
sg14
V\u0391\u0398\u0397\u039d\u0391
p2010
sg25
V793
p2011
sg18
VLoco Radio 
p2012
ssS'792'
p2013
(dp2014
g23
V/logos/gr/mini/epigee.gif
p2015
sg14
VINTERNET RADIO
p2016
sg25
V792
p2017
sg18
VEpigee Radio 
p2018
ssS'791'
p2019
(dp2020
g1743
S'http://uk3-vn.mixstream.net:8258'
p2021
sg23
V/logos/gr/mini/kentrokardias.gif
p2022
sg14
V\u0397\u03a1\u0391\u039a\u039b\u0395\u0399\u039f
p2023
sg25
V791
p2024
sg18
V\u039a\u03ad\u03bd\u03c4\u03c1\u03bf \u039a\u03b1\u03c1\u03b4\u03b9\u03ac\u03c2 95
p2025
ssS'1714'
p2026
(dp2027
g265
S'http://live.camstreams.com/misconfig.wmv'
p2028
sg23
V/logos/gr/mini/sfinakiafm.gif
p2029
sg14
V
sg25
V1714
p2030
sg18
V\u03a3\u03c6\u03b7\u03bd\u03ac\u03ba\u03b9\u03b1 FM 97,3
p2031
ssS'799'
p2032
(dp2033
g265
S'http://live.onestreaming.com/nikolaou'
p2034
sg23
V/logos/gr/mini/nikolaou.gif
p2035
sg14
V\u0391\u0398\u0397\u039d\u0391
p2036
sg25
V799
p2037
sg18
V\u039d\u03b9\u03ba\u03bf\u03bb\u03ac\u03bf\u03c5 Radio 
p2038
ssS'798'
p2039
(dp2040
g236
S'http://eco.onestreaming.com:8380/;'
p2041
sg63
Vhttp://cdn.e-radio.gr/logos/gr/mini/radiokalloni.png
p2042
sg65
V\u039a\u0391\u039b\u039b\u039f\u039d\u0397
p2043
sg67
V798
p2044
sg69
V\u03a1\u03ac\u03b4\u03b9\u03bf \u039a\u03b1\u03bb\u03bb\u03bf\u03bd\u03ae
p2045
ssS'417'
p2046
(dp2047
g23
V/logos/gr/mini/capitalradio.gif
p2048
sg14
V\u03a1\u0395\u0398\u03a5\u039c\u039d\u039f
p2049
sg25
V417
p2050
sg18
VCapital Radio 90,7
p2051
ssS'7'
(dp2052
g265
S'http://golive.onestreaming.com/arionlaikos'
p2053
sg23
V/logos/gr/mini/arionlaikos.gif
p2054
sg14
V\u0391\u0398\u0397\u039d\u0391
p2055
sg25
V7
sg18
VArion \u039b\u03b1\u03ca\u03ba\u03cc\u03c2 
p2056
ssS'1879'
p2057
(dp2058
g23
V/logos/gr/mini/gold10.gif
p2059
sg14
V\u0392\u039f\u039b\u039f\u03a3
p2060
sg25
V1879
p2061
sg18
VGold10 Radio 
p2062
ssS'1655'
p2063
(dp2064
g1743
S'http://eco.onestreaming.com:8115'
p2065
sg23
V/logos/gr/mini/sradio.gif
p2066
sg14
VINTERNET RADIO
p2067
sg25
V1655
p2068
sg18
VSRadio 
p2069
ssS'1139'
p2070
(dp2071
g236
S'http://64.237.33.50:7026/;'
p2072
sg63
Vhttp://cdn.e-radio.gr/logos/gr/mini/melodia1024.png
p2073
sg65
V\u03a0\u03a4\u039f\u039bE\u039c\u0391\u03aa\u0394\u0391
p2074
sg67
V1139
p2075
sg69
V\u039c\u03b5\u03bb\u03c9\u03b4\u03af\u03b1
p2076
ssS'1132'
p2077
(dp2078
g1743
S'http://www.elgr.info:8112'
p2079
sg23
V/logos/gr/mini/energykast.gif
p2080
sg14
V\u039a\u0391\u03a3\u03a4\u039f\u03a1\u0399\u0391
p2081
sg25
V1132
p2082
sg18
VEnergy 101
p2083
ssS'1136'
p2084
(dp2085
g23
V/logos/gr/mini/vivafm953.gif
p2086
sg14
V\u03a0\u03a4\u039f\u039bE\u039c\u0391\u0399\u0394\u0391
p2087
sg25
V1136
p2088
sg18
VViva FM 95,3
p2089
ssS'245'
p2090
(dp2091
g236
S'http://eco.onestreaming.com:8414/;'
p2092
sg63
Vhttp://cdn.e-radio.gr/logos/gr/mini/prismafm.png
p2093
sg65
V\u03a3\u0399\u03a6\u039d\u039f\u03a3
p2094
sg67
V245
p2095
sg69
V\u03a0\u03c1\u03af\u03c3\u03bc\u03b1 FM
p2096
ssS'1384'
p2097
(dp2098
g476
S'http://eco.onestreaming.com:8264'
p2099
sg23
V/logos/gr/mini/imf894.gif
p2100
sg14
V\u039b\u0391\u039c\u0399\u0391
p2101
sg25
V1384
p2102
sg18
V\u0399.\u039c. \u03a6\u03b8\u03b9\u03ce\u03c4\u03b9\u03b4\u03b1\u03c2 89,4
p2103
ssS'241'
p2104
(dp2105
g265
S'http://live.onestreaming.com/radioactive'
p2106
sg23
V/logos/gr/mini/radioactive.gif
p2107
sg14
V\u03a3\u0399\u03a6\u039d\u039f\u03a3
p2108
sg25
V241
p2109
sg18
VRadio Active 91,3
p2110
ssS'243'
p2111
(dp2112
g23
V/logos/gr/mini/spacefmcyclades.gif
p2113
sg14
V\u039d\u0391\u039e\u039f\u03a3
p2114
sg25
V243
p2115
sg18
VSpace Fm 107,5
p2116
ssS'249'
p2117
(dp2118
g23
V/logos/gr/mini/synorafm.gif
p2119
sg14
V\u039a\u0399\u039b\u039a\u0399\u03a3
p2120
sg25
V249
p2121
sg18
VSynora Fm 92,2
p2122
ssS'923'
p2123
(dp2124
g23
V/logos/gr/mini/siriosfm.gif
p2125
sg14
V\u039b\u0399\u0392\u0391\u0394\u0395\u0399\u0391
p2126
sg25
V923
p2127
sg18
V\u03a3\u03b5\u03af\u03c1\u03b9\u03bf\u03c2 FM 
p2128
ssS'1430'
p2129
(dp2130
g265
S'http://live.onestreaming.com/aeolos'
p2131
sg23
V/logos/gr/mini/aeolos.gif
p2132
sg14
V\u039c\u03a5\u03a4\u0399\u039b\u0397\u039d\u0397
p2133
sg25
V1430
p2134
sg18
V\u0391\u03af\u03bf\u03bb\u03bf\u03c2 92,8
p2135
ssS'224'
p2136
(dp2137
g23
V/logos/gr/mini/noizeradio.gif
p2138
sg14
V\u03a3\u0395\u03a1\u03a1\u0395\u03a3
p2139
sg25
V224
p2140
sg18
VNoize Radio 93,5
p2141
ssS'498'
p2142
(dp2143
g23
V/logos/gr/mini/radiomastixa.gif
p2144
sg14
V\u03a7\u0399\u039f\u03a3
p2145
sg25
V498
p2146
sg18
VRadio Mastixa 107,7
p2147
ssS'519'
p2148
(dp2149
g1743
S'http://s3.onweb.gr:8462'
p2150
sg23
V/logos/gr/mini/dreamfm.gif
p2151
sg14
V\u0391\u0398\u0397\u039d\u0391
p2152
sg25
V519
p2153
sg18
VDream Fm 103,5
p2154
ssS'518'
p2155
(dp2156
g23
V/logos/gr/mini/sunradio.gif
p2157
sg14
V\u0394\u03a1\u0391\u039c\u0391
p2158
sg25
V518
p2159
sg18
VSun Radio 97,1
p2160
ssS'511'
p2161
(dp2162
g23
V/logos/gr/mini/diktyo.gif
p2163
sg14
V\u03a3\u0395\u03a1\u03a1\u0395\u03a3
p2164
sg25
V511
p2165
sg18
V\u0394\u03af\u03ba\u03c4\u03c5\u03bf 102,4
p2166
ssS'510'
p2167
(dp2168
g476
S'http://s3.onweb.gr:8520'
p2169
sg23
V/logos/gr/mini/ayia942.gif
p2170
sg14
V\u039b\u0391\u03a1\u0399\u03a3\u0391
p2171
sg25
V510
p2172
sg18
V\u03a1\u03b1\u03b4\u03b9\u03bf\u03c6\u03c9\u03bd\u03af\u03b1 \u0391\u03b3\u03b9\u03ac\u03c2 94,2
p2173
ssS'512'
p2174
(dp2175
g476
S'http://78.46.66.215:8002'
p2176
sg23
V/logos/gr/mini/nrgfm.gif
p2177
sg14
V\u03a7\u0391\u039b\u039a\u0399\u0394\u0391
p2178
sg25
V512
p2179
sg18
VNrg Fm 95
p2180
ssS'515'
p2181
(dp2182
g476
S'http://live.duth.gr:8000/underground'
p2183
sg23
V/logos/gr/mini/undergroundradio.gif
p2184
sg14
V\u039e\u0391\u039d\u0398\u0397
p2185
sg25
V515
p2186
sg18
VUnderground Radio 100,3
p2187
ssS'514'
p2188
(dp2189
g23
V/logos/gr/mini/sagapo.gif
p2190
sg14
V\u0398\u0395\u03a3\u03a3\u0391\u039b\u039f\u039d\u0399\u039a\u0397
p2191
sg25
V514
p2192
sg18
V\u03a3'\u03b1\u03b3\u03b1\u03c0\u03ce 96,1
p2193
ssS'458'
p2194
(dp2195
g265
S'http://radio.greekstream.net/ekrixi'
p2196
sg23
V/logos/gr/mini/radioekriksi.gif
p2197
sg14
V\u0398\u0395\u03a3\u03a3\u0391\u039b\u039f\u039d\u0399\u039a\u0397
p2198
sg25
V458
p2199
sg18
V\u0388\u03ba\u03c1\u03b7\u03be\u03b7 Fm 99,7
p2200
ssS'459'
p2201
(dp2202
g23
V/logos/gr/mini/erotokritos.gif
p2203
sg14
V\u0397\u03a1\u0391\u039a\u039b\u0395\u0399\u039f
p2204
sg25
V459
p2205
sg18
VErotokritos Fm 87,9
p2206
ssS'1223'
p2207
(dp2208
g63
Vhttp://cdn.e-radio.gr/logos/gr/mini/lizard.png
p2209
sg65
VINTERNET RADIO
p2210
sg67
V1223
p2211
sg69
VLizard Radio
p2212
ssS'1222'
p2213
(dp2214
g236
S'http://eco.onestreaming.com:8420/;'
p2215
sg63
Vhttp://cdn.e-radio.gr/logos/gr/mini/best1039.png
p2216
sg65
V\u03a3\u03a0\u0391\u03a1\u03a4\u0397
p2217
sg67
V1222
p2218
sg69
VBest Radio
p2219
ssS'451'
p2220
(dp2221
g23
V/logos/gr/mini/rythmosxan.gif
p2222
sg14
V\u039e\u0391\u039d\u0398\u0397
p2223
sg25
V451
p2224
sg18
V\u03a1\u03c5\u03b8\u03bc\u03cc\u03c2 106
p2225
ssS'629'
p2226
(dp2227
g476
S'http://eco.onestreaming.com:8294'
p2228
sg23
V/logos/gr/mini/power926.gif
p2229
sg14
V\u039a\u039f\u0396\u0391\u039d\u0397
p2230
sg25
V629
p2231
sg18
VPower FM 92,6
p2232
ssS'453'
p2233
(dp2234
g265
S'http://stream.powerfm932.gr/powerfm932'
p2235
sg23
V/logos/gr/mini/powerfm.gif
p2236
sg14
V\u039b\u0391\u03a1\u0399\u03a3\u0391
p2237
sg25
V453
p2238
sg18
VPower Fm 93,2
p2239
ssS'454'
p2240
(dp2241
g265
S'http://live.onestreaming.com/rythmos943'
p2242
sg23
V/logos/gr/mini/rythmos943.gif
p2243
sg14
V\u0396\u0391\u039a\u03a5\u039d\u0398\u039f\u03a3
p2244
sg25
V454
p2245
sg18
V\u03a1\u03c5\u03b8\u03bc\u03cc\u03c2 94,3
p2246
ssS'456'
p2247
(dp2248
g23
V/logos/gr/mini/radioepidavros.gif
p2249
sg14
V\u0395\u03a0\u0399\u0394\u0391\u03a5\u03a1\u039f\u03a3
p2250
sg25
V456
p2251
sg18
V\u03a1\u03ac\u03b4\u03b9\u03bf \u0395\u03c0\u03af\u03b4\u03b1\u03c5\u03c1\u03bf\u03c2 93,8
p2252
ssS'457'
p2253
(dp2254
g476
S'http://ola.isolservers.com:8300'
p2255
sg23
V/logos/gr/mini/olafm.gif
p2256
sg14
V\u0398\u0395\u03a3\u03a3\u0391\u039b\u039f\u039d\u0399\u039a\u0397
p2257
sg25
V457
p2258
sg18
VOla Fm 91,4
p2259
ssS'1876'
p2260
(dp2261
g476
S'http://stream.greekradios.gr:8050'
p2262
sg23
V/logos/gr/mini/nologo.gif
p2263
sg14
V\u03a1\u039f\u0394\u039f\u03a3
p2264
sg25
V1876
p2265
sg18
V\u03a0\u03b1\u03bb\u03bc\u03cc\u03c2 99,5
p2266
ssS'1877'
p2267
(dp2268
g476
S'http://208.43.121.133:8178'
p2269
sg23
V/logos/gr/mini/nologo.gif
p2270
sg14
VINTERNET RADIO
p2271
sg25
V1877
p2272
sg18
VStarwalkers Radio Classic 
p2273
ssS'1875'
p2274
(dp2275
g476
S'http://stream.all-host.gr:9034'
p2276
sg23
V/logos/gr/mini/megalonisos898.gif
p2277
sg14
V\u03a1\u0395\u0398\u03a5\u039c\u039d\u039f
p2278
sg25
V1875
p2279
sg18
V\u03a1\u03ac\u03b4\u03b9\u03bf \u039c\u03b5\u03b3\u03b1\u03bb\u03cc\u03bd\u03b7\u03c3\u03bf\u03c2 89,8
p2280
ssS'1872'
p2281
(dp2282
g23
V/logos/gr/mini/meli106.gif
p2283
sg14
V\u039a\u039f\u0396\u0391\u039d\u0397
p2284
sg25
V1872
p2285
sg18
V\u03a1\u03ac\u03b4\u03b9\u03bf \u039c\u03ad\u03bb\u03b9 106
p2286
ssS'1873'
p2287
(dp2288
g476
S'http://s6.onweb.gr:8078'
p2289
sg23
V/logos/gr/mini/lefkada884.gif
p2290
sg14
V\u039b\u0395\u03a5\u039a\u0391\u0394\u0391
p2291
sg25
V1873
p2292
sg18
V\u03a1\u03ac\u03b4\u03b9\u03bf \u039b\u03b5\u03c5\u03ba\u03ac\u03b4\u03b1 88,4
p2293
ssS'1870'
p2294
(dp2295
g265
S'http://golive.onestreaming.com/akousjazzin'
p2296
sg23
V/logos/gr/mini/akous_jazzin.gif
p2297
sg14
VINTERNET RADIO
p2298
sg25
V1870
p2299
sg18
VAkous. JazzIN 
p2300
ssS'178'
p2301
(dp2302
g23
V/logos/gr/mini/StigmaFm.gif
p2303
sg14
V\u0396\u0391\u039a\u03a5\u039d\u0398\u039f\u03a3
p2304
sg25
V178
p2305
sg18
V\u03a3\u03c4\u03af\u03b3\u03bc\u03b1 Radio 97,6
p2306
ssS'175'
p2307
(dp2308
g476
S'http://shoutcast.24radio.gr:8036'
p2309
sg23
V/logos/gr/mini/kisskefalonias.gif
p2310
sg14
V\u039a\u0395\u03a6\u0391\u039b\u039b\u039f\u039d\u0399\u0391
p2311
sg25
V175
p2312
sg18
VKiss Fm 100,6
p2313
ssS'174'
p2314
(dp2315
g265
S'http://live.onestreaming.com/diavlosrodopis'
p2316
sg23
V/logos/gr/mini/diavlosrodopis.gif
p2317
sg14
V\u039a\u039f\u039c\u039f\u03a4H\u039d\u0397
p2318
sg25
V174
p2319
sg18
V\u0394\u03af\u03b1\u03c5\u03bb\u03bf\u03c2 \u03a1\u03bf\u03b4\u03cc\u03c0\u03b7\u03c2 92,4
p2320
ssS'173'
p2321
(dp2322
g476
S'http://s1.onweb.gr:8422'
p2323
sg23
V/logos/gr/mini/popfm.gif
p2324
sg14
V\u039a\u0395\u03a1\u039a\u03a5\u03a1\u0391
p2325
sg25
V173
p2326
sg18
VPop Fm 102,1
p2327
ssS'172'
p2328
(dp2329
g265
S'http://broadcast.hol.gr/mojoradio'
p2330
sg23
V/logos/gr/mini/mojoradio.gif
p2331
sg14
V\u03a0\u0391\u03a4\u03a1\u0391
p2332
sg25
V172
p2333
sg18
VMojo Radio 107,7
p2334
ssS'1878'
p2335
(dp2336
g23
V/logos/gr/mini/studio359.gif
p2337
sg14
V\u03a7\u0391\u039d\u0399\u0391
p2338
sg25
V1878
p2339
sg18
VStudio 359 103
p2340
ssS'170'
p2341
(dp2342
g23
V/logos/gr/mini/powervolos.gif
p2343
sg14
V\u0392\u039f\u039b\u039f\u03a3
p2344
sg25
V170
p2345
sg18
VPower Fm 100,2
p2346
ssS'2051'
p2347
(dp2348
g236
S'http://eco.onestreaming.com:8352/;'
p2349
sg63
Vhttp://cdn.e-radio.gr/logos/gr/mini/yousmile.png
p2350
sg65
VINTERNET RADIO
p2351
sg67
V2051
p2352
sg69
VYouSmile
p2353
ssS'2050'
p2354
(dp2355
g63
Vhttp://cdn.e-radio.gr/logos/gr/mini/arionchristmas.png
p2356
sg65
V\u0391\u0398\u0397\u039d\u0391
p2357
sg67
V2050
p2358
sg69
VArion Christmas
p2359
ssS'2053'
p2360
(dp2361
S'url'
p2362
S'http://listen.radionomy.com/studio-leukakia'
p2363
sg63
Vhttp://cdn.e-radio.gr/logos/gr/mini/nologo.png
p2364
sg65
VINTERNET RADIO
p2365
sg67
V2053
p2366
sg69
VStudio Leukakia
p2367
ssS'2052'
p2368
(dp2369
g63
Vhttp://cdn.e-radio.gr/logos/gr/mini/anonymous.png
p2370
sg65
VINTERNET RADIO
p2371
sg67
V2052
p2372
sg69
VAnonymous Radio
p2373
ssS'2055'
p2374
(dp2375
g63
Vhttp://cdn.e-radio.gr/logos/gr/mini/studio222.png
p2376
sg65
VINTERNET RADIO
p2377
sg67
V2055
p2378
sg69
VStudio 2-22
p2379
ssS'972'
p2380
(dp2381
g23
V/logos/gr/mini/aigaio958.gif
p2382
sg14
V\u03a3\u03a5\u03a1\u039f\u03a3
p2383
sg25
V972
p2384
sg18
V\u0391\u03b9\u03b3\u03b1\u03af\u03bf Live 95,8
p2385
ssS'2057'
p2386
(dp2387
g63
Vhttp://cdn.e-radio.gr/logos/gr/mini/ifeelradio.png
p2388
sg65
VINTERNET RADIO
p2389
sg67
V2057
p2390
sg69
Vi feel radio
p2391
ssS'2056'
p2392
(dp2393
g63
Vhttp://cdn.e-radio.gr/logos/gr/mini/g4all.png
p2394
sg65
VINTERNET RADIO
p2395
sg67
V2056
p2396
sg69
VG4ALL
p2397
ssS'2059'
p2398
(dp2399
S'url'
p2400
S'http://stream2.greekradios.gr:8040/;'
p2401
sg63
Vhttp://cdn.e-radio.gr/logos/gr/mini/karamela.png
p2402
sg65
VINTERNET RADIO
p2403
sg67
V2059
p2404
sg69
V\u039a\u03b1\u03c1\u03b1\u03bc\u03ad\u03bb\u03b1
p2405
ssS'2058'
p2406
(dp2407
g2400
S'http://ice.onestreaming.com/akouspalko'
p2408
sg63
Vhttp://cdn.e-radio.gr/logos/gr/mini/akous_palko.png
p2409
sg65
V\u0391\u0398\u0397\u039d\u0391
p2410
sg67
V2058
p2411
sg69
VAkous. \u03a0\u03ac\u03bb\u03ba\u03bf
p2412
ssS'180'
p2413
(dp2414
g23
V/logos/gr/mini/bestkos.gif
p2415
sg14
V\u039a\u03a9\u03a3
p2416
sg25
V180
p2417
sg18
VBest Radio 101,1
p2418
ssS'2118'
p2419
(dp2420
g2400
S'http://eco.onestreaming.com:8430/;'
p2421
sg63
Vhttp://cdn.e-radio.gr/logos/gr/mini/botox.png
p2422
sg65
VINTERNET RADIO
p2423
sg67
V2118
p2424
sg69
VBOTOX Radio
p2425
ssS'183'
p2426
(dp2427
g476
S'http://s5.onweb.gr:8020'
p2428
sg23
V/logos/gr/mini/primetime.gif
p2429
sg14
V\u03a3\u03a5\u03a1\u039f\u03a3
p2430
sg25
V183
p2431
sg18
VPrime Radio 100,3
p2432
ssS'654'
p2433
(dp2434
g265
S'http://hotsoft.ws:8086/mk'
p2435
sg23
V/logos/gr/mini/musikokanali.gif
p2436
sg14
V\u03a1\u0395\u0398\u03a5\u039c\u039d\u039f
p2437
sg25
V654
p2438
sg18
V\u039c\u03bf\u03c5\u03c3\u03b9\u03ba\u03cc \u039a\u03b1\u03bd\u03ac\u03bb\u03b9 101,3
p2439
ssS'2'
(dp2440
g265
S'http://golive.onestreaming.com/athensparty'
p2441
sg23
V/logos/gr/mini/athensparty.gif
p2442
sg14
V\u0391\u0398\u0397\u039d\u0391
p2443
sg25
V2
sg18
VAthens Party 
p2444
ssS'652'
p2445
(dp2446
g23
V/logos/gr/mini/nologo.gif
p2447
sg14
V\u039a\u0391\u039b\u0391\u039c\u0391\u03a4\u0391
p2448
sg25
V652
p2449
sg18
V\u03a0\u03b1\u03bb\u03bc\u03cc\u03c2 90,5
p2450
ssS'653'
p2451
(dp2452
g476
S'http://eco.onestreaming.com:8075'
p2453
sg23
V/logos/gr/mini/enimerosi.gif
p2454
sg14
V\u039a\u0391\u03a4\u0395\u03a1\u0399\u039d\u0397
p2455
sg25
V653
p2456
sg18
V\u0395\u03bd\u03b7\u03bc\u03ad\u03c1\u03c9\u03c3\u03b7 92,2
p2457
ssS'184'
p2458
(dp2459
g265
S'http://live.onestreaming.com/mixgrevena'
p2460
sg23
V/logos/gr/mini/mixgrevena.gif
p2461
sg14
V\u0393\u03a1\u0395\u0392\u0395\u039d\u0391
p2462
sg25
V184
p2463
sg18
VMix Fm 102,2
p2464
ssS'185'
p2465
(dp2466
g265
S'http://live.onestreaming.com/lefkada'
p2467
sg23
V/logos/gr/mini/lefkada.gif
p2468
sg14
V\u039b\u0395\u03a5\u039a\u0391\u0394\u0391
p2469
sg25
V185
p2470
sg18
VStudio \u039b\u03b5\u03c5\u03ba\u03ac\u03c4\u03b1\u03c2 90,5
p2471
ssS'2111'
p2472
(dp2473
g63
Vhttp://cdn.e-radio.gr/logos/gr/mini/djnurnberg.png
p2474
sg65
VINTERNET RADIO
p2475
sg67
V2111
p2476
sg69
VDeejayRadio \u039d\u03c5\u03c1\u03b5\u03bc\u03b2\u03ad\u03c1\u03b3\u03b7
p2477
ssS'2112'
p2478
(dp2479
g2400
S'http://eu1.fastcast4u.com:3688/;'
p2480
sg63
Vhttp://cdn.e-radio.gr/logos/gr/mini/diktyoxania.png
p2481
sg65
V\u03a7\u0391\u039d\u0399\u0391
p2482
sg67
V2112
p2483
sg69
V\u0394\u03af\u03ba\u03c4\u03c5\u03bf FM
p2484
ssS'2113'
p2485
(dp2486
g63
Vhttp://cdn.e-radio.gr/logos/gr/mini/erock.png
p2487
sg65
V\u0392\u039f\u039b\u039f\u03a3
p2488
sg67
V2113
p2489
sg69
Ve-Rock Radio
p2490
ssS'2114'
p2491
(dp2492
S'url'
p2493
S'http://europe4.nfs.gr:11000/;'
p2494
sg63
Vhttp://cdn.e-radio.gr/logos/gr/mini/nologo.png
p2495
sg65
V\u0392\u039f\u039b\u039f\u03a3
p2496
sg67
V2114
p2497
sg69
VRadio Marconi
p2498
ssS'2115'
p2499
(dp2500
g2493
S'http://streaming.radionomy.com/Top-Secret-Web-Radio'
p2501
sg63
Vhttp://cdn.e-radio.gr/logos/gr/mini/topsecret.png
p2502
sg65
VINTERNET RADIO
p2503
sg67
V2115
p2504
sg69
VTop Secret Radio
p2505
ssS'658'
p2506
(dp2507
g476
S'http://shout.streamwithq.gr:4052'
p2508
sg23
V/logos/gr/mini/ellinikos889.gif
p2509
sg14
V\u0391\u039b\u0395\u039e\u0391\u039d\u0394\u03a1\u039f\u03a5\u03a0\u039f\u039b\u0397
p2510
sg25
V658
p2511
sg18
V\u0395\u03bb\u03bb\u03b7\u03bd\u03b9\u03ba\u03cc\u03c2 88,9
p2512
ssS'659'
p2513
(dp2514
g476
S'http://s5.onweb.gr:8498'
p2515
sg23
V/logos/gr/mini/radiofono108.gif
p2516
sg14
V\u039c\u03a5\u03a4\u0399\u039b\u0397\u039d\u0397
p2517
sg25
V659
p2518
sg18
V\u03a1\u03b1\u03b4\u03b9\u03cc\u03c6\u03c9\u03bd\u03bf 108
p2519
ssS'947'
p2520
(dp2521
g23
V/logos/gr/mini/studio54.gif
p2522
sg14
V\u0391\u0398\u0397\u039d\u0391
p2523
sg25
V947
p2524
sg18
VStudio 54 
p2525
ssS'651'
p2526
(dp2527
g476
S'http://188.40.131.14:8022'
p2528
sg23
V/logos/gr/mini/radioamfissa.gif
p2529
sg14
V\u0391\u039c\u03a6\u0399\u03a3\u03a3\u0391
p2530
sg25
V651
p2531
sg18
V\u03a1\u03ac\u03b4\u03b9\u03bf \u0391\u03bc\u03c6\u03b9\u03c3\u03c3\u03b1 104,4
p2532
ssS'2123'
p2533
(dp2534
g2493
S'http://s3.onweb.gr:8532/;'
p2535
sg63
Vhttp://cdn.e-radio.gr/logos/gr/mini/glenti1011.png
p2536
sg65
V\u039e\u0391\u039d\u0398\u0397
p2537
sg67
V2123
p2538
sg69
V\u0393\u03bb\u03ad\u03bd\u03c4\u03b9
p2539
ssS'1918'
p2540
(dp2541
g23
V/logos/gr/mini/radioheaven.gif
p2542
sg14
VINTERNET RADIO
p2543
sg25
V1918
p2544
sg18
VRadio Heaven 
p2545
ssS'1911'
p2546
(dp2547
g23
V/logos/gr/mini/kissne89.gif
p2548
sg14
V\u039a\u0391\u039b\u0391\u039c\u0391\u03a4\u0391
p2549
sg25
V1911
p2550
sg18
VKiss FM 89
p2551
ssS'1910'
p2552
(dp2553
g476
S'http://eco.onestreaming.com:8142'
p2554
sg23
V/logos/gr/mini/mini1071.gif
p2555
sg14
V\u039a\u03a1\u0395\u03a3\u03a4\u0395\u039d\u0391
p2556
sg25
V1910
p2557
sg18
VMini FM 107,1
p2558
ssS'1915'
p2559
(dp2560
g476
S'http://78.159.111.125:8042'
p2561
sg23
V/logos/gr/mini/tranceathens.gif
p2562
sg14
VINTERNET RADIO
p2563
sg25
V1915
p2564
sg18
VTrance Athens 
p2565
ssS'1917'
p2566
(dp2567
g23
V/logos/gr/mini/alldaydj.gif
p2568
sg14
VINTERNET RADIO
p2569
sg25
V1917
p2570
sg18
VAllDay DJ 
p2571
ssS'1916'
p2572
(dp2573
g23
V/logos/gr/mini/midnightradio.gif
p2574
sg14
VINTERNET RADIO
p2575
sg25
V1916
p2576
sg18
VMidnight Radio 
p2577
ssS'869'
p2578
(dp2579
g476
S'http://eco.onestreaming.com:8286'
p2580
sg23
V/logos/gr/mini/lakkasouli.gif
p2581
sg14
VINTERNET RADIO
p2582
sg25
V869
p2583
sg18
V\u039b\u0391\u039a\u039a\u0391 \u03a3\u039f\u03a5\u039b\u0399 Radio 
p2584
ssS'10'
p2585
(dp2586
g2493
S'http://ice.onestreaming.com/athenspartyplus'
p2587
sg63
Vhttp://cdn.e-radio.gr/logos/gr/mini/athenspartynu.png
p2588
sg65
V\u0391\u0398\u0397\u039d\u0391
p2589
sg67
V10
p2590
sg69
VAthens Party Plus+
p2591
ssS'12'
p2592
(dp2593
g476
S'http://shout.streamwithq.gr:4044'
p2594
sg23
V/logos/gr/mini/flyfm.gif
p2595
sg14
V\u03a1\u0395\u0398\u03a5\u039c\u039d\u039f
p2596
sg25
V12
p2597
sg18
VFly Fm 95,9
p2598
ssS'15'
p2599
(dp2600
g476
S'http://s1.onweb.gr:8056'
p2601
sg23
V/logos/gr/mini/starsparti.gif
p2602
sg14
V\u03a3\u03a0\u0391\u03a1\u03a4\u0397
p2603
sg25
V15
p2604
sg18
VRadio Star 94,1
p2605
ssS'2127'
p2606
(dp2607
g2493
S'http://eco.onestreaming.com:8452/;'
p2608
sg63
Vhttp://cdn.e-radio.gr/logos/gr/mini/985nrg.png
p2609
sg65
V\u0391\u039b\u0395\u039e\u0391\u039d\u0394\u03a1\u039f\u03a5\u03a0\u039f\u039b\u0397
p2610
sg67
V2127
p2611
sg69
VNrg
p2612
ssS'19'
p2613
(dp2614
g320
S'http://fm1.teicrete.gr:8000/live'
p2615
sg23
V/logos/gr/mini/teifm1.gif
p2616
sg14
V\u0397\u03a1\u0391\u039a\u039b\u0395\u0399\u039f
p2617
sg25
V19
p2618
sg18
VStudio Fm1 105,4
p2619
ssS'862'
p2620
(dp2621
g476
S'http://208.43.121.133:8036'
p2622
sg23
V/logos/gr/mini/wasteland.gif
p2623
sg14
VINTERNET RADIO
p2624
sg25
V862
p2625
sg18
VWasteland 
p2626
ssS'1091'
p2627
(dp2628
g476
S'http://radio.radionova.gr:8000/kritorama'
p2629
sg23
V/logos/gr/mini/kritorama.gif
p2630
sg14
V\u0397\u03a1\u0391\u039a\u039b\u0395\u0399\u039f
p2631
sg25
V1091
p2632
sg18
V\u039a\u03c1\u03b7\u03c4\u03cc\u03c1\u03b1\u03bc\u03b1 FM 97,9
p2633
ssS'867'
p2634
(dp2635
g265
S'http://live.onestreaming.com/poligiros'
p2636
sg23
V/logos/gr/mini/poligiros.gif
p2637
sg14
V\u03a0\u039f\u039b\u03a5\u0393\u03a5\u03a1\u039f\u03a3
p2638
sg25
V867
p2639
sg18
V\u0394\u03b7\u03bc\u03bf\u03c4\u03b9\u03ba\u03cc \u03a1\u03b1\u03b4\u03b9\u03cc\u03c6\u03c9\u03bd\u03bf \u03a0\u03bf\u03bb\u03cd\u03b3\u03c5\u03c1\u03bf\u03c5 90,8
p2640
ssS'2024'
p2641
(dp2642
g476
S'http://94.229.74.195:8004'
p2643
sg23
V/logos/gr/mini/legrec.gif
p2644
sg14
VINTERNET RADIO
p2645
sg25
V2024
p2646
sg18
VLe Grec 
p2647
ssS'2129'
p2648
(dp2649
g2493
S'http://eco.caststream.net:8070/;'
p2650
sg63
Vhttp://cdn.e-radio.gr/logos/gr/mini/cosmosserres.png
p2651
sg65
V\u03a3\u0395\u03a1\u03a1\u0395\u03a3
p2652
sg67
V2129
p2653
sg69
VCosmos Radio
p2654
ssS'2026'
p2655
(dp2656
g476
S'http://173.193.219.163:8616/stream'
p2657
sg23
V/logos/gr/mini/satisfactory.gif
p2658
sg14
VINTERNET RADIO
p2659
sg25
V2026
p2660
sg18
VSatisfactory 
p2661
ssS'2027'
p2662
(dp2663
g476
S'http://176.9.39.43:7000'
p2664
sg23
V/logos/gr/mini/memorieswr.gif
p2665
sg14
V\u039b\u0397\u039c\u039d\u039f\u03a3
p2666
sg25
V2027
p2667
sg18
VMemories Web Radio 
p2668
ssS'2020'
p2669
(dp2670
g476
S'http://188.40.75.77:9200'
p2671
sg23
V/logos/gr/mini/ebeeries.gif
p2672
sg14
VINTERNET RADIO
p2673
sg25
V2020
p2674
sg18
V\u039c\u03bf\u03c5\u03c3\u03b9\u03ba\u03ad\u03c2 Ebeer\u03af\u03b5\u03c2 
p2675
ssS'2021'
p2676
(dp2677
g476
S'http://eco.onestreaming.com:8274'
p2678
sg23
V/logos/gr/mini/revivalradio.gif
p2679
sg14
V\u0398\u0395\u03a3\u03a3\u0391\u039b\u039f\u039d\u0399\u039a\u0397
p2680
sg25
V2021
p2681
sg18
VRevival 
p2682
ssS'2022'
p2683
(dp2684
g476
S'http://s3.onweb.gr:8014'
p2685
sg23
V/logos/gr/mini/nologo.gif
p2686
sg14
VINTERNET RADIO
p2687
sg25
V2022
p2688
sg18
VOpen Radio 
p2689
ssS'2083'
p2690
(dp2691
g236
S'http://majestic.wavestreamer.com:5641/;'
p2692
sg63
Vhttp://cdn.e-radio.gr/logos/gr/mini/anticrisis.png
p2693
sg65
VINTERNET RADIO
p2694
sg67
V2083
p2695
sg69
VAntiCrisis
p2696
ssS'2028'
p2697
(dp2698
g476
S'http://178.21.169.118:8002/stream'
p2699
sg23
V/logos/gr/mini/mansta.gif
p2700
sg14
VINTERNET RADIO
p2701
sg25
V2028
p2702
sg18
VMansta Radio 
p2703
ssS'2080'
p2704
(dp2705
g2493
S'http://stream.katsiris.net:7500/;'
p2706
sg63
Vhttp://cdn.e-radio.gr/logos/gr/mini/asteras1001.png
p2707
sg65
V\u03a4\u03a1\u0399\u03a0\u039f\u039b\u0397
p2708
sg67
V2080
p2709
sg69
V\u0391\u03c3\u03c4\u03ad\u03c1\u03b1\u03c2 Radio
p2710
ssS'883'
p2711
(dp2712
g23
V/logos/gr/mini/diveradio.gif
p2713
sg14
VINTERNET RADIO
p2714
sg25
V883
p2715
sg18
VDive Radio 
p2716
ssS'882'
p2717
(dp2718
g63
Vhttp://cdn.e-radio.gr/logos/gr/mini/athlitikanea.png
p2719
sg65
V\u0398\u0395\u03a3\u03a3\u0391\u039b\u039f\u039d\u0399\u039a\u0397
p2720
sg67
V882
p2721
sg69
V\u0391\u03b8\u03bb\u03b7\u03c4\u03b9\u03ba\u03ac \u039d\u03ad\u03b1
p2722
ssS'2081'
p2723
(dp2724
g2493
S'http://s4.onweb.gr:8434/;'
p2725
sg63
Vhttp://cdn.e-radio.gr/logos/gr/mini/techhead.png
p2726
sg65
VINTERNET RADIO
p2727
sg67
V2081
p2728
sg69
VTechHead Radio
p2729
ssS'885'
p2730
(dp2731
g476
S'http://78.46.46.214:7048'
p2732
sg23
V/logos/gr/mini/musicartclub.gif
p2733
sg14
V\u0398\u0395\u03a3\u03a3\u0391\u039b\u039f\u039d\u0399\u039a\u0397
p2734
sg25
V885
p2735
sg18
VMusic Art Club 
p2736
ssS'889'
p2737
(dp2738
g476
S'http://www.tuningradio.gr:8000'
p2739
sg23
V/logos/gr/mini/tuningradio.gif
p2740
sg14
V\u0398\u0395\u03a3\u03a3\u0391\u039b\u039f\u039d\u0399\u039a\u0397
p2741
sg25
V889
p2742
sg18
VTuning Radio 
p2743
ssS'888'
p2744
(dp2745
g476
S'http://s6.onweb.gr:8006'
p2746
sg23
V/logos/gr/mini/xronosfm.gif
p2747
sg14
V\u039a\u039f\u039c\u039f\u03a4H\u039d\u0397
p2748
sg25
V888
p2749
sg18
V\u03a7\u03c1\u03cc\u03bd\u03bf\u03c2 87,5
p2750
ssS'2085'
p2751
(dp2752
g2493
S'http://50.7.158.42:8117/;'
p2753
sg63
Vhttp://cdn.e-radio.gr/logos/gr/mini/prisma951.png
p2754
sg65
V\u03a0\u03a1\u0395\u0392\u0395\u0396\u0391
p2755
sg67
V2085
p2756
sg69
V\u03a1\u03ac\u03b4\u03b9\u03bf \u03a0\u03c1\u03af\u03c3\u03bc\u03b1
p2757
ssS'657'
p2758
(dp2759
g476
S'http://s6.onweb.gr:8010'
p2760
sg23
V/logos/gr/mini/palmosonair.gif
p2761
sg14
V\u0391\u0398\u0397\u039d\u0391
p2762
sg25
V657
p2763
sg18
V\u03a0\u03b1\u03bb\u03bc\u03cc\u03c2 105,4
p2764
ssS'1968'
p2765
(dp2766
g476
S'http://184.154.10.83:8390'
p2767
sg23
V/logos/gr/mini/dmrr.gif
p2768
sg14
VINTERNET RADIO
p2769
sg25
V1968
p2770
sg18
VDepressive Metal Rock Radio 
p2771
ssS'1969'
p2772
(dp2773
g476
S'http://208.116.16.246:8222'
p2774
sg23
V/logos/gr/mini/playradiogr.gif
p2775
sg14
VINTERNET RADIO
p2776
sg25
V1969
p2777
sg18
VPlay Radio 
p2778
ssS'929'
p2779
(dp2780
g23
V/logos/gr/mini/netcruiseradio.gif
p2781
sg14
VINTERNET RADIO
p2782
sg25
V929
p2783
sg18
VNetcruise Radio 
p2784
ssS'1965'
p2785
(dp2786
g265
S'http://ss-wms-8.streamsolutions.co.uk/tligradio_gr'
p2787
sg23
V/logos/gr/mini/tlig.gif
p2788
sg14
VINTERNET RADIO
p2789
sg25
V1965
p2790
sg18
V\u0391\u03bb\u03b7\u03b8\u03b9\u03bd\u03ae \u0395\u03bd \u0398\u03b5\u03ce \u0396\u03c9\u03ae 
p2791
ssS'1966'
p2792
(dp2793
g23
V/logos/gr/mini/lagada.gif
p2794
sg14
V\u0398\u0395\u03a3\u03a3\u0391\u039b\u039f\u039d\u0399\u039a\u0397
p2795
sg25
V1966
p2796
sg18
V\u03a1\u03ac\u03b4\u03b9\u03bf \u039b\u03b1\u03b3\u03ba\u03b1\u03b4\u03ac 100,6
p2797
ssS'1967'
p2798
(dp2799
g476
S'http://eco.onestreaming.com:8213'
p2800
sg23
V/logos/gr/mini/super995.gif
p2801
sg14
V\u03a7\u0391\u039b\u039a\u0399\u0394\u0399\u039a\u0397
p2802
sg25
V1967
p2803
sg18
VSuper Radio 99,5
p2804
ssS'1960'
p2805
(dp2806
g476
S'http://68.168.103.13:8280'
p2807
sg23
V/logos/gr/mini/bfmiradio.gif
p2808
sg14
V\u0395\u0394\u0395\u03a3\u03a3\u0391
p2809
sg25
V1960
p2810
sg18
VB.F.M. iRadio 
p2811
ssS'809'
p2812
(dp2813
g476
S'http://a839.l14625156838.c146251.e.lm.akamaistream.net/D/839/146251/v0001/reflector:56838'
p2814
sg23
V/logos/gr/mini/offradio.gif
p2815
sg14
V\u0398\u0395\u03a3\u03a3\u0391\u039b\u039f\u039d\u0399\u039a\u0397
p2816
sg25
V809
p2817
sg18
VOFF Radio 
p2818
ssS'1962'
p2819
(dp2820
g23
V/logos/gr/mini/involved.gif
p2821
sg14
V\u03a0\u0395\u0399\u03a1\u0391\u0399\u0391\u03a3
p2822
sg25
V1962
p2823
sg18
VInvolved Radio 
p2824
ssS'1963'
p2825
(dp2826
g476
S'http://176.9.39.43:7008'
p2827
sg23
V/logos/gr/mini/melodiesweb.gif
p2828
sg14
V\u0391\u0398\u0397\u039d\u0391
p2829
sg25
V1963
p2830
sg18
V\u039c\u03b5\u03bb\u03c9\u03b4\u03af\u03b5\u03c2 Web Radio 
p2831
ssS'323'
p2832
(dp2833
g63
Vhttp://cdn.e-radio.gr/logos/gr/mini/nologo.png
p2834
sg65
V\u039c\u03a5\u03a4\u0399\u039b\u0397\u039d\u0397
p2835
sg67
V323
p2836
sg69
VLove Radio
p2837
ssS'327'
p2838
(dp2839
g2493
S'http://s3.onweb.gr:8518/;'
p2840
sg63
Vhttp://cdn.e-radio.gr/logos/gr/mini/apollon981.png
p2841
sg65
V\u039a\u0391\u039b\u0391\u039c\u0391\u03a4\u0391
p2842
sg67
V327
p2843
sg69
V\u03a1\u03ac\u03b4\u03b9\u03bf \u0391\u03c0\u03cc\u03bb\u03bb\u03c9\u03bd
p2844
ssS'201'
p2845
(dp2846
g265
S'http://live.onestreaming.com/radionetlamia'
p2847
sg23
V/logos/gr/mini/radionetlamia.gif
p2848
sg14
V\u039b\u0391\u039c\u0399\u0391
p2849
sg25
V201
p2850
sg18
VRadio Net 101,9
p2851
ssS'203'
p2852
(dp2853
g265
S'http://dromos898.live24.gr/dromos898'
p2854
sg23
V/logos/gr/mini/dromosfm.gif
p2855
sg14
V\u0391\u0398\u0397\u039d\u0391
p2856
sg25
V203
p2857
sg18
V\u0394\u03c1\u03cc\u03bc\u03bf\u03c2 89,8
p2858
ssS'202'
p2859
(dp2860
g265
S'http://legacy-100-ams.servers.mediacdn.com/radiojukebox?95430816eded9c5d097e7456816bc09c'
p2861
sg23
V/logos/gr/mini/jukebox.gif
p2862
sg14
VINTERNET RADIO
p2863
sg25
V202
p2864
sg18
VJukeBox 
p2865
ssS'771'
p2866
(dp2867
g23
V/logos/gr/mini/danceradio.gif
p2868
sg14
VINTERNET RADIO
p2869
sg25
V771
p2870
sg18
VDance Radio - ChillOut Channel 
p2871
ssS'204'
p2872
(dp2873
g476
S'http://eco.caststream.net:8044'
p2874
sg23
V/logos/gr/mini/peiraios.gif
p2875
sg14
V\u0391\u0398\u0397\u039d\u0391
p2876
sg25
V204
p2877
sg18
V\u03a0\u03b5\u03b9\u03c1\u03b1\u03ca\u03ba\u03ae \u0395\u03ba\u03ba\u03bb\u03b7\u03c3\u03af\u03b1 91,2
p2878
ssS'207'
p2879
(dp2880
g23
V/logos/gr/mini/starfmdm.gif
p2881
sg14
V\u0393\u03a1\u0395\u0392\u0395\u039d\u0391
p2882
sg25
V207
p2883
sg18
VStar Fm 93,3
p2884
ssS'206'
p2885
(dp2886
g476
S'http://eco.onestreaming.com:8052'
p2887
sg23
V/logos/gr/mini/athletic.gif
p2888
sg14
V\u0397\u03a1\u0391\u039a\u039b\u0395\u0399\u039f
p2889
sg25
V206
p2890
sg18
VAthletic 104,2
p2891
ssS'209'
p2892
(dp2893
g476
S'http://147.27.23.40:8000'
p2894
sg23
V/logos/gr/mini/radioentasi.gif
p2895
sg14
V\u03a7\u0391\u039d\u0399\u0391
p2896
sg25
V209
p2897
sg18
VRadio \u0395\u03bd\u03c4\u03b1\u03c3\u03b7 93,5
p2898
ssS'208'
p2899
(dp2900
g476
S'http://eco.onestreaming.com:8081'
p2901
sg23
V/logos/gr/mini/liberofm.gif
p2902
sg14
V\u0398\u0395\u03a3\u03a3\u0391\u039b\u039f\u039d\u0399\u039a\u0397
p2903
sg25
V208
p2904
sg18
VLibero 107,4
p2905
ssS'779'
p2906
(dp2907
g476
S'http://eco.onestreaming.com:8171'
p2908
sg23
V/logos/gr/mini/venusfm.gif
p2909
sg14
V\u0391\u039c\u0391\u039b\u0399\u0391\u0394\u0391
p2910
sg25
V779
p2911
sg18
VVenus 105,1
p2912
ssS'77'
p2913
(dp2914
g23
V/logos/gr/mini/anampa.gif
p2915
sg14
VINTERNET RADIO
p2916
sg25
V77
p2917
sg18
V\u03a1\u03b1\u03b4\u03b9\u03cc\u03c6\u03c9\u03bd\u03bf \u0391\u03a0\u0395 - \u039c\u03a0\u0395 
p2918
ssS'76'
p2919
(dp2920
g476
S'http://eco.onestreaming.com:8033'
p2921
sg23
V/logos/gr/mini/livefm.gif
p2922
sg14
V\u03a7\u0391\u039b\u039a\u0399\u0394\u0391
p2923
sg25
V76
p2924
sg18
VLive fm 89,6
p2925
ssS'73'
p2926
(dp2927
g23
V/logos/gr/mini/metalzone.gif
p2928
sg14
VINTERNET RADIO
p2929
sg25
V73
p2930
sg18
VMetal Zone 
p2931
ssS'72'
p2932
(dp2933
g23
V/logos/gr/mini/nologo.gif
p2934
sg14
V\u03a7\u0391\u039b\u039a\u0399\u0394\u0399\u039a\u0397
p2935
sg25
V72
p2936
sg18
V\u0395\u03bb\u03bb\u03b7\u03bd\u03bf\u03c1\u03b8\u03cc\u03b4\u03bf\u03be\u03b7 \u03a0\u03b1\u03c1\u03b1\u03b4\u03bf\u03c3\u03b7 \u03ba \u0396\u03c9\u03ae 106
p2937
ssS'70'
p2938
(dp2939
g265
S'http://live.onestreaming.com/planetradio'
p2940
sg23
V/logos/gr/mini/planetradio.gif
p2941
sg14
V\u0399\u0395\u03a1\u0391\u03a0\u0395\u03a4\u03a1\u0391
p2942
sg25
V70
p2943
sg18
VRadio Planet 90,6
p2944
ssS'655'
p2945
(dp2946
g265
S'http://broadcast.hol.gr/cityfm'
p2947
sg23
V/logos/gr/mini/cityfm1038.gif
p2948
sg14
V\u039a\u0391\u039b\u0391\u039c\u0391\u03a4\u0391
p2949
sg25
V655
p2950
sg18
VCity Fm 103,8
p2951
ssS'800'
p2952
(dp2953
g265
S'http://live.onestreaming.com/rythmos1044'
p2954
sg23
V/logos/gr/mini/rythmos1044.gif
p2955
sg14
V\u039a\u039f\u0396\u0391\u039d\u0397
p2956
sg25
V800
p2957
sg18
V\u03a1\u03c5\u03b8\u03bc\u03cc\u03c2 104,4
p2958
ssS'1045'
p2959
(dp2960
g2493
S'http://s1.onweb.gr:8834/;'
p2961
sg63
Vhttp://cdn.e-radio.gr/logos/gr/mini/nologo.png
p2962
sg65
V
sg67
V1045
p2963
sg69
V\u03a1\u03ac\u03b4\u03b9\u03bf \u039c\u03b5\u03c4\u03ad\u03c9\u03c1\u03b1
p2964
ssS'1769'
p2965
(dp2966
g23
V/logos/gr/mini/extremeradiogr.gif
p2967
sg14
VINTERNET RADIO
p2968
sg25
V1769
p2969
sg18
VExtreme Radio 
p2970
ssS'359'
p2971
(dp2972
g476
S'http://iradio.phaseradio.gr:8035/phaseradio'
p2973
sg23
V/logos/gr/mini/phaseradio.gif
p2974
sg14
V\u039b\u0391\u039c\u0399\u0391
p2975
sg25
V359
p2976
sg18
VPhase Radio 87,7
p2977
ssS'1762'
p2978
(dp2979
g23
V/logos/gr/mini/klikfm1062.gif
p2980
sg14
V\u03a1\u039f\u0394\u039f\u03a3
p2981
sg25
V1762
p2982
sg18
V\u039a\u039b\u0399\u039a FM 106,2
p2983
ssS'1763'
p2984
(dp2985
g476
S'http://188.121.60.170:6002'
p2986
sg23
V/logos/gr/mini/gagaradio.gif
p2987
sg14
V\u039a\u0395\u03a1\u039a\u03a5\u03a1\u0391
p2988
sg25
V1763
p2989
sg18
VGaga Radio 
p2990
ssS'1760'
p2991
(dp2992
g265
S'http://live.onestreaming.com/mouspalmos945'
p2993
sg23
V/logos/gr/mini/mouspalmos945.gif
p2994
sg14
V\u039d\u0395\u0391\u03a0\u039f\u039b\u0397
p2995
sg25
V1760
p2996
sg18
V\u039c\u03bf\u03c5\u03c3\u03b9\u03ba\u03cc\u03c2 \u03a0\u03b1\u03bb\u03bc\u03cc\u03c2 94,5
p2997
ssS'1761'
p2998
(dp2999
g265
S'http://live.onestreaming.com/diastasis'
p3000
sg23
V/logos/gr/mini/diastasis.gif
p3001
sg14
VINTERNET RADIO
p3002
sg25
V1761
p3003
sg18
V\u0394\u03b9\u03ac\u03c3\u03c4\u03b1\u03c3\u03b9\u03c2 
p3004
ssS'1766'
p3005
(dp3006
g265
S'http://live.onestreaming.com/sky913fm'
p3007
sg23
V/logos/gr/mini/sky913fm.gif
p3008
sg14
V\u03a1\u0395\u0398\u03a5\u039c\u039d\u039f
p3009
sg25
V1766
p3010
sg18
VSky FM 91,3
p3011
ssS'1767'
p3012
(dp3013
g23
V/logos/gr/mini/radiomora.gif
p3014
sg14
VINTERNET RADIO
p3015
sg25
V1767
p3016
sg18
VRadio Mora 
p3017
ssS'1764'
p3018
(dp3019
g23
V/logos/gr/mini/mandra.gif
p3020
sg14
VINTERNET RADIO
p3021
sg25
V1764
p3022
sg18
VMandra Radio 
p3023
ssS'1765'
p3024
(dp3025
g23
V/logos/gr/mini/oscar909.gif
p3026
sg14
V\u039b\u0391\u039c\u0399\u0391
p3027
sg25
V1765
p3028
sg18
VOscar FM 90,9
p3029
ssS'216'
p3030
(dp3031
g23
V/logos/gr/mini/ant1kerkyra.gif
p3032
sg14
V\u039a\u0395\u03a1\u039a\u03a5\u03a1\u0391
p3033
sg25
V216
p3034
sg18
VAntenna \u039a\u03ad\u03c1\u03ba\u03c5\u03c1\u03b1 92,6
p3035
ssS'1593'
p3036
(dp3037
g265
S'http://stream-push2.live24.gr/metrofm1012xalkida'
p3038
sg23
V/logos/gr/mini/metro1012.gif
p3039
sg14
V\u03a7\u0391\u039b\u039a\u0399\u0394\u0391
p3040
sg25
V1593
p3041
sg18
VMetro FM 101,2
p3042
ssS'1789'
p3043
(dp3044
g265
S'http://netradio.live24.gr/heart939'
p3045
sg23
V/logos/gr/mini/heart939.gif
p3046
sg14
V\u03a7\u0391\u039b\u039a\u0399\u0394\u0391
p3047
sg25
V1789
p3048
sg18
VHeart 93,9
p3049
ssS'667'
p3050
(dp3051
g476
S'http://relay4.mindradio.gr:80/live'
p3052
sg23
V/logos/gr/mini/mindradio.gif
p3053
sg14
VINTERNET RADIO
p3054
sg25
V667
p3055
sg18
VMind Radio Conn-X 
p3056
ssS'665'
p3057
(dp3058
g265
S'http://broadcast.hol.gr/kanali20'
p3059
sg23
V/logos/gr/mini/kanali20.gif
p3060
sg14
V\u039a\u0391\u039b\u0391\u039c\u0391\u03a4\u0391
p3061
sg25
V665
p3062
sg18
V\u039a\u03b1\u03bd\u03ac\u03bb\u03b9 20 107,5
p3063
ssS'664'
p3064
(dp3065
g476
S'http://s1.onweb.gr:8022'
p3066
sg23
V/logos/gr/mini/anatolikos.gif
p3067
sg14
V\u0391\u03a1\u0393\u039f\u03a3
p3068
sg25
V664
p3069
sg18
V\u0391\u03bd\u03b1\u03c4\u03bf\u03bb\u03b9\u03ba\u03cc\u03c2 Fm 95,8
p3070
ssS'662'
p3071
(dp3072
g476
S'http://208.43.121.133:8850'
p3073
sg23
V/logos/gr/mini/paradiseradio.gif
p3074
sg14
V\u0391\u0398\u0397\u039d\u0391
p3075
sg25
V662
p3076
sg18
VParadise Radio 104,6
p3077
ssS'661'
p3078
(dp3079
g265
S'http://101fm.dyndns.tv:8002'
p3080
sg23
V/logos/gr/mini/radio1serres.gif
p3081
sg14
V\u03a3\u0395\u03a1\u03a1\u0395\u03a3
p3082
sg25
V661
p3083
sg18
VRadio 1 101
p3084
ssS'660'
p3085
(dp3086
g23
V/logos/gr/mini/aquarius.gif
p3087
sg14
V\u03a0\u03a5\u03a1\u0393\u039f\u03a3
p3088
sg25
V660
p3089
sg18
VAquarius Fm 105,5
p3090
ssS'2095'
p3091
(dp3092
g63
Vhttp://cdn.e-radio.gr/logos/gr/mini/panikradio.png
p3093
sg65
VINTERNET RADIO
p3094
sg67
V2095
p3095
sg69
VPanik Radio
p3096
ssS'2094'
p3097
(dp3098
g2493
S'http://5.175.8.84:8100/;'
p3099
sg63
Vhttp://cdn.e-radio.gr/logos/gr/mini/eroradio.png
p3100
sg65
VMONHEIM
p3101
sg67
V2094
p3102
sg69
V\u0395\u03bb\u03bb\u03b7\u03bd\u03b9\u03ba\u03cc \u03a1\u03ac\u03b4\u03b9\u03bf \u039f\u03bc\u03bf\u03b3\u03ad\u03bd\u03b5\u03b9\u03b1\u03c2 3
p3103
ssS'2097'
p3104
(dp3105
g2493
S'http://eco.onestreaming.com:8412/;'
p3106
sg63
Vhttp://cdn.e-radio.gr/logos/gr/mini/evrytosfm.png
p3107
sg65
V\u039a\u0391\u03a1\u03a0\u0395\u039d\u0397\u03a3\u0399
p3108
sg67
V2097
p3109
sg69
V\u0395\u03cd\u03c1\u03c5\u03c4\u03bf\u03c2 FM
p3110
ssS'2096'
p3111
(dp3112
g63
Vhttp://cdn.e-radio.gr/logos/gr/mini/corazon.png
p3113
sg65
V\u03a0\u0391\u03a4\u03a1\u0391
p3114
sg67
V2096
p3115
sg69
VCorazon Radio
p3116
ssS'2091'
p3117
(dp3118
g63
Vhttp://cdn.e-radio.gr/logos/gr/mini/prthessalias.png
p3119
sg65
VINTERNET RADIO
p3120
sg67
V2091
p3121
sg69
V\u03a0\u03b1\u03c1\u03b1\u03b4\u03bf\u03c3\u03b9\u03b1\u03ba\u03cc \u0398\u03b5\u03c3\u03c3\u03b1\u03bb\u03af\u03b1\u03c2
p3122
ssS'2090'
p3123
(dp3124
g63
Vhttp://cdn.e-radio.gr/logos/gr/mini/studiodelta.png
p3125
sg65
VINTERNET RADIO
p3126
sg67
V2090
p3127
sg69
VStudio Delta
p3128
ssS'2093'
p3129
(dp3130
g63
Vhttp://cdn.e-radio.gr/logos/gr/mini/konitsa91.png
p3131
sg65
V\u039a\u039f\u039d\u0399\u03a4\u03a3\u0391
p3132
sg67
V2093
p3133
sg69
V\u039a\u03cc\u03bd\u03b9\u03c4\u03c3\u03b1 80s
p3134
ssS'2099'
p3135
(dp3136
g2493
S'http://eco.onestreaming.com:8416/;'
p3137
sg63
Vhttp://cdn.e-radio.gr/logos/gr/mini/radio01.png
p3138
sg65
VINTERNET RADIO
p3139
sg67
V2099
p3140
sg69
V01 Radio
p3141
ssS'2098'
p3142
(dp3143
g2493
S'http://195.251.123.136:1351/esradio.mp3'
p3144
sg63
Vhttp://cdn.e-radio.gr/logos/gr/mini/euschoolradio.png
p3145
sg65
V\u0398\u0395\u03a3\u03a3\u0391\u039b\u039f\u039d\u0399\u039a\u0397
p3146
sg67
V2098
p3147
sg69
VEuropean School Radio
p3148
ssS'692'
p3149
(dp3150
g265
S'http://groove.wavestreamer.com:4396'
p3151
sg23
V/logos/gr/mini/radio996.gif
p3152
sg14
V\u03a7\u0391\u039d\u0399\u0391
p3153
sg25
V692
p3154
sg18
V99,6 Radio 
p3155
ssS'693'
p3156
(dp3157
g23
V/logos/gr/mini/dertifmdode.gif
p3158
sg14
V\u03a1\u039f\u0394\u039f\u03a3
p3159
sg25
V693
p3160
sg18
VDerti Fm 104,9
p3161
ssS'691'
p3162
(dp3163
g265
S'http://live.onestreaming.com/lampsifmcrete'
p3164
sg23
V/logos/gr/mini/lampsifmcrete.gif
p3165
sg14
V\u0397\u03a1\u0391\u039a\u039b\u0395\u0399\u039f
p3166
sg25
V691
p3167
sg18
VLampsi Fm 92,9
p3168
ssS'697'
p3169
(dp3170
g476
S'http://208.43.115.44:9578'
p3171
sg23
V/logos/gr/mini/astrosradio.gif
p3172
sg14
VINTERNET RADIO
p3173
sg25
V697
p3174
sg18
VAstros Radio 
p3175
ssS'694'
p3176
(dp3177
g23
V/logos/gr/mini/fm100.gif
p3178
sg14
V\u0398\u0395\u03a3\u03a3\u0391\u039b\u039f\u039d\u0399\u039a\u0397
p3179
sg25
V694
p3180
sg18
VFM100 100
p3181
ssS'695'
p3182
(dp3183
g23
V/logos/gr/mini/vox1033.gif
p3184
sg14
V\u03a0\u03a5\u03a1\u0393\u039f\u03a3
p3185
sg25
V695
p3186
sg18
VVox 103,3
p3187
ssS'699'
p3188
(dp3189
g476
S'http://www.gointernet.gr:8007'
p3190
sg23
V/logos/gr/mini/dolceradio.gif
p3191
sg14
V\u0392\u039f\u039b\u039f\u03a3
p3192
sg25
V699
p3193
sg18
VDolce Radio 89,5
p3194
ssS'222'
p3195
(dp3196
g23
V/logos/gr/mini/radiodrama.gif
p3197
sg14
V\u0394\u03a1\u0391\u039c\u0391
p3198
sg25
V222
p3199
sg18
V\u03a1\u03ac\u03b4\u03b9\u03bf \u0394\u03c1\u03ac\u03bc\u03b1 99,1
p3200
ssS'543'
p3201
(dp3202
g2493
S'http://livecy.onestreaming.com/sferacy'
p3203
sg63
Vhttp://cdn.e-radio.gr/logos/cy/mini/sfera.png
p3204
sg65
V\u039b\u0395\u03a5\u039a\u03a9\u03a3\u0399\u0391
p3205
sg67
V543
p3206
sg69
VSfera
p3207
ssS'540'
p3208
(dp3209
g476
S'http://stream.greekradios.gr:2042'
p3210
sg23
V/logos/gr/mini/velvet968.gif
p3211
sg14
V\u0398\u0395\u03a3\u03a3\u0391\u039b\u039f\u039d\u0399\u039a\u0397
p3212
sg25
V540
p3213
sg18
VVelvet 96,8
p3214
ssS'546'
p3215
(dp3216
g265
S'http://live.onestreaming.com/novamusic'
p3217
sg23
V/logos/gr/mini/novamusic.gif
p3218
sg14
V\u039e\u0391\u039d\u0398\u0397
p3219
sg25
V546
p3220
sg18
VNova Radio 93,1
p3221
ssS'547'
p3222
(dp3223
g265
S'http://live.onestreaming.com/radiokimata'
p3224
sg23
V/logos/gr/mini/radiokimatare.gif
p3225
sg14
V\u03a1\u0395\u0398\u03a5\u039c\u039d\u039f
p3226
sg25
V547
p3227
sg18
V\u03a1\u03b1\u03b4\u03b9\u03bf\u03ba\u03cd\u03bc\u03b1\u03c4\u03b1 102,6
p3228
ssS'544'
p3229
(dp3230
g476
S'http://eco.onestreaming.com:8185'
p3231
sg23
V/logos/gr/mini/drt.gif
p3232
sg14
V\u03a4\u03a1\u0399\u03a0\u039f\u039b\u0397
p3233
sg25
V544
p3234
sg18
V\u0394\u03b7\u03bc\u03bf\u03c4\u03b9\u03ba\u03cc \u03a4\u03c1\u03af\u03c0\u03bf\u03bb\u03b7\u03c2 91,5
p3235
ssS'545'
p3236
(dp3237
g265
S'http://wm3.greekstream.net/kalamariafm?.wma'
p3238
sg23
V/logos/gr/mini/kalamariafm.gif
p3239
sg14
V\u0398\u0395\u03a3\u03a3\u0391\u039b\u039f\u039d\u0399\u039a\u0397
p3240
sg25
V545
p3241
sg18
V\u039a\u03b1\u03bb\u03b1\u03bc\u03b1\u03c1\u03b9\u03ac FM 101,7
p3242
ssS'8'
(dp3243
g476
S'http://eco.onestreaming.com:8211'
p3244
sg23
V/logos/gr/mini/arionkids.gif
p3245
sg14
V\u0391\u0398\u0397\u039d\u0391
p3246
sg25
V8
sg18
VArion Kids 
p3247
ssS'1466'
p3248
(dp3249
g23
V/logos/gr/mini/enallaxintradio.gif
p3250
sg14
VINTERNET RADIO
p3251
sg25
V1466
p3252
sg18
VEnallax Radio 
p3253
ssS'68'
p3254
(dp3255
g476
S'http://eco.onestreaming.com:8298'
p3256
sg23
V/logos/gr/mini/capital977.gif
p3257
sg14
V\u039a\u0391\u03a4\u0395\u03a1\u0399\u039d\u0397
p3258
sg25
V68
p3259
sg18
VCapital 97,7
p3260
ssS'11'
p3261
(dp3262
g476
S'http://eco.onestreaming.com:8103'
p3263
sg23
V/logos/gr/mini/kissavos.gif
p3264
sg14
V\u039b\u0391\u03a1\u0399\u03a3\u0391
p3265
sg25
V11
p3266
sg18
V\u03a1\u03b1\u03b4\u03b9\u03bf\u03c6\u03c9\u03bd\u03af\u03b1 \u039a\u03b9\u03c3\u03c3\u03ac\u03b2\u03bf\u03c5 97,8
p3267
ssS'997'
p3268
(dp3269
g2493
S'http://live.onestreaming.com/kyriesmou'
p3270
sg63
Vhttp://cdn.e-radio.gr/logos/gr/mini/kyriesmou.png
p3271
sg65
VINTERNET RADIO
p3272
sg67
V997
p3273
sg69
V\u039a\u03c5\u03c1\u03af\u03b5\u03c2 \u039c\u03bf\u03c5
p3274
ssS'2168'
p3275
(dp3276
S'url'
p3277
S'http://pemptousia2.primcast.com:5824/;'
p3278
sg63
Vhttp://cdn.e-radio.gr/logos/gr/mini/pemptousia.png
p3279
sg65
V
sg67
V2168
p3280
sg69
Vpemptousia.fm
p3281
ssS'993'
p3282
(dp3283
g265
S'http://shout.streamwithq.gr:4038'
p3284
sg23
V/logos/gr/mini/nologo.gif
p3285
sg14
V\u039b\u0397\u039c\u039d\u039f\u03a3
p3286
sg25
V993
p3287
sg18
V\u03a1\u03ac\u03b4\u03b9\u03bf A\u03bb\u03c6\u03b1 96
p3288
ssS'120'
p3289
(dp3290
g265
S'http://a1933.l3271921932.c32719.g.lm.akamaistream.net/D/1933/32719/v0001/reflector:21932'
p3291
sg23
V/logos/gr/mini/trito.gif
p3292
sg14
V\u0398\u0395\u03a3\u03a3\u0391\u039b\u039f\u039d\u0399\u039a\u0397
p3293
sg25
V120
p3294
sg18
V\u0395\u03a1\u03913 \u0393' \u03a0\u03c1\u03cc\u03b3\u03c1\u03b1\u03bc\u03bc\u03b1 
p3295
ssS'123'
p3296
(dp3297
g476
S'http://eco.onestreaming.com:8237/live'
p3298
sg23
V/logos/gr/mini/radio984.gif
p3299
sg14
V\u0397\u03a1\u0391\u039a\u039b\u0395\u0399\u039f
p3300
sg25
V123
p3301
sg18
VRadio 984 
p3302
ssS'124'
p3303
(dp3304
g23
V/logos/gr/mini/radiokriti.gif
p3305
sg14
V\u0397\u03a1\u0391\u039a\u039b\u0395\u0399\u039f
p3306
sg25
V124
p3307
sg18
V\u03a1\u03ac\u03b4\u03b9\u03bf \u039a\u03c1\u03ae\u03c4\u03b7 101,5
p3308
ssS'1786'
p3309
(dp3310
g265
S'http://stream.athenswinder.com:8000/athenswinder'
p3311
sg23
V/logos/gr/mini/athenswinder.gif
p3312
sg14
VINTERNET RADIO
p3313
sg25
V1786
p3314
sg18
VAthens Winder Radio 
p3315
ssS'126'
p3316
(dp3317
g476
S'http://s1.onweb.gr:8800'
p3318
sg23
V/logos/gr/mini/star888.gif
p3319
sg14
V\u039a\u0395\u03a1\u039a\u03a5\u03a1\u0391
p3320
sg25
V126
p3321
sg18
VStar Fm \u039a\u03ad\u03c1\u03ba\u03c5\u03c1\u03b1 88,8
p3322
ssS'219'
p3323
(dp3324
g265
S'http://live.onestreaming.com/christianity'
p3325
sg23
V/logos/gr/mini/christianity.gif
p3326
sg14
V\u0391\u0398\u0397\u039d\u0391
p3327
sg25
V219
p3328
sg18
V\u03a7\u03c1\u03b9\u03c3\u03c4\u03b9\u03b1\u03bd\u03b9\u03c3\u03bc\u03cc\u03c2 
p3329
ssS'14'
p3330
(dp3331
g63
Vhttp://cdn.e-radio.gr/logos/gr/mini/alchemy.png
p3332
sg65
VINTERNET RADIO
p3333
sg67
V14
p3334
sg69
VAlchemy
p3335
ssS'2009'
p3336
(dp3337
S'url'
p3338
S'http://174.142.22.74:8281'
p3339
sg23
V/logos/gr/mini/monkeygr.gif
p3340
sg14
VINTERNET RADIO
p3341
sg25
V2009
p3342
sg18
VMonkey Webradio  
p3343
ssS'1829'
p3344
(dp3345
g23
V/logos/gr/mini/leukadanews.gif
p3346
sg14
V\u039b\u0395\u03a5\u039a\u0391\u0394\u0391
p3347
sg25
V1829
p3348
sg18
V\u039b\u03b5\u03c5\u03ba\u03ac\u03b4\u03b1 News 
p3349
ssS'1828'
p3350
(dp3351
g23
V/logos/gr/mini/radioyet.gif
p3352
sg14
VINTERNET RADIO
p3353
sg25
V1828
p3354
sg18
VRadio YET 
p3355
ssS'1824'
p3356
(dp3357
g23
V/logos/gr/mini/globalgr.gif
p3358
sg14
V\u03a4\u03a1\u0399\u03a0\u039f\u039b\u0397
p3359
sg25
V1824
p3360
sg18
VGlobal Radio 
p3361
ssS'1827'
p3362
(dp3363
g265
S'http://starradio.no-ip.biz:2380'
p3364
sg23
V/logos/gr/mini/starsymi.gif
p3365
sg14
V\u03a3\u03a5\u039c\u0397
p3366
sg25
V1827
p3367
sg18
VStar Radio 106,7
p3368
ssS'1826'
p3369
(dp3370
g476
S'http://69.175.39.146:8348'
p3371
sg23
V/logos/gr/mini/manaellada.gif
p3372
sg14
VINTERNET RADIO
p3373
sg25
V1826
p3374
sg18
V\u039c\u03ac\u03bd\u03b1 \u0395\u03bb\u03bb\u03ac\u03b4\u03b1 
p3375
ssS'1821'
p3376
(dp3377
g23
V/logos/gr/mini/musiclovers.gif
p3378
sg14
VINTERNET RADIO
p3379
sg25
V1821
p3380
sg18
VMusic Lovers 
p3381
ssS'1820'
p3382
(dp3383
g23
V/logos/gr/mini/athensfm.gif
p3384
sg14
V\u0391\u0398\u0397\u039d\u0391
p3385
sg25
V1820
p3386
sg18
VAthens FM 
p3387
ssS'1823'
p3388
(dp3389
g476
S'http://uk1-vn.mixstream.net:9876'
p3390
sg23
V/logos/gr/mini/akroama978.gif
p3391
sg14
V\u039a\u0391\u0392\u0391\u039b\u0391
p3392
sg25
V1823
p3393
sg18
V\u0391\u03ba\u03c1\u03cc\u03b1\u03bc\u03b1 97,8
p3394
ssS'1822'
p3395
(dp3396
g23
V/logos/gr/mini/athens111.gif
p3397
sg14
VINTERNET RADIO
p3398
sg25
V1822
p3399
sg18
VAthens 111 FM 
p3400
ssS'2068'
p3401
(dp3402
g63
Vhttp://cdn.e-radio.gr/logos/gr/mini/magiclamp.png
p3403
sg65
V\u0391\u0398\u0397\u039d\u0391
p3404
sg67
V2068
p3405
sg69
VMagic Lamp
p3406
ssS'2146'
p3407
(dp3408
g63
Vhttp://cdn.e-radio.gr/logos/gr/mini/netbar.png
p3409
sg65
VINTERNET RADIO
p3410
sg67
V2146
p3411
sg69
VNeTBaR Radio
p3412
ssS'2145'
p3413
(dp3414
g2493
S'http://live.myloveradio.com:9914/;'
p3415
sg63
Vhttp://cdn.e-radio.gr/logos/gr/mini/nologo.png
p3416
sg65
VINTERNET RADIO
p3417
sg67
V2145
p3418
sg69
VAlter2you Greek
p3419
ssS'2144'
p3420
(dp3421
g2493
S'http://80.241.210.45:8004/;'
p3422
sg63
Vhttp://cdn.e-radio.gr/logos/gr/mini/cng.png
p3423
sg65
VINTERNET RADIO
p3424
sg67
V2144
p3425
sg69
VCNG
p3426
ssS'2143'
p3427
(dp3428
g2493
S'http://162.13.25.174/u0r4t3hv87db.mp3'
p3429
sg63
Vhttp://cdn.e-radio.gr/logos/gr/mini/toradiofonogr.png
p3430
sg65
VINTERNET RADIO
p3431
sg67
V2143
p3432
sg69
V\u03a4\u03bf \u03a1\u03b1\u03b4\u03b9\u03cc\u03c6\u03c9\u03bd\u03bf
p3433
ssS'2142'
p3434
(dp3435
g2493
S'http://46.165.220.22:8082/stream'
p3436
sg63
Vhttp://cdn.e-radio.gr/logos/gr/mini/street.png
p3437
sg65
VINTERNET RADIO
p3438
sg67
V2142
p3439
sg69
VStreet Radio
p3440
ssS'412'
p3441
(dp3442
g265
S'http://live.onestreaming.com/radioelassona'
p3443
sg23
V/logos/gr/mini/elassona.gif
p3444
sg14
V\u0395\u039b\u0391\u03a3\u03a3O\u039d\u0391
p3445
sg25
V412
p3446
sg18
VRadio \u0395\u03bb\u03b1\u03c3\u03c3\u03ce\u03bd\u03b1 88,4
p3447
ssS'413'
p3448
(dp3449
g476
S'http://rso.isolservers.com:8200'
p3450
sg23
V/logos/gr/mini/rso.gif
p3451
sg14
V\u0398\u0395\u03a3\u03a3\u0391\u039b\u039f\u039d\u0399\u039a\u0397
p3452
sg25
V413
p3453
sg18
VRSO 91,7
p3454
ssS'2060'
p3455
(dp3456
g63
Vhttp://cdn.e-radio.gr/logos/gr/mini/golden1037.png
p3457
sg65
V\u03a0\u03a4\u039f\u039bE\u039c\u0391\u03aa\u0394\u0391
p3458
sg67
V2060
p3459
sg69
VGolden Radio
p3460
ssS'2061'
p3461
(dp3462
g2493
S'http://93.104.213.209:8000/live'
p3463
sg63
Vhttp://cdn.e-radio.gr/logos/gr/mini/bside.png
p3464
sg65
VINTERNET RADIO
p3465
sg67
V2061
p3466
sg69
VB&#8211;Side
p3467
ssS'2062'
p3468
(dp3469
g2493
S'http://144.76.84.8:8048/;'
p3470
sg63
Vhttp://cdn.e-radio.gr/logos/gr/mini/imaa1063.png
p3471
sg65
V
sg67
V2062
p3472
sg69
V\u0399.\u039c. \u0391\u03b9\u03c4\u03c9\u03bb\u03af\u03b1\u03c2 \u03ba \u0391\u03ba\u03b1\u03c1\u03bd\u03b1\u03bd\u03af\u03b1\u03c2
p3473
ssS'2063'
p3474
(dp3475
g2493
S'http://ice.onestreaming.com/akousbreeze'
p3476
sg63
Vhttp://cdn.e-radio.gr/logos/gr/mini/akous_breeze.png
p3477
sg65
V\u0391\u0398\u0397\u039d\u0391
p3478
sg67
V2063
p3479
sg69
VAkous. Breeze
p3480
ssS'924'
p3481
(dp3482
g476
S'http://109.169.26.78:9294'
p3483
sg23
V/logos/gr/mini/moodradiio.gif
p3484
sg14
VINTERNET RADIO
p3485
sg25
V924
p3486
sg18
VMood Radio 
p3487
ssS'2066'
p3488
(dp3489
g2493
S'http://173.255.135.8:9380/;'
p3490
sg63
Vhttp://cdn.e-radio.gr/logos/gr/mini/venus91.png
p3491
sg65
V\u03a7\u0391\u039d\u0399\u0391
p3492
sg67
V2066
p3493
sg69
VVenus
p3494
ssS'136'
p3495
(dp3496
g476
S'http://rockradio.gr:1111'
p3497
sg23
V/logos/gr/mini/rockradio.gif
p3498
sg14
V\u0398\u0395\u03a3\u03a3\u0391\u039b\u039f\u039d\u0399\u039a\u0397
p3499
sg25
V136
p3500
sg18
VRock Radio 104,7
p3501
ssS'313'
p3502
(dp3503
g476
S'http://s1.onweb.gr:8856'
p3504
sg23
V/logos/gr/mini/kosmos100.gif
p3505
sg14
V\u03a7\u0391\u039b\u039a\u0399\u0394\u0391
p3506
sg25
V313
p3507
sg18
V\u03a1\u03ac\u03b4\u03b9\u03bf \u039a\u03cc\u03c3\u03bc\u03bf\u03c2 100
p3508
ssS'312'
p3509
(dp3510
g476
S'http://stream2.proradio.gr:8004/anemos'
p3511
sg23
V/logos/gr/mini/agriniofm937.gif
p3512
sg14
V\u0391\u0393\u03a1\u0399\u039d\u0399\u039f
p3513
sg25
V312
p3514
sg18
V\u0391\u03b3\u03c1\u03af\u03bd\u03b9\u03bf FM 93,7
p3515
ssS'311'
p3516
(dp3517
g476
S'http://193.164.131.52:8000'
p3518
sg23
V/logos/gr/mini/pirateradio.gif
p3519
sg14
V\u03a7\u0399\u039f\u03a3
p3520
sg25
V311
p3521
sg18
VPirate Radio 91
p3522
ssS'310'
p3523
(dp3524
g476
S'http://s1.onweb.gr:8838'
p3525
sg23
V/logos/gr/mini/maxfm.gif
p3526
sg14
V\u0391\u039b\u0395\u039e\u0391\u039d\u0394\u03a1\u039f\u03a5\u03a0\u039f\u039b\u0397
p3527
sg25
V310
p3528
sg18
VMaximum FM 93,6
p3529
ssS'316'
p3530
(dp3531
g23
V/logos/gr/mini/alitheia.gif
p3532
sg14
V\u03a7\u0399\u039f\u03a3
p3533
sg25
V316
p3534
sg18
VA\u03bb\u03ae\u03b8\u03b5\u03b9\u03b1 95,7
p3535
ssS'314'
p3536
(dp3537
g476
S'http://s3.onweb.gr:8032'
p3538
sg23
V/logos/gr/mini/dcode.gif
p3539
sg14
V\u03a7\u0391\u039d\u0399\u0391
p3540
sg25
V314
p3541
sg18
VD-Code 96,2
p3542
ssS'1920'
p3543
(dp3544
g265
S'http://live.onestreaming.com/just964'
p3545
sg23
V/logos/gr/mini/justr964.gif
p3546
sg14
V\u039a\u039f\u03a1\u0399\u039d\u0398\u039f\u03a3
p3547
sg25
V1920
p3548
sg18
VJust Radio 96,4
p3549
ssS'1922'
p3550
(dp3551
g23
V/logos/gr/mini/nologo.gif
p3552
sg14
V\u039a\u039f\u03a1\u0399\u039d\u0398\u039f\u03a3
p3553
sg25
V1922
p3554
sg18
VNovel 91,8
p3555
ssS'1923'
p3556
(dp3557
g23
V/logos/gr/mini/virgin1045.gif
p3558
sg14
V\u03a1\u039f\u0394\u039f\u03a3
p3559
sg25
V1923
p3560
sg18
VVirgin 104,5
p3561
ssS'1926'
p3562
(dp3563
g23
V/logos/gr/mini/facegreek.gif
p3564
sg14
VINTERNET RADIO
p3565
sg25
V1926
p3566
sg18
VFaceGreek WebRadio 
p3567
ssS'1929'
p3568
(dp3569
g476
S'http://208.43.81.168:8739/stream'
p3570
sg23
V/logos/gr/mini/mwordr.gif
p3571
sg14
VINTERNET RADIO
p3572
sg25
V1929
p3573
sg18
VM-Word Web Radio 
p3574
ssS'832'
p3575
(dp3576
g265
S'http://live.onestreaming.com/greek4u'
p3577
sg23
V/logos/gr/mini/greek4u.gif
p3578
sg14
VDUSSELDORF
p3579
sg25
V832
p3580
sg18
VGR4U 
p3581
ssS'830'
p3582
(dp3583
g265
S'http://live.onestreaming.com/radiosamos'
p3584
sg23
V/logos/gr/mini/radiosamos.gif
p3585
sg14
V\u03a3\u0391\u039c\u039f\u03a3
p3586
sg25
V830
p3587
sg18
V\u03a1\u03ac\u03b4\u03b9\u03bf \u03a3\u03ac\u03bc\u03bf\u03c2 102
p3588
ssS'831'
p3589
(dp3590
g265
S'http://live.onestreaming.com/anemosfm'
p3591
sg23
V/logos/gr/mini/anemosfm.gif
p3592
sg14
V\u03a3\u0391\u039c\u039f\u03a3
p3593
sg25
V831
p3594
sg18
V\u0391\u03bd\u03b5\u03bc\u03bf\u03c2 95,6
p3595
ssS'836'
p3596
(dp3597
g265
S'http://live.onestreaming.com/blackman'
p3598
sg23
V/logos/gr/mini/blackman.gif
p3599
sg14
VINTERNET RADIO
p3600
sg25
V836
p3601
sg18
VBlackMan 
p3602
ssS'2025'
p3603
(dp3604
g476
S'http://46.167.172.118:8800'
p3605
sg23
V/logos/gr/mini/eroradio.gif
p3606
sg14
VINTERNET RADIO
p3607
sg25
V2025
p3608
sg18
VE.R.O.radio 
p3609
ssS'838'
p3610
(dp3611
g476
S'http://eco.onestreaming.com:8324'
p3612
sg23
V/logos/gr/mini/rodonfm.gif
p3613
sg14
V\u03a3\u0395\u03a1\u03a1\u0395\u03a3
p3614
sg25
V838
p3615
sg18
V\u03a1\u03cc\u03b4\u03bf\u03bd Fm 95
p3616
ssS'839'
p3617
(dp3618
g476
S'http://s3.onweb.gr:8524'
p3619
sg23
V/logos/gr/mini/international.gif
p3620
sg14
V\u0399\u03a9\u0391\u039d\u039d\u0399\u039d\u0391
p3621
sg25
V839
p3622
sg18
VInternational 107,5
p3623
ssS'3'
(dp3624
g265
S'http://golive.onestreaming.com/velvetfm'
p3625
sg23
V/logos/gr/mini/velvet.gif
p3626
sg14
V\u0391\u0398\u0397\u039d\u0391
p3627
sg25
V3
sg18
VVelvet.Fm 
p3628
ssS'366'
p3629
(dp3630
g2493
S'http://208.43.121.133:8132/;'
p3631
sg63
Vhttp://cdn.e-radio.gr/logos/gr/mini/play915.png
p3632
sg65
V\u039e\u0391\u039d\u0398\u0397
p3633
sg67
V366
p3634
sg69
VRadio Play
p3635
ssS'365'
p3636
(dp3637
g2493
S'http://s3.onweb.gr:8500/;'
p3638
sg63
Vhttp://cdn.e-radio.gr/logos/gr/mini/nologo.png
p3639
sg65
V\u03a3\u0391\u039c\u039f\u03a3
p3640
sg67
V365
p3641
sg69
V\u0391\u03c1\u03bc\u03bf\u03bd\u03af\u03b1
p3642
ssS'360'
p3643
(dp3644
g265
S'http://62.1.195.86:2281'
p3645
sg23
V/logos/gr/mini/xiaki.gif
p3646
sg14
V\u03a7\u0399\u039f\u03a3
p3647
sg25
V360
p3648
sg18
V\u03a7\u03b9\u03b1\u03ba\u03ae \u03a6\u03c9\u03bd\u03ae 90
p3649
ssS'2023'
p3650
(dp3651
g23
V/logos/gr/mini/nologo.gif
p3652
sg14
VINTERNET RADIO
p3653
sg25
V2023
p3654
sg18
V\u0391.\u039c.\u0395.\u0391 Greek 
p3655
ssS'26'
p3656
(dp3657
g476
S'http://eco.onestreaming.com:8093'
p3658
sg23
V/logos/gr/mini/shaker.gif
p3659
sg14
V\u0398\u0395\u03a3\u03a3\u0391\u039b\u039f\u039d\u0399\u039a\u0397
p3660
sg25
V26
p3661
sg18
VShaker Radio 
p3662
ssS'446'
p3663
(dp3664
g23
V/logos/gr/mini/horizon.gif
p3665
sg14
V\u03a4\u03a1\u0399\u03a0\u039f\u039b\u0397
p3666
sg25
V446
p3667
sg18
VHorizon 96,5
p3668
ssS'861'
p3669
(dp3670
g23
V/logos/gr/mini/musicmania.gif
p3671
sg14
V\u0398\u0395\u03a3\u03a3\u0391\u039b\u039f\u039d\u0399\u039a\u0397
p3672
sg25
V861
p3673
sg18
VMusic Mania 
p3674
ssS'1831'
p3675
(dp3676
g23
V/logos/gr/mini/avrilissia.gif
p3677
sg14
V\u0391\u0398\u0397\u039d\u0391
p3678
sg25
V1831
p3679
sg18
V\u03a1\u03b1\u03b4\u03b9\u03cc\u03c6\u03c9\u03bd\u03bf \u0386\u03bd\u03c9 \u0392\u03c1\u03b9\u03bb\u03b7\u03c3\u03c3\u03af\u03c9\u03bd 
p3680
ssS'389'
p3681
(dp3682
g265
S'http://plaisioradio.live24.gr/plaisioradio'
p3683
sg23
V/logos/gr/mini/plaisioradio.gif
p3684
sg14
VINTERNET RADIO
p3685
sg25
V389
p3686
sg18
VPlaisio Radio 
p3687
ssS'785'
p3688
(dp3689
g476
S'http://s5.onweb.gr:8030'
p3690
sg23
V/logos/gr/mini/nrgdramas.gif
p3691
sg14
V\u0394\u03a1\u0391\u039c\u0391
p3692
sg25
V785
p3693
sg18
VEnergy Radio 88,9
p3694
ssS'786'
p3695
(dp3696
g476
S'http://shout.streamwithq.gr:4064'
p3697
sg23
V/logos/gr/mini/gavdosfm.gif
p3698
sg14
V\u0393\u0391Y\u0394\u039f\u03a3
p3699
sg25
V786
p3700
sg18
V\u0393\u03b1\u03cd\u03b4\u03bf\u03c2 Fm 88,8
p3701
ssS'787'
p3702
(dp3703
g476
S'http://s6.onweb.gr:8042'
p3704
sg23
V/logos/gr/mini/tichero.gif
p3705
sg14
V\u0391\u039b\u0395\u039e\u0391\u039d\u0394\u03a1\u039f\u03a5\u03a0\u039f\u039b\u0397
p3706
sg25
V787
p3707
sg18
V926FM (\u0394\u0397\u039c\u039f\u03a3 \u03a3\u039f\u03a5\u03a6\u039b\u0399\u039f\u03a5) 92,6
p3708
ssS'780'
p3709
(dp3710
g476
S'http://shout.plusradio.gr:8120'
p3711
sg23
V/logos/gr/mini/plusradio.gif
p3712
sg14
V\u0398\u0395\u03a3\u03a3\u0391\u039b\u039f\u039d\u0399\u039a\u0397
p3713
sg25
V780
p3714
sg18
VPlus Radio 102,6
p3715
ssS'781'
p3716
(dp3717
g23
V/logos/gr/mini/eugreeka.gif
p3718
sg14
VINTERNET RADIO
p3719
sg25
V781
p3720
sg18
VEugreeka Radio 
p3721
ssS'788'
p3722
(dp3723
g23
V/logos/gr/mini/max925.gif
p3724
sg14
V\u0397\u03a1\u0391\u039a\u039b\u0395\u0399\u039f
p3725
sg25
V788
p3726
sg18
VMax Fm 92,5
p3727
ssS'2029'
p3728
(dp3729
g476
S'http://eco.onestreaming.com:8284'
p3730
sg23
V/logos/gr/mini/wmusicradio.gif
p3731
sg14
VINTERNET RADIO
p3732
sg25
V2029
p3733
sg18
VW Music Radio 
p3734
ssS'1165'
p3735
(dp3736
g23
V/logos/gr/mini/wave974.gif
p3737
sg14
V\u03a0\u0391\u03a4\u03a1\u0391
p3738
sg25
V1165
p3739
sg18
VWave 97,4
p3740
ssS'900'
p3741
(dp3742
g2493
S'http://159.253.149.12:8038/;'
p3743
sg63
Vhttp://cdn.e-radio.gr/logos/gr/mini/cosmospieria.png
p3744
sg65
V\u039a\u0391\u03a4\u0395\u03a1\u0399\u039d\u0397
p3745
sg67
V900
p3746
sg69
VCosmos FM
p3747
ssS'182'
p3748
(dp3749
g265
S'http://eco.onestreaming.com:8012'
p3750
sg23
V/logos/gr/mini/feres.gif
p3751
sg14
V\u0391\u039b\u0395\u039e\u0391\u039d\u0394\u03a1\u039f\u03a5\u03a0\u039f\u039b\u0397
p3752
sg25
V182
p3753
sg18
VSferikos 99,3
p3754
ssS'61'
p3755
(dp3756
g476
S'http://uk3-vn.mixstream.net:8256'
p3757
sg23
V/logos/gr/mini/metroradio.gif
p3758
sg14
V\u0397\u03a1\u0391\u039a\u039b\u0395\u0399\u039f
p3759
sg25
V61
p3760
sg18
VMetro Radio 89,2
p3761
ssS'2192'
p3762
(dp3763
g2493
S'http://eco.onestreaming.com:8224/;'
p3764
sg63
Vhttp://cdn.e-radio.gr/logos/gr/mini/odoskapsouras.png
p3765
sg65
VINTERNET RADIO
p3766
sg67
V2192
p3767
sg69
V\u039f\u03b4\u03cc\u03c2 \u039a\u03b1\u03c8\u03bf\u03cd\u03c1\u03b1\u03c2
p3768
ssS'2193'
p3769
(dp3770
g2493
S'http://stereo.wavestreamer.com:8412/'
p3771
sg63
Vhttp://cdn.e-radio.gr/logos/gr/mini/evripos.png
p3772
sg65
V\u03a7\u0391\u039b\u039a\u0399\u0394\u0391
p3773
sg67
V2193
p3774
sg69
V\u0395\u03cd\u03c1\u03b9\u03c0\u03bf\u03c2 FM
p3775
ssS'2194'
p3776
(dp3777
g2493
S'http://eco.onestreaming.com:8444/stream'
p3778
sg63
Vhttp://cdn.e-radio.gr/logos/gr/mini/waterland.png
p3779
sg65
V\u0398\u0395\u03a3\u03a3\u0391\u039b\u039f\u039d\u0399\u039a\u0397
p3780
sg67
V2194
p3781
sg69
VWaterland Radio
p3782
ssS'2197'
p3783
(dp3784
g63
Vhttp://cdn.e-radio.gr/logos/gr/mini/noteswebgr.png
p3785
sg65
VINTERNET RADIO
p3786
sg67
V2197
p3787
sg69
V\u039d\u03cc\u03c4\u03b5\u03c2
p3788
ssS'252'
p3789
(dp3790
g476
S'http://eco.onestreaming.com:8272'
p3791
sg23
V/logos/gr/mini/flyradio.gif
p3792
sg14
V\u03a3\u03a0\u0391\u03a1\u03a4\u0397
p3793
sg25
V252
p3794
sg18
VFly Radio 89,7
p3795
ssS'2199'
p3796
(dp3797
g2493
S'http://159.253.149.12:8010/;'
p3798
sg63
Vhttp://cdn.e-radio.gr/logos/gr/mini/scream1063.png
p3799
sg65
V\u039a\u039f\u0396\u0391\u039d\u0397
p3800
sg67
V2199
p3801
sg69
VScream
p3802
ssS'256'
p3803
(dp3804
g476
S'http://46.4.65.194:8011'
p3805
sg23
V/logos/gr/mini/stylefm.gif
p3806
sg14
V\u0391\u03a1\u0393\u039f\u03a3
p3807
sg25
V256
p3808
sg18
VStyle Fm 89,6
p3809
ssS'2200'
p3810
(dp3811
g2493
S'http://144.76.136.24:7143/;'
p3812
sg63
Vhttp://cdn.e-radio.gr/logos/gr/mini/soldoutevents.png
p3813
sg65
VINTERNET RADIO
p3814
sg67
V2200
p3815
sg69
VSold-Out Events Radio
p3816
ssS'2201'
p3817
(dp3818
g2493
S'http://eco.onestreaming.com:8512/;'
p3819
sg63
Vhttp://cdn.e-radio.gr/logos/gr/mini/tntbet.png
p3820
sg65
VINTERNET RADIO
p3821
sg67
V2201
p3822
sg69
VTNT BET
p3823
ssS'2203'
p3824
(dp3825
g2493
S'http://streaming.radionomy.com/Hot40Music'
p3826
sg63
Vhttp://cdn.e-radio.gr/logos/gr/mini/hot40music.png
p3827
sg65
VINTERNET RADIO
p3828
sg67
V2203
p3829
sg69
VHot40Music.com
p3830
ssS'1172'
p3831
(dp3832
g265
S'http://live.onestreaming.com/soundelectronic'
p3833
sg23
V/logos/gr/mini/soundelectronic.gif
p3834
sg14
VINTERNET RADIO
p3835
sg25
V1172
p3836
sg18
VSound Electronic 
p3837
ssS'405'
p3838
(dp3839
g63
Vhttp://cdn.e-radio.gr/logos/gr/mini/bossfm.png
p3840
sg65
V\u03a7\u0391\u039b\u039a\u0399\u0394\u0391
p3841
sg67
V405
p3842
sg69
VBoss FM
p3843
ssS'731'
p3844
(dp3845
g265
S'http://radiogamma.live24.gr/radiogamma'
p3846
sg23
V/logos/gr/mini/radiogamma.gif
p3847
sg14
V\u03a0\u0391\u03a4\u03a1\u0391
p3848
sg25
V731
p3849
sg18
V\u03a1\u03ac\u03b4\u03b9\u03bf \u0393\u03ac\u03bc\u03bc\u03b1 94
p3850
ssS'730'
p3851
(dp3852
g23
V/logos/gr/mini/vimafm.gif
p3853
sg14
V\u0399\u03a9\u0391\u039d\u039d\u0399\u039d\u0391
p3854
sg25
V730
p3855
sg18
V\u0392\u03ae\u03bc\u03b1 Fm 90,1
p3856
ssS'733'
p3857
(dp3858
g23
V/logos/gr/mini/stoxosfm.gif
p3859
sg14
V\u0398\u0391\u03a3\u039f\u03a3
p3860
sg25
V733
p3861
sg18
V\u03a3\u03c4\u03cc\u03c7\u03bf\u03c2 Fm 98,9
p3862
ssS'938'
p3863
(dp3864
g265
S'http://live.onestreaming.com/alexandria'
p3865
sg23
V/logos/gr/mini/alexandria.gif
p3866
sg14
V\u0391\u039b\u0395\u039e\u0391\u039d\u0394\u03a1\u0395\u0399\u0391
p3867
sg25
V938
p3868
sg18
V\u03a1\u03ac\u03b4\u03b9\u03bf \u0391\u03bb\u03b5\u03be\u03ac\u03bd\u03b4\u03c1\u03b5\u03b9\u03b1 97,7
p3869
ssS'737'
p3870
(dp3871
g476
S'http://95.211.4.241:8004'
p3872
sg23
V/logos/gr/mini/bravo.gif
p3873
sg14
V\u0396\u0391\u039a\u03a5\u039d\u0398\u039f\u03a3
p3874
sg25
V737
p3875
sg18
VBravo 89,6
p3876
ssS'736'
p3877
(dp3878
g476
S'http://94.23.159.115:8088'
p3879
sg23
V/logos/gr/mini/safari1047.gif
p3880
sg14
V\u0399\u03a9\u0391\u039d\u039d\u0399\u039d\u0391
p3881
sg25
V736
p3882
sg18
VSafari 104,7
p3883
ssS'1032'
p3884
(dp3885
g265
S'http://legacy-100-ams.servers.mediacdn.com/metrovolos882'
p3886
sg23
V/logos/gr/mini/metrofmvolos.gif
p3887
sg14
V\u0392\u039f\u039b\u039f\u03a3
p3888
sg25
V1032
p3889
sg18
V\u039c\u03b5\u03c4\u03c1\u03cc FM 88,2
p3890
ssS'1033'
p3891
(dp3892
g2493
S'http://193.34.144.63:61263/;'
p3893
sg63
Vhttp://cdn.e-radio.gr/logos/gr/mini/nologo.png
p3894
sg65
V\u0392\u039f\u039b\u039f\u03a3
p3895
sg67
V1033
p3896
sg69
VStar FM
p3897
ssS'504'
p3898
(dp3899
g476
S'http://78.46.37.77:8001/stream'
p3900
sg23
V/logos/gr/mini/radioevros.gif
p3901
sg14
V\u039f\u03a1\u0395\u03a3\u03a4\u0399\u0391\u0394\u0391
p3902
sg25
V504
p3903
sg18
VRadio Evros 97,1
p3904
ssS'1031'
p3905
(dp3906
g476
S'http://eco.onestreaming.com:8019'
p3907
sg23
V/logos/gr/mini/monaxikidiakonia.gif
p3908
sg14
V\u0392\u039f\u039b\u039f\u03a3
p3909
sg25
V1031
p3910
sg18
V\u039c\u03bf\u03bd\u03b1\u03c7\u03b9\u03ba\u03ae \u0394\u03b9\u03b1\u03ba\u03bf\u03bd\u03af\u03b1 87,5
p3911
ssS'503'
p3912
(dp3913
g23
V/logos/gr/mini/loungemotion.gif
p3914
sg14
VINTERNET RADIO
p3915
sg25
V503
p3916
sg18
VLounge MotionFm 
p3917
ssS'500'
p3918
(dp3919
g2493
S'http://sportfm-cyprus.live24.gr/sportfm-cyprus'
p3920
sg63
Vhttp://cdn.e-radio.gr/logos/cy/mini/sportfm.png
p3921
sg65
V\u039b\u0395\u03a5\u039a\u03a9\u03a3\u0399\u0391
p3922
sg67
V500
p3923
sg69
VSuperSport
p3924
ssS'2151'
p3925
(dp3926
g2493
S'http://37.187.90.121:3080/;'
p3927
sg63
Vhttp://cdn.e-radio.gr/logos/gr/mini/recordon.png
p3928
sg65
VINTERNET RADIO
p3929
sg67
V2151
p3930
sg69
VRecord On
p3931
ssS'630'
p3932
(dp3933
g476
S'http://95.211.4.241:8006'
p3934
sg23
V/logos/gr/mini/islandfm.gif
p3935
sg14
V\u0396\u0391\u039a\u03a5\u039d\u0398\u039f\u03a3
p3936
sg25
V630
p3937
sg18
VIsland Fm 88,6
p3938
ssS'631'
p3939
(dp3940
g265
S'http://live.onestreaming.com/city93'
p3941
sg23
V/logos/gr/mini/city93.gif
p3942
sg14
V\u039a\u03a9\u03a3
p3943
sg25
V631
p3944
sg18
VCity 93
p3945
ssS'632'
p3946
(dp3947
g2493
S'http://eco.onestreaming.com:8418/;'
p3948
sg63
Vhttp://cdn.e-radio.gr/logos/gr/mini/arenasports.png
p3949
sg65
V\u0398\u0395\u03a3\u03a3\u0391\u039b\u039f\u039d\u0399\u039a\u0397
p3950
sg67
V632
p3951
sg69
VArena Sports
p3952
ssS'1211'
p3953
(dp3954
g265
S'http://live.onestreaming.com/hitfm1035'
p3955
sg23
V/logos/gr/mini/hitfm1035.gif
p3956
sg14
V\u03a7\u0391\u039b\u039a\u0399\u0394\u0391
p3957
sg25
V1211
p3958
sg18
VHit FM 103,5
p3959
ssS'469'
p3960
(dp3961
g476
S'http://live-stream.all-host.gr:8316'
p3962
sg23
V/logos/gr/mini/ixosfm.gif
p3963
sg14
V\u03a1\u0395\u0398\u03a5\u039c\u039d\u039f
p3964
sg25
V469
p3965
sg18
V\u0389\u03c7\u03bf\u03c2 Fm 94,2
p3966
ssS'401'
p3967
(dp3968
g23
V/logos/gr/mini/motionfm.gif
p3969
sg14
VINTERNET RADIO
p3970
sg25
V401
p3971
sg18
VMotion Fm 
p3972
ssS'636'
p3973
(dp3974
g476
S'http://eco.onestreaming.com:8010'
p3975
sg23
V/logos/gr/mini/thrakifm.gif
p3976
sg14
V\u0391\u039b\u0395\u039e\u0391\u039d\u0394\u03a1\u039f\u03a5\u03a0\u039f\u039b\u0397
p3977
sg25
V636
p3978
sg18
V\u0398\u03c1\u03ac\u03ba\u03b7 Fm 99,8
p3979
ssS'1215'
p3980
(dp3981
g476
S'http://s3.onweb.gr:8464'
p3982
sg23
V/logos/gr/mini/rythmos946.gif
p3983
sg14
V\u039b\u0391\u039c\u0399\u0391
p3984
sg25
V1215
p3985
sg18
V\u03a1\u03c5\u03b8\u03bc\u03cc\u03c2 94,6
p3986
ssS'465'
p3987
(dp3988
g23
V/logos/gr/mini/rsa.gif
p3989
sg14
V\u0391\u039c\u0391\u039b\u0399\u0391\u0394\u0391
p3990
sg25
V465
p3991
sg18
VRSA 91,1
p3992
ssS'1218'
p3993
(dp3994
g476
S'http://radio.radionova.gr:8000/lamia-fm-1'
p3995
sg23
V/logos/gr/mini/lamiafm1.gif
p3996
sg14
V\u039b\u0391\u039c\u0399\u0391
p3997
sg25
V1218
p3998
sg18
V\u039b\u03b1\u03bc\u03af\u03b1 FM 1 96,2
p3999
ssS'927'
p4000
(dp4001
g476
S'http://psychoradio.servemp3.com'
p4002
sg23
V/logos/gr/mini/psychoradio.gif
p4003
sg14
VINTERNET RADIO
p4004
sg25
V927
p4005
sg18
VPsycho Radio 
p4006
ssS'2044'
p4007
(dp4008
S'url'
p4009
S'http://listen.radionomy.com/eyeonyou'
p4010
sg63
Vhttp://cdn.e-radio.gr/logos/gr/mini/eyeonyou.png
p4011
sg65
V\u03a0\u0391\u03a4\u03a1\u0391
p4012
sg67
V2044
p4013
sg69
VEyeonyou Radio 
p4014
ssS'1861'
p4015
(dp4016
g23
V/logos/gr/mini/inathensrock.gif
p4017
sg14
VINTERNET RADIO
p4018
sg25
V1861
p4019
sg18
VIn Athens Rock Radio 
p4020
ssS'2015'
p4021
(dp4022
g23
V/logos/gr/mini/mirror.gif
p4023
sg14
VINTERNET RADIO
p4024
sg25
V2015
p4025
sg18
VMirror Radio 
p4026
ssS'1848'
p4027
(dp4028
g63
Vhttp://cdn.e-radio.gr/logos/cy/mini/blueradiocy.png
p4029
sg65
VINTERNET RADIO CY
p4030
sg67
V1848
p4031
sg69
VBlue Radio
p4032
ssS'169'
p4033
(dp4034
g265
S'http://live.onestreaming.com/paradiseradio'
p4035
sg23
V/logos/gr/mini/paradise.gif
p4036
sg14
V\u039e\u0391\u039d\u0398\u0397
p4037
sg25
V169
p4038
sg18
VParadise 90,3
p4039
ssS'1866'
p4040
(dp4041
g476
S'http://live.onestreaming.com/ellinadikofm'
p4042
sg23
V/logos/gr/mini/ellinadikofm.gif
p4043
sg14
VINTERNET RADIO
p4044
sg25
V1866
p4045
sg18
V\u0395\u03bb\u03bb\u03b7\u03bd\u03ac\u03b4\u03b9\u03ba\u03bf FM 
p4046
ssS'1869'
p4047
(dp4048
g476
S'http://eco.onestreaming.com:8059/stream'
p4049
sg23
V/logos/gr/mini/akous_myclassic.gif
p4050
sg14
VINTERNET RADIO
p4051
sg25
V1869
p4052
sg18
VAkous. My Classic 
p4053
ssS'2042'
p4054
(dp4055
g2493
S'http://66.55.144.67:8029/stream'
p4056
sg63
Vhttp://cdn.e-radio.gr/logos/gr/mini/radiomaga.png
p4057
sg65
VINTERNET RADIO
p4058
sg67
V2042
p4059
sg69
VRadio Maga
p4060
ssS'160'
p4061
(dp4062
g2493
S'http://live.onestreaming.com/sport1'
p4063
sg63
Vhttp://cdn.e-radio.gr/logos/cy/mini/sports1.png
p4064
sg65
V\u039b\u0395\u03a5\u039a\u03a9\u03a3\u0399\u0391
p4065
sg67
V160
p4066
sg69
VSports1
p4067
ssS'2017'
p4068
(dp4069
g476
S'http://95.211.7.35:8000'
p4070
sg23
V/logos/gr/mini/sykofantis.gif
p4071
sg14
VINTERNET RADIO
p4072
sg25
V2017
p4073
sg18
V\u03a3\u03c5\u03ba\u03bf\u03c6\u03ac\u03bd\u03c4\u03b7\u03c2 \u039c\u03c0\u03b1\u03c3\u03c4\u03bf\u03cd\u03bd\u03b9 
p4074
ssS'162'
p4075
(dp4076
g2493
S'http://livecy.onestreaming.com/zenith'
p4077
sg63
Vhttp://cdn.e-radio.gr/logos/cy/mini/zenith.png
p4078
sg65
V\u039b\u0395\u03a5\u039a\u03a9\u03a3\u0399\u0391
p4079
sg67
V162
p4080
sg69
V\u0396\u03b5\u03bd\u03af\u03b8
p4081
ssS'964'
p4082
(dp4083
g63
Vhttp://cdn.e-radio.gr/logos/gr/mini/radiolesvos.png
p4084
sg65
V\u039c\u03a5\u03a4\u0399\u039b\u0397\u039d\u0397
p4085
sg67
V964
p4086
sg69
V\u03a1\u03ac\u03b4\u03b9\u03bf \u039b\u03ad\u03c3\u03b2\u03bf\u03c2
p4087
ssS'960'
p4088
(dp4089
g476
S'http://eco.onestreaming.com:8166'
p4090
sg23
V/logos/gr/mini/entexnosfm.gif
p4091
sg14
V\u03a0\u0391\u03a4\u03a1\u0391
p4092
sg25
V960
p4093
sg18
V\u03a1\u03ac\u03b4\u03b9\u03bf \u0395\u03bd\u03c4\u03b5\u03c7\u03bd\u03bf\u03c2 
p4094
ssS'961'
p4095
(dp4096
g23
V/logos/gr/mini/melodia1027.gif
p4097
sg14
V\u03a1\u0395\u0398\u03a5\u039c\u039d\u039f
p4098
sg25
V961
p4099
sg18
V\u039c\u03b5\u03bb\u03c9\u03b4\u03af\u03b1 102,7
p4100
ssS'962'
p4101
(dp4102
g23
V/logos/gr/mini/loveioan.gif
p4103
sg14
V\u0399\u03a9\u0391\u039d\u039d\u0399\u039d\u0391
p4104
sg25
V962
p4105
sg18
VLove Radio 97,2
p4106
ssS'963'
p4107
(dp4108
g265
S'http://hotfm.live24.gr/shock'
p4109
sg23
V/logos/gr/mini/hotfmathens.gif
p4110
sg14
V\u0391\u0398\u0397\u039d\u0391
p4111
sg25
V963
p4112
sg18
VHot Fm 
p4113
ssS'2011'
p4114
(dp4115
g476
S'http://eco.onestreaming.com:8300'
p4116
sg23
V/logos/gr/mini/erotiaris.gif
p4117
sg14
VINTERNET RADIO
p4118
sg25
V2011
p4119
sg18
V\u0395\u03c1\u03c9\u03c4\u03b9\u03ac\u03c1\u03b7\u03c2 
p4120
ssS'2041'
p4121
(dp4122
g63
Vhttp://cdn.e-radio.gr/logos/gr/mini/mufa.png
p4123
sg65
V\u0398\u0395\u03a3\u03a3\u0391\u039b\u039f\u039d\u0399\u039a\u0397
p4124
sg67
V2041
p4125
sg69
VMuFa
p4126
ssS'2159'
p4127
(dp4128
g2493
S'http://162.13.25.174/ktuq17mkb.mp3'
p4129
sg63
Vhttp://cdn.e-radio.gr/logos/gr/mini/muzicgr.png
p4130
sg65
VINTERNET RADIO
p4131
sg67
V2159
p4132
sg69
VMuZic Radio
p4133
ssS'1106'
p4134
(dp4135
g63
Vhttp://cdn.e-radio.gr/logos/gr/mini/paggaionet.png
p4136
sg65
VINTERNET RADIO
p4137
sg67
V1106
p4138
sg69
VPaggaionet
p4139
ssS'2109'
p4140
(dp4141
g462
S'http://s4.onweb.gr:8850/;'
p4142
sg63
Vhttp://cdn.e-radio.gr/logos/gr/mini/larissadeejay.png
p4143
sg65
V\u039b\u0391\u03a1\u0399\u03a3\u0391
p4144
sg67
V2109
p4145
sg69
VLarissa DeeJay
p4146
ssS'2108'
p4147
(dp4148
g462
S'http://s4.onweb.gr:8892/;'
p4149
sg63
Vhttp://cdn.e-radio.gr/logos/gr/mini/rythmostrikala.png
p4150
sg65
V\u03a4\u03a1\u0399\u039a\u0391\u039b\u0391
p4151
sg67
V2108
p4152
sg69
V\u03a1\u03c5\u03b8\u03bc\u03cc\u03c2
p4153
ssS'2013'
p4154
(dp4155
g265
S'http://live.onestreaming.com/apopsi'
p4156
sg23
V/logos/gr/mini/apopsi.gif
p4157
sg14
V\u039a\u0391\u039b\u0391\u039c\u0391\u03a4\u0391
p4158
sg25
V2013
p4159
sg18
V\u03a1\u03ac\u03b4\u03b9\u03bf \u0391\u03c0\u03bf\u03c8\u03b7 
p4160
ssS'2103'
p4161
(dp4162
g63
Vhttp://cdn.e-radio.gr/logos/gr/mini/enterfm.png
p4163
sg65
VINTERNET RADIO
p4164
sg67
V2103
p4165
sg69
VEnter FM
p4166
ssS'2101'
p4167
(dp4168
S'url'
p4169
S'http://listen.radionomy.com/psychiatry-online-radio'
p4170
sg63
Vhttp://cdn.e-radio.gr/logos/gr/mini/nologo.png
p4171
sg65
VINTERNET RADIO
p4172
sg67
V2101
p4173
sg69
VPsychiatry Online Radio
p4174
ssS'2100'
p4175
(dp4176
g61
S'http://hroma1058thess.live24.gr/hroma1058thess'
p4177
sg63
Vhttp://cdn.e-radio.gr/logos/gr/mini/chroma1058.png
p4178
sg65
V\u0398\u0395\u03a3\u03a3\u0391\u039b\u039f\u039d\u0399\u039a\u0397
p4179
sg67
V2100
p4180
sg69
V\u03a7\u03c1\u03ce\u03bc\u03b1
p4181
ssS'2107'
p4182
(dp4183
g63
Vhttp://cdn.e-radio.gr/logos/cy/mini/powercyprus.png
p4184
sg65
VINTERNET RADIO
p4185
sg67
V2107
p4186
sg69
VPower Radio Cyprus
p4187
ssS'2106'
p4188
(dp4189
g4169
S'http://streaming204.radionomy.com/Error-Radio'
p4190
sg63
Vhttp://cdn.e-radio.gr/logos/gr/mini/error.png
p4191
sg65
VINTERNET RADIO
p4192
sg67
V2106
p4193
sg69
VError Radio
p4194
ssS'2105'
p4195
(dp4196
g236
S'http://s4.onweb.gr:8832/;'
p4197
sg63
Vhttp://cdn.e-radio.gr/logos/gr/mini/rythmoskerkyra.png
p4198
sg65
V\u039a\u0395\u03a1\u039a\u03a5\u03a1\u0391
p4199
sg67
V2105
p4200
sg69
V\u03a1\u03c5\u03b8\u03bc\u03cc\u03c2
p4201
ssS'2104'
p4202
(dp4203
g4169
S'http://s15.myradiostream.com:14662/;'
p4204
sg63
Vhttp://cdn.e-radio.gr/logos/gr/mini/voreini.png
p4205
sg65
VINTERNET RADIO
p4206
sg67
V2104
p4207
sg69
V\u0392\u03bf\u03c1\u03b5\u03b9\u03bd\u03ae Radio
p4208
ssS'904'
p4209
(dp4210
g679
S'http://eco.onestreaming.com:8238'
p4211
sg23
V/logos/gr/mini/sferaargolida.gif
p4212
sg14
V\u039d\u0391\u03a5\u03a0\u039b\u0399\u039f
p4213
sg25
V904
p4214
sg18
VSfera 94,1
p4215
ssS'1840'
p4216
(dp4217
g476
S'http://eco.onestreaming.com:8014/live'
p4218
sg23
V/logos/gr/mini/bleepradio.gif
p4219
sg14
VINTERNET RADIO
p4220
sg25
V1840
p4221
sg18
VBleep Radio 
p4222
ssS'635'
p4223
(dp4224
g265
S'http://live.onestreaming.com/toxotis'
p4225
sg23
V/logos/gr/mini/toxotisfm.gif
p4226
sg14
V\u0393\u0399\u0391\u039d\u039d\u0399\u03a4\u03a3\u0391
p4227
sg25
V635
p4228
sg18
V\u03a4\u03bf\u03be\u03cc\u03c4\u03b7\u03c2 96,3
p4229
ssS'37'
p4230
(dp4231
g4169
S'http://eco.onestreaming.com:8031/;'
p4232
sg63
Vhttp://cdn.e-radio.gr/logos/gr/mini/powerkaterini.png
p4233
sg65
V\u039a\u0391\u03a4\u0395\u03a1\u0399\u039d\u0397
p4234
sg67
V37
p4235
sg69
VPower FM
p4236
ssS'35'
p4237
(dp4238
g476
S'http://s5.onweb.gr:8504'
p4239
sg23
V/logos/gr/mini/farosfm.gif
p4240
sg14
V\u03a3\u03a5\u03a1\u039f\u03a3
p4241
sg25
V35
p4242
sg18
V\u03a6\u03ac\u03c1\u03bf\u03c2 Fm 104
p4243
ssS'1895'
p4244
(dp4245
g476
S'http://174.36.237.66:9878'
p4246
sg23
V/logos/gr/mini/extremeradionet.gif
p4247
sg14
VINTERNET RADIO
p4248
sg25
V1895
p4249
sg18
VExtreme Radio 
p4250
ssS'678'
p4251
(dp4252
g23
V/logos/gr/mini/danceradio.gif
p4253
sg14
VINTERNET RADIO
p4254
sg25
V678
p4255
sg18
VDance Radio 
p4256
ssS'1158'
p4257
(dp4258
g63
Vhttp://cdn.e-radio.gr/logos/gr/mini/nologo.png
p4259
sg65
V\u03a0\u0391\u03a4\u03a1\u0391
p4260
sg67
V1158
p4261
sg69
V\u039c\u03cd\u03b8\u03bf\u03c2 FM
p4262
ssS'1814'
p4263
(dp4264
g476
S'http://www.ghostradio.gr/world-128'
p4265
sg23
V/logos/gr/mini/ghost.gif
p4266
sg14
VINTERNET RADIO
p4267
sg25
V1814
p4268
sg18
VGhost Radio 
p4269
ssS'1817'
p4270
(dp4271
g23
V/logos/gr/mini/nexus.gif
p4272
sg14
VINTERNET RADIO
p4273
sg25
V1817
p4274
sg18
VNexus Productions Radio 
p4275
ssS'1810'
p4276
(dp4277
g476
S'http://sc.greekstream.net:4024'
p4278
sg23
V/logos/gr/mini/camelot.gif
p4279
sg14
V\u039a\u03a5\u0398\u0397\u03a1\u0391
p4280
sg25
V1810
p4281
sg18
VCamelot 100,8
p4282
ssS'1811'
p4283
(dp4284
g476
S'http://85.17.174.142:10300'
p4285
sg23
V/logos/gr/mini/mouspan1008new.gif
p4286
sg14
V\u039a\u0391\u03a4\u0395\u03a1\u0399\u039d\u0397
p4287
sg25
V1811
p4288
sg18
V\u039c\u03bf\u03c5\u03c3\u03b9\u03ba\u03cc \u03a0\u03b1\u03bd\u03cc\u03c1\u03b1\u03bc\u03b1 100,8
p4289
ssS'1812'
p4290
(dp4291
g1824
S'http://85.25.139.27:9100'
p4292
sg23
V/logos/gr/mini/oxygono1066.gif
p4293
sg14
V\u039b\u0391\u03a1\u0399\u03a3\u0391
p4294
sg25
V1812
p4295
sg18
V\u039f\u039e\u03a5\u0393\u039f\u039d\u039f 106+6 106,6
p4296
ssS'1813'
p4297
(dp4298
g476
S'http://s1.onweb.gr:8828'
p4299
sg23
V/logos/gr/mini/energeia1064.gif
p4300
sg14
V\u039a\u039f\u03a1\u0399\u039d\u0398\u039f\u03a3
p4301
sg25
V1813
p4302
sg18
V\u03a1\u0391\u0394\u0399\u039f \u0395\u039d\u0395\u03a1\u0393\u0395\u0399\u0391 106,4
p4303
ssS'876'
p4304
(dp4305
g23
V/logos/gr/mini/ixoslarisa.gif
p4306
sg14
V\u039b\u0391\u03a1\u0399\u03a3\u0391
p4307
sg25
V876
p4308
sg18
V\u0397\u03c7\u03bf\u03c2 91
p4309
ssS'877'
p4310
(dp4311
g265
S'http://50.7.243.50:8127'
p4312
sg23
V/logos/gr/mini/energy934.gif
p4313
sg14
V\u03a0\u03a1\u0395\u0392\u0395\u0396\u0391
p4314
sg25
V877
p4315
sg18
VEnergy 93,4
p4316
ssS'874'
p4317
(dp4318
g476
S'http://eco.onestreaming.com:8400'
p4319
sg23
V/logos/gr/mini/yparxo.gif
p4320
sg14
V\u0391\u039b\u0395\u039e\u0391\u039d\u0394\u03a1\u039f\u03a5\u03a0\u039f\u039b\u0397
p4321
sg25
V874
p4322
sg18
V\u03a5\u03c0\u03ac\u03c1\u03c7\u03c9 101,4
p4323
ssS'875'
p4324
(dp4325
g476
S'http://s5.onweb.gr:8502'
p4326
sg23
V/logos/gr/mini/diavloskarditsas.gif
p4327
sg14
V\u039a\u0391\u03a1\u0394\u0399\u03a4\u03a3\u0391
p4328
sg25
V875
p4329
sg18
V\u0394\u03af\u03b1\u03c5\u03bb\u03bf\u03c2 \u039a\u03b1\u03c1\u03b4\u03af\u03c4\u03c3\u03b1\u03c2 
p4330
ssS'872'
p4331
(dp4332
g265
S'http://live.onestreaming.com/erk'
p4333
sg23
V/logos/gr/mini/erk.gif
p4334
sg14
V\u039a\u0395\u03a6\u0391\u039b\u039b\u039f\u039d\u0399\u0391
p4335
sg25
V872
p4336
sg18
V\u0395\u03bb\u03b5\u03cd\u03b8\u03b5\u03c1\u03b7 \u03a1\u03b1\u03b4\u03b9\u03bf\u03c6\u03c9\u03bd\u03af\u03b1 \u039a\u03b5\u03c6\u03b1\u03bb\u03bb\u03bf\u03bd\u03b9\u03ac 93,9
p4337
ssS'873'
p4338
(dp4339
g476
S'http://eco.onestreaming.com:8131'
p4340
sg23
V/logos/gr/mini/statusradio.gif
p4341
sg14
V\u0391\u039b\u0395\u039e\u0391\u039d\u0394\u03a1\u039f\u03a5\u03a0\u039f\u039b\u0397
p4342
sg25
V873
p4343
sg18
VStatus 94,2
p4344
ssS'870'
p4345
(dp4346
g4169
S'http://eco.onestreaming.com:8400/;'
p4347
sg63
Vhttp://cdn.e-radio.gr/logos/gr/mini/raceradio.png
p4348
sg65
VINTERNET RADIO
p4349
sg67
V870
p4350
sg69
VRaceRadio
p4351
ssS'871'
p4352
(dp4353
g476
S'http://eco.onestreaming.com:8152/stream'
p4354
sg23
V/logos/gr/mini/actionradio.gif
p4355
sg14
V\u039a\u039f\u039d\u0399\u03a4\u03a3\u0391
p4356
sg25
V871
p4357
sg18
VAction Radio 98,2
p4358
ssS'2037'
p4359
(dp4360
g63
Vhttp://cdn.e-radio.gr/logos/gr/mini/playroomcafe.png
p4361
sg65
VINTERNET RADIO
p4362
sg67
V2037
p4363
sg69
VPlayroom Cafe
p4364
ssS'2035'
p4365
(dp4366
g63
Vhttp://cdn.e-radio.gr/logos/gr/mini/crashradiogr.png
p4367
sg65
VINTERNET RADIO
p4368
sg67
V2035
p4369
sg69
VCrash Radio
p4370
ssS'2034'
p4371
(dp4372
g63
Vhttp://cdn.e-radio.gr/logos/gr/mini/musikings.png
p4373
sg65
VINTERNET RADIO
p4374
sg67
V2034
p4375
sg69
VMusikings
p4376
ssS'2033'
p4377
(dp4378
g63
Vhttp://cdn.e-radio.gr/logos/gr/mini/rplay.png
p4379
sg65
V\u0398\u0395\u03a3\u03a3\u0391\u039b\u039f\u039d\u0399\u039a\u0397
p4380
sg67
V2033
p4381
sg69
VRplay
p4382
ssS'2031'
p4383
(dp4384
g63
Vhttp://cdn.e-radio.gr/logos/gr/mini/pcpolis.png
p4385
sg65
VINTERNET RADIO
p4386
sg67
V2031
p4387
sg69
VPC \u03c0\u03cc\u03bb\u03b9\u03c2
p4388
ssS'2030'
p4389
(dp4390
g4169
S'http://stream-push2.live24.gr/dromoscyprus'
p4391
sg63
Vhttp://cdn.e-radio.gr/logos/cy/mini/dromosfmcy.png
p4392
sg65
V\u039b\u0395\u03a5\u039a\u03a9\u03a3\u0399\u0391
p4393
sg67
V2030
p4394
sg69
V\u0394\u03c1\u03cc\u03bc\u03bf\u03c2
p4395
ssS'9'
(dp4396
g4169
S'http://ice.onestreaming.com/athenspartyrnb'
p4397
sg63
Vhttp://cdn.e-radio.gr/logos/gr/mini/athenspartyrnb.png
p4398
sg65
V\u0391\u0398\u0397\u039d\u0391
p4399
sg67
V9
sg69
VAthens Party RNB
p4400
ssS'1893'
p4401
(dp4402
g23
V/logos/gr/mini/nologo.gif
p4403
sg14
VINTERNET RADIO
p4404
sg25
V1893
p4405
sg18
VMAXRADIO 
p4406
ssS'2039'
p4407
(dp4408
g63
Vhttp://cdn.e-radio.gr/logos/gr/mini/nologo.png
p4409
sg65
V\u0391\u0398\u0397\u039d\u0391
p4410
sg67
V2039
p4411
sg69
V\u03a0\u03b1\u03bd\u03b9\u03ba\u03cc\u03c2 FM
p4412
ssS'2038'
p4413
(dp4414
g63
Vhttp://cdn.e-radio.gr/logos/cy/mini/supergold.png
p4415
sg65
VINTERNET RADIO
p4416
sg67
V2038
p4417
sg69
VSuper Gold 
p4418
ssS'890'
p4419
(dp4420
g23
V/logos/gr/mini/nologo.gif
p4421
sg14
V\u0391\u0398\u0397\u039d\u0391
p4422
sg25
V890
p4423
sg18
VAstro Fm 99,8
p4424
ssS'893'
p4425
(dp4426
S'url'
p4427
S'http://72.167.42.69:88/radiomartyria'
p4428
sg63
Vhttp://cdn.e-radio.gr/logos/gr/mini/radiomartyria.png
p4429
sg65
V\u03a7\u0391\u039d\u0399\u0391
p4430
sg67
V893
p4431
sg69
V\u03a1\u03ac\u03b4\u03b9\u03bf \u039c\u03b1\u03c1\u03c4\u03c5\u03c1\u03af\u03b1
p4432
ssS'894'
p4433
(dp4434
g476
S'http://eco.onestreaming.com:8266'
p4435
sg23
V/logos/gr/mini/hxoioan.gif
p4436
sg14
V\u0399\u03a9\u0391\u039d\u039d\u0399\u039d\u0391
p4437
sg25
V894
p4438
sg18
VHxo Fm 102,7
p4439
ssS'647'
p4440
(dp4441
g476
S'http://s4.onweb.gr:8468'
p4442
sg23
V/logos/gr/mini/radiolehovo.gif
p4443
sg14
V\u03a6\u039b\u03a9\u03a1\u0399\u039d\u0391
p4444
sg25
V647
p4445
sg18
V\u03a1\u03ac\u03b4\u03b9\u03bf \u039b\u03ad\u03c7\u03bf\u03b2\u03bf 97,1
p4446
ssS'897'
p4447
(dp4448
g265
S'http://golive.onestreaming.com/astraradio'
p4449
sg23
V/logos/gr/mini/astraradio.gif
p4450
sg14
V\u039c\u03a5\u03a4\u0399\u039b\u0397\u039d\u0397
p4451
sg25
V897
p4452
sg18
VAstra Radio 93,2
p4453
ssS'899'
p4454
(dp4455
g265
S'http://live.onestreaming.com/magiafm'
p4456
sg23
V/logos/gr/mini/magiafm.gif
p4457
sg14
V\u0391\u03a3\u03a4\u0391\u039a\u039f\u03a3
p4458
sg25
V899
p4459
sg18
VMagia Fm 
p4460
ssS'2165'
p4461
(dp4462
g4427
S'http://46.165.195.133:8145/;'
p4463
sg63
Vhttp://cdn.e-radio.gr/logos/cy/mini/politiafamagusta.png
p4464
sg65
VFAMAGUSTA
p4465
sg67
V2165
p4466
sg69
V\u03a0\u03bf\u03bb\u03b9\u03c4\u03b5\u03af\u03b1 FM
p4467
ssS'2164'
p4468
(dp4469
g4427
S'http://betradio.live24.gr/betradio'
p4470
sg63
Vhttp://cdn.e-radio.gr/logos/gr/mini/betradio.png
p4471
sg65
VINTERNET RADIO
p4472
sg67
V2164
p4473
sg69
VBet Radio
p4474
ssS'48'
p4475
(dp4476
g1169
S'http://activeradio.gr:8000/activemp3'
p4477
sg23
V/logos/gr/mini/activeradio.gif
p4478
sg14
VINTERNET RADIO
p4479
sg25
V48
p4480
sg18
VActive Radio 
p4481
ssS'1978'
p4482
(dp4483
g476
S'http://208.43.121.133:9538'
p4484
sg23
V/logos/gr/mini/dmradioath.gif
p4485
sg14
VINTERNET RADIO
p4486
sg25
V1978
p4487
sg18
VDM Radio 
p4488
ssS'1977'
p4489
(dp4490
g23
V/logos/gr/mini/derfm.gif
p4491
sg14
VINTERNET RADIO
p4492
sg25
V1977
p4493
sg18
VDER Fm 
p4494
ssS'1976'
p4495
(dp4496
g23
V/logos/gr/mini/ant1grev.gif
p4497
sg14
V\u0393\u03a1\u0395\u0392\u0395\u039d\u0391
p4498
sg25
V1976
p4499
sg18
VAnt1 94
p4500
ssS'1975'
p4501
(dp4502
g23
V/logos/gr/mini/akradio.gif
p4503
sg14
VINTERNET RADIO
p4504
sg25
V1975
p4505
sg18
VAK Radio 
p4506
ssS'1974'
p4507
(dp4508
g476
S'http://stream.myip.gr:8034'
p4509
sg23
V/logos/gr/mini/capitalkavala.gif
p4510
sg14
V\u039a\u0391\u0392\u0391\u039b\u0391
p4511
sg25
V1974
p4512
sg18
VCapital FM 107
p4513
ssS'1973'
p4514
(dp4515
g23
V/logos/gr/mini/nostalgia.gif
p4516
sg14
VINTERNET RADIO
p4517
sg25
V1973
p4518
sg18
V\u03a1\u03ac\u03b4\u03b9\u03bf \u039d\u03bf\u03c3\u03c4\u03b1\u03bb\u03b3\u03af\u03b1 
p4519
ssS'1972'
p4520
(dp4521
g23
V/logos/gr/mini/radiosoul.gif
p4522
sg14
VINTERNET RADIO
p4523
sg25
V1972
p4524
sg18
VRadio Soul 
p4525
ssS'1971'
p4526
(dp4527
g4427
S'http://live.onestreaming.com/hitfmcy'
p4528
sg63
Vhttp://cdn.e-radio.gr/logos/cy/mini/hitfmcy.png
p4529
sg65
V\u039b\u0395\u039c\u0395\u03a3\u039f\u03a3
p4530
sg67
V1971
p4531
sg69
VHit Fm
p4532
ssS'1970'
p4533
(dp4534
g476
S'http://99.198.118.250:8138/live'
p4535
sg23
V/logos/gr/mini/evolutiongr.gif
p4536
sg14
VINTERNET RADIO
p4537
sg25
V1970
p4538
sg18
VEvolution Radio 
p4539
ssS'357'
p4540
(dp4541
g476
S'http://s1.onweb.gr:8820'
p4542
sg23
V/logos/gr/mini/neoradiofono.gif
p4543
sg14
V\u039a\u0395\u03a1\u039a\u03a5\u03a1\u0391
p4544
sg25
V357
p4545
sg18
V\u039d\u03ad\u03bf \u03a1\u03b1\u03b4\u03b9\u03cc\u03c6\u03c9\u03bd\u03bf 97,9
p4546
ssS'951'
p4547
(dp4548
g23
V/logos/gr/mini/libido.gif
p4549
sg14
VINTERNET RADIO
p4550
sg25
V951
p4551
sg18
VLibido Radio 
p4552
ssS'355'
p4553
(dp4554
g23
V/logos/gr/mini/maxcrete.gif
p4555
sg14
V\u03a7\u0391\u039d\u0399\u0391
p4556
sg25
V355
p4557
sg18
VMax Fm 100,2
p4558
ssS'808'
p4559
(dp4560
g23
V/logos/gr/mini/best947.gif
p4561
sg14
V\u0397\u03a1\u0391\u039a\u039b\u0395\u0399\u039f
p4562
sg25
V808
p4563
sg18
VBest 94,7
p4564
ssS'2157'
p4565
(dp4566
g4427
S'http://89.40.221.212:26800/;'
p4567
sg63
Vhttp://cdn.e-radio.gr/logos/gr/mini/myfmgr.png
p4568
sg65
V\u039a\u039f\u039c\u039f\u03a4H\u039d\u0397
p4569
sg67
V2157
p4570
sg69
VMy FM
p4571
ssS'350'
p4572
(dp4573
g4427
S'http://stream-push2.live24.gr/olymposfm-345'
p4574
sg63
Vhttp://cdn.e-radio.gr/logos/gr/mini/nologo.png
p4575
sg65
V\u039a\u0391\u03a4\u0395\u03a1\u0399\u039d\u0397
p4576
sg67
V350
p4577
sg69
V\u039f\u03bb\u03c5\u03bc\u03c0\u03bf\u03c2 Fm
p4578
ssS'801'
p4579
(dp4580
g23
V/logos/gr/mini/anagennisi.gif
p4581
sg14
VINTERNET RADIO
p4582
sg25
V801
p4583
sg18
VRadio \u0391\u03bd\u03b1\u03b3\u03ad\u03bd\u03bd\u03b7\u03c3\u03b7 
p4584
ssS'2162'
p4585
(dp4586
g462
S'http://live.myloveradio.com:9912/;'
p4587
sg63
Vhttp://cdn.e-radio.gr/logos/gr/mini/nologo.png
p4588
sg65
VINTERNET RADIO
p4589
sg67
V2162
p4590
sg69
VAlter2you International
p4591
ssS'953'
p4592
(dp4593
g23
V/logos/gr/mini/notos949.gif
p4594
sg14
V\u03a3\u03a0\u0391\u03a1\u03a4\u0397
p4595
sg25
V953
p4596
sg18
V\u039d\u03cc\u03c4\u03bf\u03c2 94,9
p4597
ssS'805'
p4598
(dp4599
g476
S'http://99.198.118.250:8022'
p4600
sg23
V/logos/gr/mini/musicbox.gif
p4601
sg14
V\u03a7\u0391\u039d\u0399\u0391
p4602
sg25
V805
p4603
sg18
VMusic Box 106,5
p4604
ssS'358'
p4605
(dp4606
g23
V/logos/gr/mini/samosfm.gif
p4607
sg14
V\u03a3\u0391\u039c\u039f\u03a3
p4608
sg25
V358
p4609
sg18
V\u03a3\u03ac\u03bc\u03bf\u03c2 Fm 97,3
p4610
ssS'1788'
p4611
(dp4612
g476
S'http://boulevart.com.gr:8000'
p4613
sg23
V/logos/gr/mini/cookierock.gif
p4614
sg14
VINTERNET RADIO
p4615
sg25
V1788
p4616
sg18
VCookie Rock 
p4617
ssS'217'
p4618
(dp4619
g265
S'http://live.onestreaming.com/arhagelos'
p4620
sg23
V/logos/gr/mini/arhagelos.gif
p4621
sg14
V\u03a1\u039f\u0394\u039f\u03a3
p4622
sg25
V217
p4623
sg18
V\u0391\u03c1\u03c7\u03ac\u03b3\u03b3\u03b5\u03bb\u03bf\u03c2 94,1
p4624
ssS'214'
p4625
(dp4626
g265
S'http://ant1.live24.gr/ant1?b30cfd71ea09d00f53b8757c20491e34'
p4627
sg23
V/logos/gr/mini/ant1radio.gif
p4628
sg14
V\u0391\u0398\u0397\u039d\u0391
p4629
sg25
V214
p4630
sg18
VAnt1 Radio 97,2
p4631
ssS'215'
p4632
(dp4633
g265
S'http://rythmos.live24.gr/rythmos'
p4634
sg23
V/logos/gr/mini/rythmos.gif
p4635
sg14
V\u0391\u0398\u0397\u039d\u0391
p4636
sg25
V215
p4637
sg18
V\u03a1\u03c5\u03b8\u03bc\u03cc\u03c2 94,9
p4638
ssS'213'
p4639
(dp4640
g476
S'http://78.46.66.215:8005'
p4641
sg23
V/logos/gr/mini/sokfm.gif
p4642
sg14
V\u03a7\u0391\u039b\u039a\u0399\u0394\u0391
p4643
sg25
V213
p4644
sg18
VSok Fm 104,8
p4645
ssS'210'
p4646
(dp4647
g23
V/logos/gr/mini/starfmlamia.gif
p4648
sg14
V\u039b\u0391\u039c\u0399\u0391
p4649
sg25
V210
p4650
sg18
VStar Fm \u039b\u03b1\u03bc\u03af\u03b1 97,1
p4651
ssS'762'
p4652
(dp4653
g476
S'http://imagine.1stepstream.com:8000/live'
p4654
sg23
V/logos/gr/mini/imagine.gif
p4655
sg14
V\u0398\u0395\u03a3\u03a3\u0391\u039b\u039f\u039d\u0399\u039a\u0397
p4656
sg25
V762
p4657
sg18
VImagine 89,7
p4658
ssS'763'
p4659
(dp4660
g476
S'http://topmelody1.selfip.net:8000'
p4661
sg23
V/logos/gr/mini/topmelody.gif
p4662
sg14
V\u03a3\u0391\u039d\u03a4\u039f\u03a1\u0399\u039d\u0397
p4663
sg25
V763
p4664
sg18
VTop Melody 104,9
p4665
ssS'1782'
p4666
(dp4667
S'url'
p4668
S'http://live.onestreaming.com/radio5'
p4669
sg63
Vhttp://cdn.e-radio.gr/logos/cy/mini/radio5.png
p4670
sg65
VINTERNET RADIO
p4671
sg67
V1782
p4672
sg69
VRadio 5
p4673
ssS'1783'
p4674
(dp4675
g23
V/logos/gr/mini/radiopatrida1004.gif
p4676
sg14
V\u039a\u039f\u039c\u039f\u03a4H\u039d\u0397
p4677
sg25
V1783
p4678
sg18
V\u03a1\u03ac\u03b4\u03b9\u03bf \u03a0\u03b1\u03c4\u03c1\u03af\u03b4\u03b1 100,4
p4679
ssS'767'
p4680
(dp4681
g476
S'http://eco.onestreaming.com:8123'
p4682
sg23
V/logos/gr/mini/mousikoelas.gif
p4683
sg14
V\u0395\u039b\u0391\u03a3\u03a3O\u039d\u0391
p4684
sg25
V767
p4685
sg18
V\u039c\u03bf\u03c5\u03c3\u03b9\u03ba\u03cc \u039a\u03b1\u03bd\u03ac\u03bb\u03b9 \u0395\u03bb\u03b1\u03c3\u03c3\u03cc\u03bd\u03b1\u03c2 107,3
p4686
ssS'218'
p4687
(dp4688
g476
S'http://75.125.224.82:8000'
p4689
sg23
V/logos/gr/mini/mangoradio.gif
p4690
sg14
VINTERNET RADIO
p4691
sg25
V218
p4692
sg18
VMango Radio Urban 
p4693
ssS'1787'
p4694
(dp4695
g2493
S'http://907ioannina.live24.gr/907ioannina'
p4696
sg63
Vhttp://cdn.e-radio.gr/logos/gr/mini/best907.png
p4697
sg65
V\u0399\u03a9\u0391\u039d\u039d\u0399\u039d\u0391
p4698
sg67
V1787
p4699
sg69
VBest
p4700
ssS'956'
p4701
(dp4702
g63
Vhttp://cdn.e-radio.gr/logos/gr/mini/lamia2231.png
p4703
sg65
VINTERNET RADIO
p4704
sg67
V956
p4705
sg69
V2231.gr
p4706
ssS'1777'
p4707
(dp4708
g23
V/logos/gr/mini/mesogeios957.gif
p4709
sg14
V\u039a\u0391\u039b\u0391\u039c\u0391\u03a4\u0391
p4710
sg25
V1777
p4711
sg18
V\u039c\u03b5\u03c3\u03cc\u03b3\u03b5\u03b9\u03bf\u03c2 95,7
p4712
ssS'1776'
p4713
(dp4714
g23
V/logos/gr/mini/freeangel918.gif
p4715
sg14
V\u0391\u0398\u0397\u039d\u0391
p4716
sg25
V1776
p4717
sg18
Vfree Angel 91,8
p4718
ssS'1771'
p4719
(dp4720
g23
V/logos/gr/mini/kimawkma.gif
p4721
sg14
VINTERNET RADIO
p4722
sg25
V1771
p4723
sg18
VRADIO KIMA : WKMA 
p4724
ssS'1770'
p4725
(dp4726
g265
S'http://live.onestreaming.com/imargol1052'
p4727
sg23
V/logos/gr/mini/imargol1052.gif
p4728
sg14
V\u039d\u0391\u03a5\u03a0\u039b\u0399\u039f
p4729
sg25
V1770
p4730
sg18
V\u0399.\u039c. \u0391\u03c1\u03b3\u03bf\u03bb\u03af\u03b4\u03bf\u03c2 105,2
p4731
ssS'1237'
p4732
(dp4733
g476
S'http://shout.streamwithq.gr:4138'
p4734
sg23
V/logos/gr/mini/alithiafm.gif
p4735
sg14
V\u039a\u0391\u039b\u03a5\u039c\u039d\u039f\u03a3
p4736
sg25
V1237
p4737
sg18
V\u0391\u03bb\u03ae\u0398\u03b5\u03b9\u03b1 Fm 96,3
p4738
ssS'1772'
p4739
(dp4740
g476
S'http://188.40.131.14:9978'
p4741
sg23
V/logos/gr/mini/magicagrin.gif
p4742
sg14
V\u0391\u0393\u03a1\u0399\u039d\u0399\u039f
p4743
sg25
V1772
p4744
sg18
VMagic FM \u0391\u03b3\u03c1\u03af\u03bd\u03b9\u03bf 
p4745
ssS'1075'
p4746
(dp4747
g23
V/logos/gr/mini/lefkimmi.gif
p4748
sg14
V\u039a\u0395\u03a1\u039a\u03a5\u03a1\u0391
p4749
sg25
V1075
p4750
sg18
V\u03a1\u03ac\u03b4\u03b9\u03bf \u039b\u03b5\u03c5\u03ba\u03af\u03bc\u03bc\u03b7 105,5
p4751
ssS'1779'
p4752
(dp4753
g23
V/logos/gr/mini/skiathos964.gif
p4754
sg14
V\u03a3\u039a\u0399\u0391\u0398\u039f\u03a3
p4755
sg25
V1779
p4756
sg18
V\u0394\u03b7\u03bc\u03bf\u03c4\u03b9\u03ba\u03cc \u03a1\u03b1\u03b4\u03b9\u03cc\u03c6\u03c9\u03bd\u03bf \u03a3\u03ba\u03b9\u03ac\u03b8\u03bf\u03c5 96,4
p4757
ssS'1778'
p4758
(dp4759
g23
V/logos/gr/mini/realfmthess.gif
p4760
sg14
V\u0398\u0395\u03a3\u03a3\u0391\u039b\u039f\u039d\u0399\u039a\u0397
p4761
sg25
V1778
p4762
sg18
VReal Fm 107,1
p4763
ssS'878'
p4764
(dp4765
g776
S'http://208.43.115.44:8262'
p4766
sg23
V/logos/gr/mini/mrsoul.gif
p4767
sg14
VINTERNET RADIO
p4768
sg25
V878
p4769
sg18
VMr Soul 
p4770
ssS'289'
p4771
(dp4772
g476
S'http://shoutcast.24radio.gr:8064'
p4773
sg23
V/logos/gr/mini/cool907.gif
p4774
sg14
V\u0391\u03a1\u0393\u039f\u03a3
p4775
sg25
V289
p4776
sg18
VCool Fm 90,7
p4777
ssS'4'
(dp4778
g476
S'http://eco.onestreaming.com:8346'
p4779
sg23
V/logos/gr/mini/eurovisionfm.gif
p4780
sg14
V\u0391\u0398\u0397\u039d\u0391
p4781
sg25
V4
sg18
VEurovision.Fm 
p4782
ssS'31'
p4783
(dp4784
g4668
S'http://player.rockharadio.com:8028/;'
p4785
sg63
Vhttp://cdn.e-radio.gr/logos/gr/mini/rokharadio.png
p4786
sg65
VINTERNET RADIO
p4787
sg67
V31
p4788
sg69
VRockharadio
p4789
ssS'282'
p4790
(dp4791
g265
S'http://orange.live24.gr/orange9320'
p4792
sg23
V/logos/gr/mini/happy932.gif
p4793
sg14
V\u0391\u0398\u0397\u039d\u0391
p4794
sg25
V282
p4795
sg18
VHappy Radio 93,2
p4796
ssS'287'
p4797
(dp4798
g265
S'http://loveradio.live24.gr/loveradio-1000'
p4799
sg23
V/logos/gr/mini/loveradio.gif
p4800
sg14
V\u0391\u0398\u0397\u039d\u0391
p4801
sg25
V287
p4802
sg18
VLove Radio 97,5
p4803
ssS'286'
p4804
(dp4805
g4668
S'http://s7.onweb.gr:8542/;'
p4806
sg63
Vhttp://cdn.e-radio.gr/logos/gr/mini/laikos1057.png
p4807
sg65
V\u039b\u0391\u03a1\u0399\u03a3\u0391
p4808
sg67
V286
p4809
sg69
V\u039b\u03b1\u03ca\u03ba\u03cc\u03c2
p4810
ssS'1090'
p4811
(dp4812
g265
S'http://drs953.live24.gr/drs953?59c9e54a76f8bfebbc640262fc16b7a7'
p4813
sg23
V/logos/gr/mini/drs953.gif
p4814
sg14
V\u0397\u03a1\u0391\u039a\u039b\u0395\u0399\u039f
p4815
sg25
V1090
p4816
sg18
VDRS 95,3
p4817
ssS'679'
p4818
(dp4819
g23
V/logos/gr/mini/lydiafm.gif
p4820
sg14
V\u0398\u0395\u03a3\u03a3\u0391\u039b\u039f\u039d\u0399\u039a\u0397
p4821
sg25
V679
p4822
sg18
V\u039b\u03c5\u03b4\u03af\u03b1 FM 94,2
p4823
ssS'1093'
p4824
(dp4825
g63
Vhttp://cdn.e-radio.gr/logos/gr/mini/loveher.png
p4826
sg65
V\u0397\u03a1\u0391\u039a\u039b\u0395\u0399\u039f
p4827
sg67
V1093
p4828
sg69
VLove Radio
p4829
ssS'675'
p4830
(dp4831
g476
S'http://webradio.musicheaven.gr:9850'
p4832
sg23
V/logos/gr/mini/musicheaven.gif
p4833
sg14
VINTERNET RADIO
p4834
sg25
V675
p4835
sg18
VMusic Heaven 
p4836
ssS'676'
p4837
(dp4838
g63
Vhttp://cdn.e-radio.gr/logos/gr/mini/cretanradio.png
p4839
sg65
VINTERNET RADIO
p4840
sg67
V676
p4841
sg69
V\u039a\u03c1\u03b7\u03c4\u03b9\u03ba\u03cc \u0394\u03b9\u03b1\u03b4\u03b9\u03ba\u03c4\u03c5\u03b1\u03ba\u03cc \u03a1\u03b1\u03b4\u03b9\u03cc\u03c6\u03c9\u03bd\u03bf
p4842
ssS'677'
p4843
(dp4844
g23
V/logos/gr/mini/danceradio.gif
p4845
sg14
VINTERNET RADIO
p4846
sg25
V677
p4847
sg18
VDance Radio - Tech House 
p4848
ssS'671'
p4849
(dp4850
g476
S'http://radio1.discomaniaradio.com:7030'
p4851
sg23
V/logos/gr/mini/discomania.gif
p4852
sg14
VINTERNET RADIO
p4853
sg25
V671
p4854
sg18
VDiscomania 
p4855
ssS'1792'
p4856
(dp4857
g4668
S'http://s4.onweb.gr:8492/;'
p4858
sg63
Vhttp://cdn.e-radio.gr/logos/gr/mini/kiss1004.png
p4859
sg65
V\u039a\u0391\u03a1\u0394\u0399\u03a4\u03a3\u0391
p4860
sg67
V1792
p4861
sg69
VKiss
p4862
ssS'264'
p4863
(dp4864
g4668
S'http://radio.webmax.gr:8005/stream.mp3'
p4865
sg63
Vhttp://cdn.e-radio.gr/logos/gr/mini/ena905kavala.png
p4866
sg65
V\u039a\u0391\u0392\u0391\u039b\u0391
p4867
sg67
V264
p4868
sg69
V\u03a1\u03ac\u03b4\u03b9\u03bf \u0388\u03bd\u03b1
p4869
ssS'269'
p4870
(dp4871
g23
V/logos/gr/mini/relaxfm882.gif
p4872
sg14
V\u03a0\u0391\u03a4\u03a1\u0391
p4873
sg25
V269
p4874
sg18
VRelax Fm 88,2
p4875
ssS'409'
p4876
(dp4877
g265
S'http://live.onestreaming.com/club937'
p4878
sg23
V/logos/gr/mini/clubfm.gif
p4879
sg14
V\u0399\u0395\u03a1\u0391\u03a0\u0395\u03a4\u03a1\u0391
p4880
sg25
V409
p4881
sg18
VClub FM 93,7
p4882
ssS'436'
p4883
(dp4884
g265
S'http://live.onestreaming.com/xylokastro'
p4885
sg23
V/logos/gr/mini/XylokastroLife.gif
p4886
sg14
V\u039e\u03a5\u039b\u039f\u039a\u0391\u03a3\u03a4\u03a1\u039f
p4887
sg25
V436
p4888
sg18
VLife Fm 103,1
p4889
ssS'58'
p4890
(dp4891
g476
S'http://eco.onestreaming.com:8219/stream'
p4892
sg23
V/logos/gr/mini/epontos.gif
p4893
sg14
VINTERNET RADIO
p4894
sg25
V58
p4895
sg18
Ve-Pontos 
p4896
ssS'2191'
p4897
(dp4898
g4668
S'http://eco.onestreaming.com:9000/;'
p4899
sg63
Vhttp://cdn.e-radio.gr/logos/gr/mini/boxradio.png
p4900
sg65
VINTERNET RADIO
p4901
sg67
V2191
p4902
sg69
VBOX Radio
p4903
ssS'55'
p4904
(dp4905
g23
V/logos/gr/mini/typosfm.gif
p4906
sg14
V\u0392\u0395\u03a1\u039f\u0399\u0391
p4907
sg25
V55
p4908
sg18
V\u03a1\u03ac\u03b4\u03b9\u03bf \u03a4\u03cd\u03c0\u03bf\u03c2 99,7
p4909
ssS'54'
p4910
(dp4911
g476
S'http://s1.onweb.gr:8088'
p4912
sg23
V/logos/gr/mini/radiopolis.gif
p4913
sg14
V\u039b\u0391\u03a1\u0399\u03a3\u0391
p4914
sg25
V54
p4915
sg18
V\u03a1\u03ac\u03b4\u03b9\u03bf \u03a0\u03cc\u03bb\u03b9\u03c2 99,4
p4916
ssS'56'
p4917
(dp4918
g23
V/logos/gr/mini/doggradio.gif
p4919
sg14
VINTERNET RADIO
p4920
sg25
V56
p4921
sg18
VDoggradio 
p4922
ssS'62'
p4923
(dp4924
g23
V/logos/gr/mini/radiopoint.gif
p4925
sg14
VINTERNET RADIO
p4926
sg25
V62
p4927
sg18
VRadio Point 
p4928
ssS'53'
p4929
(dp4930
g265
S'http://media15.internet.gr/dreamfm'
p4931
sg23
V/logos/gr/mini/nologo.gif
p4932
sg14
V\u0397\u03a1\u0391\u039a\u039b\u0395\u0399\u039f
p4933
sg25
V53
p4934
sg18
VDream FM 91
p4935
ssS'52'
p4936
(dp4937
g476
S'http://155.207.18.114:8000/1431med'
p4938
sg23
V/logos/gr/mini/1431.gif
p4939
sg14
V\u0398\u0395\u03a3\u03a3\u0391\u039b\u039f\u039d\u0399\u039a\u0397
p4940
sg25
V52
p4941
sg18
V1431 AM 1431
p4942
ssS'536'
p4943
(dp4944
g476
S'http://eco.onestreaming.com:8334'
p4945
sg23
V/logos/gr/mini/polis.gif
p4946
sg14
V\u0391\u039b\u0395\u039e\u0391\u039d\u0394\u03a1\u039f\u03a5\u03a0\u039f\u039b\u0397
p4947
sg25
V536
p4948
sg18
VPolis 102,6
p4949
ssS'535'
p4950
(dp4951
g476
S'http://s1.onweb.gr:8098'
p4952
sg23
V/logos/gr/mini/parosfm.gif
p4953
sg14
V\u03a0\u0391\u03a1\u039f\u03a3 - \u0391\u039d\u03a4\u0399\u03a0\u0391\u03a1\u039f\u03a3
p4954
sg25
V535
p4955
sg18
V\u03a0\u03ac\u03c1\u03bf\u03c2 Fm 98,5
p4956
ssS'534'
p4957
(dp4958
g265
S'mmsh://a1251.l4434923250.c44349.g.lm.akamaistream.net/D/1251/44349/v0001/reflector:23250'
p4959
sg23
V/logos/gr/mini/freedomfm.gif
p4960
sg14
V\u0391\u0398\u0397\u039d\u0391
p4961
sg25
V534
p4962
sg18
VFreedom Fm 
p4963
ssS'533'
p4964
(dp4965
g265
S'http://live.onestreaming.com/elpar'
p4966
sg23
V/logos/gr/mini/elpar.gif
p4967
sg14
V\u0391\u0398\u0397\u039d\u0391
p4968
sg25
V533
p4969
sg18
V\u0395\u03bb\u03bb\u03b7\u03bd\u03b9\u03ba\u03cc \u03a0\u03b1\u03c1\u03b1\u03b4\u03bf\u03c3\u03b9\u03b1\u03ba\u03cc 
p4970
ssS'532'
p4971
(dp4972
g476
S'http://eco.onestreaming.com:8336'
p4973
sg23
V/logos/gr/mini/99fm.gif
p4974
sg14
V\u0398\u0395\u03a3\u03a3\u0391\u039b\u039f\u039d\u0399\u039a\u0397
p4975
sg25
V532
p4976
sg18
V99fm / Radio 1 
p4977
ssS'530'
p4978
(dp4979
g476
S'http://eco.onestreaming.com:8173'
p4980
sg23
V/logos/gr/mini/cityfm.gif
p4981
sg14
V\u0397\u03a1\u0391\u039a\u039b\u0395\u0399\u039f
p4982
sg25
V530
p4983
sg18
VCity Fm 100
p4984
ssS'408'
p4985
(dp4986
g23
V/logos/gr/mini/zizanio.gif
p4987
sg14
V\u0391\u03a1\u0393\u039f\u03a3\u03a4\u039f\u039b\u0399
p4988
sg25
V408
p4989
sg18
V\u0396\u03b9\u03b6\u03ac\u03bd\u03b9\u03bf 89,2
p4990
ssS'539'
p4991
(dp4992
g265
S'http://a1202.l7083147201.c70831.g.lm.akamaistream.net/D/1202/70831/v0001/reflector:47201'
p4993
sg23
V/logos/gr/mini/palmos965.gif
p4994
sg14
V\u0398\u0395\u03a3\u03a3\u0391\u039b\u039f\u039d\u0399\u039a\u0397
p4995
sg25
V539
p4996
sg18
V\u03a0\u03b1\u03bb\u03bc\u03cc\u03c2 96,5
p4997
ssS'538'
p4998
(dp4999
g23
V/logos/gr/mini/hijack.gif
p5000
sg14
VINTERNET RADIO
p5001
sg25
V538
p5002
sg18
VHiJack 
p5003
ssS'775'
p5004
(dp5005
g265
S'http://live.onestreaming.com/orthodoxia'
p5006
sg23
V/logos/gr/mini/orthodoxia.gif
p5007
sg14
V\u03a3\u0399\u0391\u03a4\u0399\u03a3\u03a4\u0391
p5008
sg25
V775
p5009
sg18
V\u039f\u03c1\u03b8\u03bf\u03b4\u03bf\u03be\u03af\u03b1 \u03ba\u03b1\u03b9 \u03a0\u03b1\u03c1\u03ac\u03b4\u03bf\u03c3\u03b7 103
p5010
ssS'988'
p5011
(dp5012
g23
V/logos/gr/mini/cosmicradio.gif
p5013
sg14
V\u039a\u0391\u039b\u0391\u039c\u0391\u03a4\u0391
p5014
sg25
V988
p5015
sg18
VCosmic Radio 102,6
p5016
ssS'980'
p5017
(dp5018
g476
S'http://live.radioalphaomega.com:4006'
p5019
sg23
V/logos/gr/mini/nologo.gif
p5020
sg14
V\u03a7\u0399\u039f\u03a3
p5021
sg25
V980
p5022
sg18
V\u03a1\u03ac\u03b4\u03b9\u03bf \u0391-\u03a9 90,4
p5023
ssS'67'
p5024
(dp5025
S'url'
p5026
S'http://live.onestreaming.com/methorios'
p5027
sS'logo'
p5028
V/logos/gr/mini/methorios.gif
p5029
sS'title'
p5030
V\u039c\u03b5\u03b8\u03cc\u03c1\u03b9\u03bf\u03c2 96
p5031
sS'id'
p5032
V67
p5033
sS'city'
p5034
V\u039f\u03a1\u0395\u03a3\u03a4\u0399\u0391\u0394\u0391
p5035
ssS'777'
p5036
(dp5037
g476
S'http://s6.onweb.gr:8056'
p5038
sg23
V/logos/gr/mini/faros927.gif
p5039
sg14
V\u0399\u03a9\u0391\u039d\u039d\u0399\u039d\u0391
p5040
sg25
V777
p5041
sg18
V\u03a1\u03ac\u03b4\u03b9\u03bf \u03a6\u03ac\u03c1\u03bf\u03c2 92,7
p5042
ssS'50'
p5043
(dp5044
g265
S'http://prismavirus.live24.gr/prismavirus1000'
p5045
sg23
V/logos/gr/mini/prismavirus.gif
p5046
sg14
V\u039e\u03a5\u039b\u039f\u039a\u0391\u03a3\u03a4\u03a1\u039f
p5047
sg25
V50
p5048
sg18
V\u03a0\u03c1\u03af\u03c3\u03bc\u03b1 93,8
p5049
ssS'115'
p5050
(dp5051
g476
S'http://live.duth.gr:8000/omorfipoli-hifi'
p5052
sg23
V/logos/gr/mini/omorfipoli.gif
p5053
sg14
V\u039e\u0391\u039d\u0398\u0397
p5054
sg25
V115
p5055
sg18
VOmorfi Poli 89,9
p5056
ssS'2198'
p5057
(dp5058
g1400
S'http://soho.wavestreamer.com:5669/Live'
p5059
sg63
Vhttp://cdn.e-radio.gr/logos/gr/mini/dsradio.png
p5060
sg65
VINTERNET RADIO
p5061
sg67
V2198
p5062
sg69
VDreamSound
p5063
ssS'117'
p5064
(dp5065
g23
V/logos/gr/mini/nologo.gif
p5066
sg14
V\u0392\u039f\u039b\u039f\u03a3
p5067
sg25
V117
p5068
sg18
VAstra 97,3
p5069
ssS'116'
p5070
(dp5071
g4668
S'http://m1.onweb.gr/1055rock'
p5072
sg5028
V/logos/gr/mini/rock1055.gif
p5073
sg5030
V1055 Rock 105,5
p5074
sg5032
V116
p5075
sg5034
V\u0398\u0395\u03a3\u03a3\u0391\u039b\u039f\u039d\u0399\u039a\u0397
p5076
ssS'111'
p5077
(dp5078
g23
V/logos/gr/mini/ecclesia.gif
p5079
sg14
V\u0391\u0398\u0397\u039d\u0391
p5080
sg25
V111
p5081
sg18
V\u0395\u03ba\u03ba\u03bb\u03b7\u03c3\u03af\u03b1 \u03c4\u03b7\u03c2 \u0395\u03bb\u03bb\u03ac\u03b4\u03bf\u03c2 89,5
p5082
ssS'110'
p5083
(dp5084
g476
S'http://streamx1.greekradios.gr:8000'
p5085
sg23
V/logos/gr/mini/metropolis.gif
p5086
sg14
V\u0398\u0395\u03a3\u03a3\u0391\u039b\u039f\u039d\u0399\u039a\u0397
p5087
sg25
V110
p5088
sg18
VMetropolis 95,5
p5089
ssS'113'
p5090
(dp5091
g265
S'http://a1232.l3271935231.c32719.g.lm.akamaistream.net/D/1232/32719/v0001/reflector:35231'
p5092
sg23
V/logos/gr/mini/erakosmos.gif
p5093
sg14
V\u0391\u0398\u0397\u039d\u0391
p5094
sg25
V113
p5095
sg18
V\u0395\u03a1\u0391 \u039a\u03cc\u03c3\u03bc\u03bf\u03c2 93,6
p5096
ssS'112'
p5097
(dp5098
g265
S'http://a1367.l3271923366.c32719.g.lm.akamaistream.net/D/1367/32719/v0001/reflector:23366'
p5099
sg23
V/logos/gr/mini/erafilia.gif
p5100
sg14
V\u0391\u0398\u0397\u039d\u0391
p5101
sg25
V112
p5102
sg18
V\u0395\u03a1\u0391 \u03a6\u03b9\u03bb\u03af\u03b1 
p5103
ssS'205'
p5104
(dp5105
g476
S'http://eco.onestreaming.com:8099'
p5106
sg23
V/logos/gr/mini/radioastro.gif
p5107
sg14
V\u03a1\u0395\u0398\u03a5\u039c\u039d\u039f
p5108
sg25
V205
p5109
sg18
VAstro Fm 96,4
p5110
ssS'118'
p5111
(dp5112
g265
S'http://a1758.l3271933757.c32719.g.lm.akamaistream.net/D/1758/32719/v0001/reflector:33757'
p5113
sg23
V/logos/gr/mini/102fm.gif
p5114
sg14
V\u0398\u0395\u03a3\u03a3\u0391\u039b\u039f\u039d\u0399\u039a\u0397
p5115
sg25
V118
p5116
sg18
V\u0395\u03a1\u03913 \u0391\u0384 \u03a0\u03c1\u03cc\u03b3\u03c1\u03b1\u03bc\u03bc\u03b1 102
p5117
ssS'770'
p5118
(dp5119
g265
S'http://live.onestreaming.com/radioionia'
p5120
sg23
V/logos/gr/mini/radioionia.gif
p5121
sg14
V\u03a3\u0391\u039c\u039f\u03a3
p5122
sg25
V770
p5123
sg18
V\u03a1\u03ac\u03b4\u03b9\u03bf \u0399\u03c9\u03bd\u03af\u03b1 105,2
p5124
ssS'1858'
p5125
(dp5126
g476
S'http://citycom.serverroom.us:6762'
p5127
sg23
V/logos/gr/mini/clubsradio.gif
p5128
sg14
VINTERNET RADIO
p5129
sg25
V1858
p5130
sg18
VClub's Radio 
p5131
ssS'1859'
p5132
(dp5133
g23
V/logos/gr/mini/inathensdance.gif
p5134
sg14
VINTERNET RADIO
p5135
sg25
V1859
p5136
sg18
VIn Athens Dance Radio 
p5137
ssS'1850'
p5138
(dp5139
g23
V/logos/gr/mini/genesisfm.gif
p5140
sg14
VINTERNET RADIO
p5141
sg25
V1850
p5142
sg18
VGenesis FM 
p5143
ssS'1852'
p5144
(dp5145
g476
S'http://85.17.30.90:9996'
p5146
sg23
V/logos/gr/mini/navagiagr.gif
p5147
sg14
VINTERNET RADIO
p5148
sg25
V1852
p5149
sg18
VNavagia.gr 
p5150
ssS'1853'
p5151
(dp5152
g23
V/logos/gr/mini/alina.gif
p5153
sg14
VINTERNET RADIO
p5154
sg25
V1853
p5155
sg18
VAlina Radio 
p5156
ssS'1854'
p5157
(dp5158
g23
V/logos/gr/mini/cooradio.gif
p5159
sg14
VINTERNET RADIO
p5160
sg25
V1854
p5161
sg18
VCooRadio 
p5162
ssS'1855'
p5163
(dp5164
g476
S'http://radio.zbutsam.net:30570'
p5165
sg23
V/logos/gr/mini/zbutsam.gif
p5166
sg14
VINTERNET RADIO
p5167
sg25
V1855
p5168
sg18
VZbutsam 
p5169
ssS'1856'
p5170
(dp5171
g23
V/logos/gr/mini/radiomaniagr.gif
p5172
sg14
VINTERNET RADIO
p5173
sg25
V1856
p5174
sg18
VRadio Mania 
p5175
ssS'1857'
p5176
(dp5177
g476
S'http://87.117.198.140:8018'
p5178
sg23
V/logos/gr/mini/westradiogr.gif
p5179
sg14
VINTERNET RADIO
p5180
sg25
V1857
p5181
sg18
VWest Radio 
p5182
ssS'2172'
p5183
(dp5184
g4668
S'http://174.36.237.66:13010/;'
p5185
sg63
Vhttp://cdn.e-radio.gr/logos/gr/mini/samradio.png
p5186
sg65
VINTERNET RADIO
p5187
sg67
V2172
p5188
sg69
VSAM Radio
p5189
ssS'2173'
p5190
(dp5191
g63
Vhttp://cdn.e-radio.gr/logos/gr/mini/asteras906.png
p5192
sg65
V\u0392\u0395\u03a1\u039f\u0399\u0391
p5193
sg67
V2173
p5194
sg69
V\u0391\u03c3\u03c4\u03ad\u03c1\u03b1\u03c2 FM
p5195
ssS'2171'
p5196
(dp5197
g61
S'http://s6.onweb.gr:8054/;'
p5198
sg63
Vhttp://cdn.e-radio.gr/logos/gr/mini/diony892.png
p5199
sg65
V\u039a\u0391\u03a4\u0395\u03a1\u0399\u039d\u0397
p5200
sg67
V2171
p5201
sg69
V\u0394\u03b9\u03cc\u03bd\u03c5\u03c3\u03bf\u03c2 FM
p5202
ssS'2176'
p5203
(dp5204
g63
Vhttp://cdn.e-radio.gr/logos/gr/mini/nologo.png
p5205
sg65
VINTERNET RADIO
p5206
sg67
V2176
p5207
sg69
VElectron
p5208
ssS'2177'
p5209
(dp5210
g4668
S'http://s6.onweb.gr:8064/;'
p5211
sg63
Vhttp://cdn.e-radio.gr/logos/gr/mini/spice.png
p5212
sg65
VINTERNET RADIO
p5213
sg67
V2177
p5214
sg69
VSpice Radio
p5215
ssS'2174'
p5216
(dp5217
g4668
S'http://66.90.103.144:8990/;'
p5218
sg63
Vhttp://cdn.e-radio.gr/logos/gr/mini/kisskerkyra.png
p5219
sg65
V\u039a\u0395\u03a1\u039a\u03a5\u03a1\u0391
p5220
sg67
V2174
p5221
sg69
VKiss FM
p5222
ssS'2175'
p5223
(dp5224
g4668
S'http://46.4.82.243:8000/;'
p5225
sg63
Vhttp://cdn.e-radio.gr/logos/gr/mini/arcadia938.png
p5226
sg65
V\u03a4\u03a1\u0399\u03a0\u039f\u039b\u0397
p5227
sg67
V2175
p5228
sg69
VArcadia
p5229
ssS'2073'
p5230
(dp5231
g4668
S'http://listen.radionomy.com/peripou-web-radio'
p5232
sg63
Vhttp://cdn.e-radio.gr/logos/gr/mini/peripou.png
p5233
sg65
VINTERNET RADIO
p5234
sg67
V2073
p5235
sg69
VPERIPOU Web Radio
p5236
ssS'420'
p5237
(dp5238
g14
V\u0391\u0398\u0397\u039d\u0391
p5239
sg16
S'athensdeejay'
p5240
sg18
VAthens DeeJay 95,2
p5241
sg20
S'http://91.132.6.21:8001'
p5242
sg22
g5242
sg23
V/logos/gr/mini/deejay.gif
p5243
sg25
V420
p5244
ssS'2071'
p5245
(dp5246
g4668
S'http://server1.radiojar.com/whrs03eg80u.mp3'
p5247
sg63
Vhttp://cdn.e-radio.gr/logos/gr/mini/elixir.png
p5248
sg65
VINTERNET RADIO
p5249
sg67
V2071
p5250
sg69
VElixir Radio
p5251
ssS'2179'
p5252
(dp5253
g462
S'http://streamyourdream.org:8042/imd'
p5254
sg63
Vhttp://cdn.e-radio.gr/logos/gr/mini/nologo.png
p5255
sg65
V\u0392\u039f\u039b\u039f\u03a3
p5256
sg67
V2179
p5257
sg69
V\u039f\u03c1\u03b8\u03cc\u03b4\u03bf\u03be\u03b7 \u039c\u03b1\u03c1\u03c4\u03c5\u03c1\u03af\u03b1
p5258
ssS'911'
p5259
(dp5260
g265
S'http://live.onestreaming.com/mesogios'
p5261
sg23
V/logos/gr/mini/mesogios.gif
p5262
sg14
V\u039d\u0391\u039e\u039f\u03a3
p5263
sg25
V911
p5264
sg18
V\u039c\u03b5\u03c3\u03cc\u03b3\u03b5\u03b9\u03bf\u03c2 105,4
p5265
ssS'2078'
p5266
(dp5267
g4668
S'http://193.227.111.111:8002/;'
p5268
sg63
Vhttp://cdn.e-radio.gr/logos/gr/mini/family.png
p5269
sg65
V\u0397\u03a1\u0391\u039a\u039b\u0395\u0399\u039f
p5270
sg67
V2078
p5271
sg69
VRadio Family
p5272
ssS'427'
p5273
(dp5274
g14
V\u03a0\u0391\u03a4\u03a1\u0391
p5275
sg310
S'smartfm'
p5276
sg18
VSmart Fm 100,7
p5277
sg313
S'http://smartfm.serverroom.us:8030'
p5278
sg315
g5278
sg23
V/logos/gr/mini/smartfm.gif
p5279
sg25
V427
p5280
ssS'912'
p5281
(dp5282
g1743
S'http://eco.onestreaming.com:8215'
p5283
sg23
V/logos/gr/mini/geramanis.gif
p5284
sg14
VINTERNET RADIO
p5285
sg25
V912
p5286
sg18
V\u03a0\u03ac\u03bd\u03bf\u03c2 \u0393\u03b5\u03c1\u03b1\u03bc\u03ac\u03bd\u03b7\u03c2 
p5287
ssS'308'
p5288
(dp5289
g63
Vhttp://cdn.e-radio.gr/logos/gr/mini/hotsamos.png
p5290
sg65
V\u0391\u0398\u0397\u039d\u0391
p5291
sg67
V308
p5292
sg69
VHot FM
p5293
ssS'309'
p5294
(dp5295
g476
S'http://s1.onweb.gr:8028'
p5296
sg23
V/logos/gr/mini/kymaradio.gif
p5297
sg14
V\u039a\u0395\u03a1\u039a\u03a5\u03a1\u0391
p5298
sg25
V309
p5299
sg18
V\u039a\u03cd\u03bc\u03b1 Fm 90,3
p5300
ssS'302'
p5301
(dp5302
g476
S'http://78.129.159.205:8048'
p5303
sg23
V/logos/gr/mini/impatron.gif
p5304
sg14
V\u03a0\u0391\u03a4\u03a1\u0391
p5305
sg25
V302
p5306
sg18
V\u0399.\u039c\u03b7\u03c4\u03c1\u03cc\u03c0\u03bf\u03bb\u03b9\u03c2 \u03a0\u03b1\u03c4\u03c1\u03ce\u03bd 88,4
p5307
ssS'952'
p5308
(dp5309
g265
S'http://live.onestreaming.com/alpha981'
p5310
sg23
V/logos/gr/mini/alpha981.gif
p5311
sg14
V\u03a0\u03a1\u0395\u0392\u0395\u0396\u0391
p5312
sg25
V952
p5313
sg18
VAlpha 98,1
p5314
ssS'1932'
p5315
(dp5316
g23
V/logos/gr/mini/sevdasgr.gif
p5317
sg14
VINTERNET RADIO
p5318
sg25
V1932
p5319
sg18
V\u03a3\u03b5\u03b2\u03bd\u03c4\u03ac\u03c2 FM 
p5320
ssS'1931'
p5321
(dp5322
g476
S'http://s3.viastreaming.net:8670'
p5323
sg23
V/logos/gr/mini/sfinagr.gif
p5324
sg14
VINTERNET RADIO
p5325
sg25
V1931
p5326
sg18
V\u03a3\u03c6\u03ae\u03bd\u03b1 Radio 
p5327
ssS'1216'
p5328
(dp5329
g476
S'http://s7.onweb.gr:8554'
p5330
sg23
V/logos/gr/mini/palmos95.gif
p5331
sg14
V\u039b\u0391\u039c\u0399\u0391
p5332
sg25
V1216
p5333
sg18
V\u03a0\u03b1\u03bb\u03bc\u03cc\u03c2 95
p5334
ssS'1937'
p5335
(dp5336
g476
S'http://75.126.64.105:8152'
p5337
sg23
V/logos/gr/mini/rcity1028.gif
p5338
sg14
V\u039a\u0391\u03a4\u0395\u03a1\u0399\u039d\u0397
p5339
sg25
V1937
p5340
sg18
VRadio City 102,8
p5341
ssS'1936'
p5342
(dp5343
g476
S'http://s8.onweb.gr:8706'
p5344
sg23
V/logos/gr/mini/fresh929.gif
p5345
sg14
V\u039a\u039f\u0396\u0391\u039d\u0397
p5346
sg25
V1936
p5347
sg18
VFresh FM 92,9
p5348
ssS'1935'
p5349
(dp5350
g23
V/logos/gr/mini/forbeaten.gif
p5351
sg14
VINTERNET RADIO
p5352
sg25
V1935
p5353
sg18
VForbeaten 
p5354
ssS'1939'
p5355
(dp5356
g23
V/logos/gr/mini/biscuitgr.gif
p5357
sg14
VINTERNET RADIO
p5358
sg25
V1939
p5359
sg18
VBiscuit Radio  
p5360
ssS'138'
p5361
(dp5362
g23
V/logos/gr/mini/noiselamia.gif
p5363
sg14
V\u039b\u0391\u039c\u0399\u0391
p5364
sg25
V138
p5365
sg18
VNoise Fm 100,5
p5366
ssS'847'
p5367
(dp5368
g23
V/logos/gr/mini/pluslive.gif
p5369
sg14
VINTERNET RADIO
p5370
sg25
V847
p5371
sg18
VPlus Live 
p5372
ssS'845'
p5373
(dp5374
g476
S'http://46.4.65.194:8017'
p5375
sg23
V/logos/gr/mini/electrocaine.gif
p5376
sg14
VINTERNET RADIO
p5377
sg25
V845
p5378
sg18
VElectrocaine 
p5379
ssS'843'
p5380
(dp5381
g23
V/logos/gr/mini/radiopieria.gif
p5382
sg14
V\u039a\u0391\u03a4\u0395\u03a1\u0399\u039d\u0397
p5383
sg25
V843
p5384
sg18
V\u03a1\u03ac\u03b4\u03b9\u03bf \u03a0\u03b9\u03b5\u03c1\u03af\u03b1 104,2
p5385
ssS'842'
p5386
(dp5387
g265
S'http://s5.onweb.gr:8418'
p5388
sg23
V/logos/gr/mini/sohos.gif
p5389
sg14
V\u0398\u0395\u03a3\u03a3\u0391\u039b\u039f\u039d\u0399\u039a\u0397
p5390
sg25
V842
p5391
sg18
V\u03a3\u03bf\u03c7\u03cc\u03c2 Fm 88,7
p5392
ssS'841'
p5393
(dp5394
g265
S'http://sentrafm.live24.gr/sentrafm'
p5395
sg23
V/logos/gr/mini/sendrafm.gif
p5396
sg14
V\u0391\u0398\u0397\u039d\u0391
p5397
sg25
V841
p5398
sg18
VSentra Fm 103,3
p5399
ssS'848'
p5400
(dp5401
g476
S'http://178.33.248.236:8006'
p5402
sg23
V/logos/gr/mini/funradio.gif
p5403
sg14
VINTERNET RADIO
p5404
sg25
V848
p5405
sg18
VFun Radio 
p5406
ssS'1841'
p5407
(dp5408
g476
S'http://85.17.30.90:8044'
p5409
sg23
V/logos/gr/mini/star957.gif
p5410
sg14
V\u0399\u03a9\u0391\u039d\u039d\u0399\u039d\u0391
p5411
sg25
V1841
p5412
sg18
VStar 95,7
p5413
ssS'2077'
p5414
(dp5415
g4668
S'http://s6.onweb.gr:8080/;'
p5416
sg63
Vhttp://cdn.e-radio.gr/logos/gr/mini/imparonaxias.png
p5417
sg65
V\u039d\u0391\u039e\u039f\u03a3
p5418
sg67
V2077
p5419
sg69
V\u0399.\u039c. \u03a0\u03b1\u03c1\u03bf\u03bd\u03b1\u03be\u03af\u03b1\u03c2
p5420
ssS'1794'
p5421
(dp5422
g4668
S'http://live.onestreaming.com/fm1076'
p5423
sg63
Vhttp://cdn.e-radio.gr/logos/cy/mini/fm1076.png
p5424
sg65
V\u039b\u0395\u03a5\u039a\u03a9\u03a3\u0399\u0391
p5425
sg67
V1794
p5426
sg69
VRadio 107,6 FM
p5427
ssS'1443'
p5428
(dp5429
g265
S'http://live.onestreaming.com/koziani'
p5430
sg23
V/logos/gr/mini/koziani.gif
p5431
sg14
V\u039a\u039f\u0396\u0391\u039d\u0397
p5432
sg25
V1443
p5433
sg18
VInternet Radio Koziani 
p5434
ssS'430'
p5435
(dp5436
g23
V/logos/gr/mini/rodosfm.gif
p5437
sg14
V\u03a1\u039f\u0394\u039f\u03a3
p5438
sg25
V430
p5439
sg18
VRodos Fm 90,7
p5440
ssS'161'
p5441
(dp5442
g4668
S'http://live.onestreaming.com/super'
p5443
sg63
Vhttp://cdn.e-radio.gr/logos/cy/mini/super.png
p5444
sg65
V\u039b\u0395\u03a5\u039a\u03a9\u03a3\u0399\u0391
p5445
sg67
V161
p5446
sg69
VSuper FM
p5447
ssS'424'
p5448
(dp5449
g476
S'http://208.43.81.168:8748'
p5450
sg23
V/logos/gr/mini/ioanninadj.gif
p5451
sg14
V\u0399\u03a9\u0391\u039d\u039d\u0399\u039d\u0391
p5452
sg25
V424
p5453
sg18
V\u0399\u03c9\u03ac\u03bd\u03bd\u03b9\u03bd\u03b1 Deejay 89,6
p5454
ssS'1986'
p5455
(dp5456
g476
S'http://streamyourdream.org:8000/perfect'
p5457
sg23
V/logos/gr/mini/perfect1033.gif
p5458
sg14
V\u0392\u039f\u039b\u039f\u03a3
p5459
sg25
V1986
p5460
sg18
VPerfect Radio 103,3
p5461
ssS'1987'
p5462
(dp5463
g23
V/logos/gr/mini/myvita.gif
p5464
sg14
V\u0397\u03a1\u0391\u039a\u039b\u0395\u0399\u039f
p5465
sg25
V1987
p5466
sg18
VMyVita Radio 
p5467
ssS'1984'
p5468
(dp5469
g4668
S'http://eco.onestreaming.com:8382/;'
p5470
sg63
Vhttp://cdn.e-radio.gr/logos/gr/mini/radionorth.png
p5471
sg65
V\u0398\u0395\u03a3\u03a3\u0391\u039b\u039f\u039d\u0399\u039a\u0397
p5472
sg67
V1984
p5473
sg69
VRadio North
p5474
ssS'1982'
p5475
(dp5476
g476
S'http://208.43.115.44:8138'
p5477
sg23
V/logos/gr/mini/cannibal.gif
p5478
sg14
VINTERNET RADIO
p5479
sg25
V1982
p5480
sg18
VCannibal Radio 
p5481
ssS'1983'
p5482
(dp5483
g476
S'http://stream.radiojar.com/trollradio-gr.mp3'
p5484
sg23
V/logos/gr/mini/troll.gif
p5485
sg14
V\u0391\u0398\u0397\u039d\u0391
p5486
sg25
V1983
p5487
sg18
VTroll Radio 
p5488
ssS'1980'
p5489
(dp5490
g265
S'http://live.onestreaming.com/antonisradio'
p5491
sg23
V/logos/gr/mini/antonisradio.gif
p5492
sg14
VINTERNET RADIO
p5493
sg25
V1980
p5494
sg18
VAntonis Radio 
p5495
ssS'1981'
p5496
(dp5497
g23
V/logos/gr/mini/melodiatrikala.gif
p5498
sg14
V\u03a4\u03a1\u0399\u039a\u0391\u039b\u0391
p5499
sg25
V1981
p5500
sg18
V\u03a1\u03ac\u03b4\u03b9\u03bf \u039c\u03b5\u03bb\u03c9\u03b4\u03af\u03b1 95,6
p5501
ssS'181'
p5502
(dp5503
g265
S'http://golive.onestreaming.com/ydrogeios'
p5504
sg23
V/logos/gr/mini/ydrogeios.gif
p5505
sg14
V\u0397\u03a1\u0391\u039a\u039b\u0395\u0399\u039f
p5506
sg25
V181
p5507
sg18
V\u03a5\u03b4\u03c1\u03cc\u03b3\u03b5\u03b9\u03bf\u03c2 106,9
p5508
ssS'1988'
p5509
(dp5510
g476
S'http://s1.viastreaming.net:7430'
p5511
sg23
V/logos/gr/mini/nologo.gif
p5512
sg14
V\u0398\u0395\u03a3\u03a3\u0391\u039b\u039f\u039d\u0399\u039a\u0397
p5513
sg25
V1988
p5514
sg18
VCafe \u0388\u03bd\u03c4\u03b5\u03c7\u03bd\u03bf\u03bd 
p5515
ssS'1989'
p5516
(dp5517
g476
S'http://s1.onweb.gr:8432'
p5518
sg23
V/logos/gr/mini/iak.gif
p5519
sg14
V\u0397\u03a1\u0391\u039a\u039b\u0395\u0399\u039f
p5520
sg25
V1989
p5521
sg18
V\u0399\u03b5\u03c1\u03ac \u0391\u03c1\u03c7\u03b9\u03b5\u03c0\u03b9\u03c3\u03ba\u03bf\u03c0\u03ae \u039a\u03c1\u03ae\u03c4\u03b7\u03c2 99,7
p5522
ssS'1108'
p5523
(dp5524
g476
S'http://eco.onestreaming.com:8105'
p5525
sg23
V/logos/gr/mini/original944.gif
p5526
sg14
V\u03a7\u0391\u039d\u0399\u0391
p5527
sg25
V1108
p5528
sg18
VOriginal 94,4
p5529
ssS'752'
p5530
(dp5531
g23
V/logos/gr/mini/studioe.gif
p5532
sg14
V\u0399\u03a9\u0391\u039d\u039d\u0399\u039d\u0391
p5533
sg25
V752
p5534
sg18
VStudio E 103
p5535
ssS'751'
p5536
(dp5537
g4668
S'http://eco.onestreaming.com:8140/;'
p5538
sg63
Vhttp://cdn.e-radio.gr/logos/cy/mini/ant1cy.png
p5539
sg65
V\u039b\u0395\u03a5\u039a\u03a9\u03a3\u0399\u0391
p5540
sg67
V751
p5541
sg69
VAnt1 Fm
p5542
ssS'981'
p5543
(dp5544
g23
V/logos/gr/mini/nologo.gif
p5545
sg14
V\u039a\u03a9\u03a3
p5546
sg25
V981
p5547
sg18
V\u03a1\u03ac\u03b4\u03b9\u03bf \u039a\u03c9\u03c2 98
p5548
ssS'757'
p5549
(dp5550
g265
S'http://live.onestreaming.com/jetaime'
p5551
sg23
V/logos/gr/mini/jetaime.gif
p5552
sg14
V\u0391\u0398\u0397\u039d\u0391
p5553
sg25
V757
p5554
sg18
VAM Je t'aime 93,4
p5555
ssS'754'
p5556
(dp5557
g265
S'http://live.onestreaming.com/ant1santorinis'
p5558
sg23
V/logos/gr/mini/ant1santorinis.gif
p5559
sg14
V\u03a3\u0391\u039d\u03a4\u039f\u03a1\u0399\u039d\u0397
p5560
sg25
V754
p5561
sg18
VRadio Faros 105,9
p5562
ssS'759'
p5563
(dp5564
g476
S'http://s3.onweb.gr:8436'
p5565
sg23
V/logos/gr/mini/radiodeth.gif
p5566
sg14
V\u0398\u0395\u03a3\u03a3\u0391\u039b\u039f\u039d\u0399\u039a\u0397
p5567
sg25
V759
p5568
sg18
V\u03a1\u03ac\u03b4\u03b9\u03bf \u0394\u0395\u0398 104,9
p5569
ssS'509'
p5570
(dp5571
g265
S'http://live.onestreaming.com/style100'
p5572
sg23
V/logos/gr/mini/style100.gif
p5573
sg14
V\u03a3H\u03a4\u0395\u0399\u0391
p5574
sg25
V509
p5575
sg18
VStyle 100
p5576
ssS'739'
p5577
(dp5578
g476
S'http://188.40.131.14:9988'
p5579
sg23
V/logos/gr/mini/mesologgi.gif
p5580
sg14
V\u039c\u0395\u03a3\u039f\u039b\u039f\u0393\u0393\u0399
p5581
sg25
V739
p5582
sg18
V\u03a1\u03b1\u03b4\u03b9\u03cc\u03c6\u03c9\u03bd\u03bf \u039c\u03b5\u03c3\u03bf\u03bb\u03bf\u03b3\u03b3\u03af\u03bf\u03c5 92
p5583
ssS'2181'
p5584
(dp5585
g4668
S'http://eco.onestreaming.com:8496/;'
p5586
sg63
Vhttp://cdn.e-radio.gr/logos/gr/mini/free.png
p5587
sg65
VINTERNET RADIO
p5588
sg67
V2181
p5589
sg69
VFREE Radio
p5590
ssS'2180'
p5591
(dp5592
g4668
S'http://50.22.217.113:21430/;'
p5593
sg63
Vhttp://cdn.e-radio.gr/logos/gr/mini/focusthess.png
p5594
sg65
V\u0398\u0395\u03a3\u03a3\u0391\u039b\u039f\u039d\u0399\u039a\u0397
p5595
sg67
V2180
p5596
sg69
VFocus
p5597
ssS'2187'
p5598
(dp5599
g4668
S'http://46.227.60.32:8104/;'
p5600
sg63
Vhttp://cdn.e-radio.gr/logos/gr/mini/anapafsas.png
p5601
sg65
VINTERNET RADIO
p5602
sg67
V2187
p5603
sg69
V\u03a1\u03ac\u03b4\u03b9\u03bf \u039c\u03b5\u03c4\u03ad\u03c9\u03c1\u03b1 \u039f \u0391\u03bd\u03b1\u03c0\u03b1\u03c5\u03c3\u03ac\u03c2
p5604
ssS'2186'
p5605
(dp5606
g4668
S'http://eco.onestreaming.com:8360/;'
p5607
sg63
Vhttp://cdn.e-radio.gr/logos/gr/mini/nologo.png
p5608
sg65
VINTERNET RADIO
p5609
sg67
V2186
p5610
sg69
VLivingroom
p5611
ssS'2185'
p5612
(dp5613
g63
Vhttp://cdn.e-radio.gr/logos/gr/mini/hwr.png
p5614
sg65
V
sg67
V2185
p5615
sg69
VHellenic World Radio
p5616
ssS'2184'
p5617
(dp5618
g4668
S'http://eco.onestreaming.com:8498/;'
p5619
sg63
Vhttp://cdn.e-radio.gr/logos/gr/mini/imk.png
p5620
sg65
VINTERNET RADIO
p5621
sg67
V2184
p5622
sg69
V\u0399.\u039c. \u039a\u03b1\u03c3\u03c4\u03bf\u03c1\u03b9\u03ac\u03c2
p5623
ssS'226'
p5624
(dp5625
g476
S'http://shout.streamwithq.gr:4168'
p5626
sg23
V/logos/gr/mini/radiopreveza.gif
p5627
sg14
V\u03a0\u03a1\u0395\u0392\u0395\u0396\u0391
p5628
sg25
V226
p5629
sg18
V\u03a1\u03ac\u03b4\u03b9\u03bf \u03a0\u03c1\u03ad\u03b2\u03b5\u03b6\u03b1 93
p5630
ssS'2188'
p5631
(dp5632
g2493
S'http://78.46.37.77:8000/stream'
p5633
sg63
Vhttp://cdn.e-radio.gr/logos/gr/mini/musicplaygr.png
p5634
sg65
VINTERNET RADIO
p5635
sg67
V2188
p5636
sg69
VMusicPlay
p5637
ssS'2074'
p5638
(dp5639
g63
Vhttp://cdn.e-radio.gr/logos/gr/mini/layriokapsoyra.png
p5640
sg65
VINTERNET RADIO
p5641
sg67
V2074
p5642
sg69
V\u039b\u03b1\u03cd\u03c1\u03b9\u03bf \u039a\u03b1\u03c8\u03bf\u03cd\u03c1\u03b1
p5643
ssS'221'
p5644
(dp5645
g265
S'http://golive.onestreaming.com/sport103'
p5646
sg23
V/logos/gr/mini/sport103.gif
p5647
sg14
V\u0398\u0395\u03a3\u03a3\u0391\u039b\u039f\u039d\u0399\u039a\u0397
p5648
sg25
V221
p5649
sg18
VSport 103
p5650
ssS'220'
p5651
(dp5652
g1169
S'http://sc2.greekstream.net:4012'
p5653
sg23
V/logos/gr/mini/ekfrasi.gif
p5654
sg14
V\u0398\u0395\u03a3\u03a3\u0391\u039b\u039f\u039d\u0399\u039a\u0397
p5655
sg25
V220
p5656
sg18
V\u03a1\u03ac\u03b4\u03b9\u03bf \u0388\u03ba\u03c6\u03c1\u03b1\u03c3\u03b7 92,4
p5657
ssS'505'
p5658
(dp5659
g23
V/logos/gr/mini/fasmafm.gif
p5660
sg14
V\u03a0\u03a4\u039f\u039bE\u039c\u0391\u0399\u0394\u0391
p5661
sg25
V505
p5662
sg18
V\u03a6\u03ac\u03c3\u03bc\u03b1 103
p5663
ssS'114'
p5664
(dp5665
g265
S'http://kissfm.live24.gr/kiss2111'
p5666
sg23
V/logos/gr/mini/kissfm.gif
p5667
sg14
V\u0391\u0398\u0397\u039d\u0391
p5668
sg25
V114
p5669
sg18
VKiss Fm 92,9
p5670
ssS'1029'
p5671
(dp5672
g63
Vhttp://cdn.e-radio.gr/logos/gr/mini/spicy.png
p5673
sg65
V\u0397\u03a1\u0391\u039a\u039b\u0395\u0399\u039f
p5674
sg67
V1029
p5675
sg69
VSpicy Radio
p5676
ssS'1028'
p5677
(dp5678
g1169
S'http://85.17.30.90:8078'
p5679
sg23
V/logos/gr/mini/river1066.gif
p5680
sg14
V\u039b\u0391\u03a1\u0399\u03a3\u0391
p5681
sg25
V1028
p5682
sg18
VRiver FM 106,6
p5683
ssS'1180'
p5684
(dp5685
g4668
S'http://radiofeeds1.mediabox.gr/life916'
p5686
sg63
Vhttp://cdn.e-radio.gr/logos/gr/mini/nologo.png
p5687
sg65
V\u03a0\u03a5\u03a1\u0393\u039f\u03a3
p5688
sg67
V1180
p5689
sg69
VLife FM
p5690
ssS'1181'
p5691
(dp5692
g4668
S'http://eco.onestreaming.com:8426/;'
p5693
sg63
Vhttp://cdn.e-radio.gr/logos/gr/mini/athos.png
p5694
sg65
V\u039d\u0395\u0391 \u039c\u039f\u03a5\u0394\u0391\u039d\u0399\u0391
p5695
sg67
V1181
p5696
sg69
V\u0386\u03b8\u03c9\u03c2
p5697
ssS'726'
p5698
(dp5699
g1169
S'http://174.36.237.66:9450'
p5700
sg23
V/logos/gr/mini/nologo.gif
p5701
sg14
V\u0399\u03a9\u0391\u039d\u039d\u0399\u039d\u0391
p5702
sg25
V726
p5703
sg18
V\u03a1\u03ac\u03b4\u03b9\u03bf \u0397\u03c0\u03b5\u03b9\u03c1\u03bf\u03c2 94,5
p5704
ssS'727'
p5705
(dp5706
g1169
S'http://70.38.101.150:8012'
p5707
sg23
V/logos/gr/mini/feverkoz.gif
p5708
sg14
V\u039a\u039f\u0396\u0391\u039d\u0397
p5709
sg25
V727
p5710
sg18
VFever Radio 106,3
p5711
ssS'1205'
p5712
(dp5713
g63
Vhttp://cdn.e-radio.gr/logos/gr/mini/spirit.png
p5714
sg65
VINTERNET RADIO
p5715
sg67
V1205
p5716
sg69
VRadio Spirit
p5717
ssS'725'
p5718
(dp5719
g23
V/logos/gr/mini/nologo.gif
p5720
sg14
V\u039b\u0391\u03a1\u0399\u03a3\u0391
p5721
sg25
V725
p5722
sg18
VBest Fm 93,3
p5723
ssS'722'
p5724
(dp5725
g265
S'http://vimafm.live24.gr/vimafm'
p5726
sg23
V/logos/gr/mini/vimafm995.gif
p5727
sg14
V\u0391\u0398\u0397\u039d\u0391
p5728
sg25
V722
p5729
sg18
V\u0392\u03b7\u03bc\u03b1 Fm 99,5
p5730
ssS'721'
p5731
(dp5732
g4668
S'http://rock.istoikona.com/kiss'
p5733
sg63
Vhttp://cdn.e-radio.gr/logos/cy/mini/kissgold.png
p5734
sg65
V\u039b\u0395\u03a5\u039a\u03a9\u03a3\u0399\u0391
p5735
sg67
V721
p5736
sg69
VKiss Gold
p5737
ssS'1160'
p5738
(dp5739
g265
S'http://legacy-100-ams.servers.mediacdn.com/maxfm93-4-patra'
p5740
sg23
V/logos/gr/mini/maxfm934.gif
p5741
sg14
V\u03a0\u0391\u03a4\u03a1\u0391
p5742
sg25
V1160
p5743
sg18
VMax FM 93,4
p5744
ssS'501'
p5745
(dp5746
g476
S'http://eco.onestreaming.com:8129'
p5747
sg23
V/logos/gr/mini/melodiafm.gif
p5748
sg14
V\u039b\u0391\u039c\u0399\u0391
p5749
sg25
V501
p5750
sg18
V\u039c\u03b5\u03bb\u03c9\u03b4\u03af\u03b1 Fm 88
p5751
ssS'936'
p5752
(dp5753
g476
S'http://85.17.238.96:8060'
p5754
sg23
V/logos/gr/mini/radioart.gif
p5755
sg14
VINTERNET RADIO
p5756
sg25
V936
p5757
sg18
VRadio Art 2 
p5758
ssS'728'
p5759
(dp5760
g23
V/logos/gr/mini/tripradio.gif
p5761
sg14
VINTERNET RADIO
p5762
sg25
V728
p5763
sg18
VTrip Radio 
p5764
ssS'151'
p5765
(dp5766
g4668
S'http://live.onestreaming.com/klikfm'
p5767
sg63
Vhttp://cdn.e-radio.gr/logos/cy/mini/klik.png
p5768
sg65
V\u039b\u0395\u03a5\u039a\u03a9\u03a3\u0399\u0391
p5769
sg67
V151
p5770
sg69
VKlik FM
p5771
ssS'150'
p5772
(dp5773
g2493
S'http://live.onestreaming.com/lgr'
p5774
sg63
Vhttp://cdn.e-radio.gr/logos/cy/mini/LGR.png
p5775
sg65
VLONDON
p5776
sg67
V150
p5777
sg69
VLondon Greek Radio
p5778
ssS'153'
p5779
(dp5780
g4668
S'http://stream.dnsgb.net:8012/;'
p5781
sg63
Vhttp://cdn.e-radio.gr/logos/cy/mini/kanali6.png
p5782
sg65
V\u039b\u0395\u039c\u0395\u03a3\u039f\u03a3
p5783
sg67
V153
p5784
sg69
V\u039a\u03b1\u03bd\u03ac\u03bb\u03b9 \u0395\u03be\u03b9
p5785
ssS'152'
p5786
(dp5787
g4668
S'http://livecy.onestreaming.com/kiss'
p5788
sg63
Vhttp://cdn.e-radio.gr/logos/cy/mini/kiss.png
p5789
sg65
V\u039b\u0395\u03a5\u039a\u03a9\u03a3\u0399\u0391
p5790
sg67
V152
p5791
sg69
VKiss
p5792
ssS'155'
p5793
(dp5794
S'url'
p5795
S'http://livecy.onestreaming.com/logos'
p5796
sg63
Vhttp://cdn.e-radio.gr/logos/cy/mini/logos.png
p5797
sg65
V\u039b\u0395\u03a5\u039a\u03a9\u03a3\u0399\u0391
p5798
sg67
V155
p5799
sg69
V\u039b\u03cc\u03b3\u03bf\u03c2 Radio
p5800
ssS'154'
p5801
(dp5802
g63
Vhttp://cdn.e-radio.gr/logos/cy/mini/pafosfm.png
p5803
sg65
V\u03a0\u0391\u03a6\u039f\u03a3
p5804
sg67
V154
p5805
sg69
V\u03a0\u03ac\u03c6\u03bf\u03c2 \u03a1\u03ac\u03b4\u03b9\u03bf
p5806
ssS'157'
p5807
(dp5808
g63
Vhttp://cdn.e-radio.gr/logos/cy/mini/love.png
p5809
sg65
V\u039b\u0395\u03a5\u039a\u03a9\u03a3\u0399\u0391
p5810
sg67
V157
p5811
sg69
VLove FM
p5812
ssS'156'
p5813
(dp5814
g4668
S'http://live.onestreaming.com/mixfm'
p5815
sg63
Vhttp://cdn.e-radio.gr/logos/cy/mini/mixfmcyprus.png
p5816
sg65
V\u039b\u0395\u03a5\u039a\u03a9\u03a3\u0399\u0391
p5817
sg67
V156
p5818
sg69
VMixFm
p5819
ssS'159'
p5820
(dp5821
g5795
S'http://livecy.onestreaming.com/rockfm'
p5822
sg63
Vhttp://cdn.e-radio.gr/logos/cy/mini/rockfmcy.png
p5823
sg65
V\u03a0\u0391\u03a6\u039f\u03a3
p5824
sg67
V159
p5825
sg69
VRock FM
p5826
ssS'158'
p5827
(dp5828
g4668
S'http://livecy.onestreaming.com/radioproto'
p5829
sg63
Vhttp://cdn.e-radio.gr/logos/cy/mini/proto.png
p5830
sg65
V\u039b\u0395\u03a5\u039a\u03a9\u03a3\u0399\u0391
p5831
sg67
V158
p5832
sg69
V\u03a1\u03ac\u03b4\u03b9\u03bf \u03a0\u03c1\u03ce\u03c4\u03bf
p5833
ssS'1207'
p5834
(dp5835
g23
V/logos/gr/mini/psradio.gif
p5836
sg14
VINTERNET RADIO
p5837
sg25
V1207
p5838
sg18
VPs Radio 
p5839
ssS'1203'
p5840
(dp5841
g265
S'http://live.onestreaming.com/notesserres'
p5842
sg23
V/logos/gr/mini/notesserres.gif
p5843
sg14
V\u03a3\u0395\u03a1\u03a1\u0395\u03a3
p5844
sg25
V1203
p5845
sg18
VN\u03cc\u03c4\u03b5\u03c2 FM 106
p5846
ssS'633'
p5847
(dp5848
g265
S'http://live.onestreaming.com/politia'
p5849
sg23
V/logos/gr/mini/politia.gif
p5850
sg14
V\u03a3\u03a0\u0391\u03a1\u03a4\u0397
p5851
sg25
V633
p5852
sg18
V\u03a0\u03bf\u03bb\u03b9\u03c4\u03b5\u03af\u03b1 90,7
p5853
ssS'1899'
p5854
(dp5855
g1169
S'http://99.198.118.250:8008/live'
p5856
sg23
V/logos/gr/mini/mustathens.gif
p5857
sg14
VINTERNET RADIO
p5858
sg25
V1899
p5859
sg18
VRadio Must Athens 
p5860
ssS'634'
p5861
(dp5862
g265
S'http://live.onestreaming.com/avanti'
p5863
sg23
V/logos/gr/mini/avantiradio.gif
p5864
sg14
V\u03a3\u039a\u0399\u0391\u0398\u039f\u03a3
p5865
sg25
V634
p5866
sg18
VAvanti Fm 98,3
p5867
ssS'1896'
p5868
(dp5869
g23
V/logos/gr/mini/nologo.gif
p5870
sg14
VINTERNET RADIO
p5871
sg25
V1896
p5872
sg18
VSteezy Radio 
p5873
ssS'1897'
p5874
(dp5875
g1169
S'http://eco.onestreaming.com:8125'
p5876
sg23
V/logos/gr/mini/milos108.gif
p5877
sg14
V\u039c\u0397\u039b\u039f\u03a3
p5878
sg25
V1897
p5879
sg18
V\u039c\u03ae\u03bb\u03bf\u03c2 108 108
p5880
ssS'1890'
p5881
(dp5882
g23
V/logos/gr/mini/radiofasi.gif
p5883
sg14
V\u0398\u0395\u03a3\u03a3\u0391\u039b\u039f\u039d\u0399\u039a\u0397
p5884
sg25
V1890
p5885
sg18
V\u03a1\u03ac\u03b4\u03b9\u03bf \u03a6\u03ac\u03c3\u03b7 
p5886
ssS'1891'
p5887
(dp5888
g1169
S'http://www.iek-akmi.gr:9998'
p5889
sg23
V/logos/gr/mini/iekakmi.gif
p5890
sg14
V\u0391\u0398\u0397\u039d\u0391
p5891
sg25
V1891
p5892
sg18
V\u0391\u039a\u039c\u0397 Radio 
p5893
ssS'1892'
p5894
(dp5895
g1169
S'http://94.100.18.210:8022'
p5896
sg23
V/logos/gr/mini/flippin.gif
p5897
sg14
VINTERNET RADIO
p5898
sg25
V1892
p5899
sg18
VFlippinradio 
p5900
ssS'468'
p5901
(dp5902
g265
S'http://derti.live24.gr/derty1000'
p5903
sg23
V/logos/gr/mini/derti.gif
p5904
sg14
V\u0391\u0398\u0397\u039d\u0391
p5905
sg25
V468
p5906
sg18
VDerti 98,6
p5907
ssS'2136'
p5908
(dp5909
g4668
S'http://streaming.multiserver.gr:8026/;'
p5910
sg63
Vhttp://cdn.e-radio.gr/logos/gr/mini/athlitikos.png
p5911
sg65
V\u039a\u0391\u03a4\u0395\u03a1\u0399\u039d\u0397
p5912
sg67
V2136
p5913
sg69
V\u0391\u03b8\u03bb\u03b7\u03c4\u03b9\u03ba\u03cc\u03c2
p5914
ssS'958'
p5915
(dp5916
g265
S'http://live.onestreaming.com/super88'
p5917
sg23
V/logos/gr/mini/super88.gif
p5918
sg14
V\u039e\u0391\u039d\u0398\u0397
p5919
sg25
V958
p5920
sg18
VSuper 88
p5921
ssS'2134'
p5922
(dp5923
g4668
S'http://eco.onestreaming.com:8464/;'
p5924
sg63
Vhttp://cdn.e-radio.gr/logos/gr/mini/kick.png
p5925
sg65
VINTERNET RADIO
p5926
sg67
V2134
p5927
sg69
VKick Radio
p5928
ssS'2135'
p5929
(dp5930
g4668
S'http://s4.onweb.gr:8062/;'
p5931
sg63
Vhttp://cdn.e-radio.gr/logos/gr/mini/energyweb.png
p5932
sg65
VINTERNET RADIO
p5933
sg67
V2135
p5934
sg69
VEnergy Web Radio
p5935
ssS'2132'
p5936
(dp5937
g63
Vhttp://cdn.e-radio.gr/logos/gr/mini/path.png
p5938
sg65
VINTERNET RADIO
p5939
sg67
V2132
p5940
sg69
VPath
p5941
ssS'2133'
p5942
(dp5943
g4668
S'http://178.63.80.9:9978/;'
p5944
sg63
Vhttp://cdn.e-radio.gr/logos/gr/mini/anyway.png
p5945
sg65
VINTERNET RADIO
p5946
sg67
V2133
p5947
sg69
VAnyway Radio
p5948
ssS'2130'
p5949
(dp5950
g4668
S'http://eco.onestreaming.com:8460/;'
p5951
sg63
Vhttp://cdn.e-radio.gr/logos/gr/mini/arta1015.png
p5952
sg65
V\u0391\u03a1\u03a4\u0391
p5953
sg67
V2130
p5954
sg69
V\u03a1\u03ac\u03b4\u03b9\u03bf A\u03c1\u03c4\u03b1
p5955
ssS'2003'
p5956
(dp5957
g23
V/logos/gr/mini/radioparis.gif
p5958
sg14
V\u03a1\u039f\u0394\u039f\u03a3
p5959
sg25
V2003
p5960
sg18
VRadio Paris 
p5961
ssS'46'
p5962
(dp5963
S'url'
p5964
S'http://s1.onweb.gr:8860'
p5965
sg23
V/logos/gr/mini/stylidafm.gif
p5966
sg14
V\u039b\u0391\u039c\u0399\u0391
p5967
sg25
V46
p5968
sg18
VStylida Fm 94,1
p5969
ssS'950'
p5970
(dp5971
g23
V/logos/gr/mini/ixoxromma.gif
p5972
sg14
VINTERNET RADIO
p5973
sg25
V950
p5974
sg18
V\u03a7\u03c1\u03ce\u03bc\u03b1\u03c4\u03b1 \u0388\u03c1\u03c9\u03c4\u03bf\u03c2 
p5975
ssS'44'
p5976
(dp5977
g5964
S'http://s1.onweb.gr:8096'
p5978
sg23
V/logos/gr/mini/936.gif
p5979
sg14
V\u039a\u03a5\u03a0\u0391\u03a1\u0399\u03a3\u03a3\u0399\u0391
p5980
sg25
V44
p5981
sg18
V\u03a1\u03ac\u03b4\u03b9\u03bf \u039a\u03c5\u03c0\u03b1\u03c1\u03b9\u03c3\u03c3\u03af\u03b1 93,6
p5982
ssS'45'
p5983
(dp5984
g573
S'http://legacy-100-ams.servers.mediacdn.com/enaplus'
p5985
sg23
V/logos/gr/mini/chroma985.gif
p5986
sg14
V\u039b\u0391\u039c\u0399\u0391
p5987
sg25
V45
p5988
sg18
V\u03a7\u03c1\u03ce\u03bc\u03b1 98,5
p5989
ssS'955'
p5990
(dp5991
g265
S'http://live.onestreaming.com/makistia'
p5992
sg23
V/logos/gr/mini/makistia.gif
p5993
sg14
V\u03a0\u03a5\u03a1\u0393\u039f\u03a3
p5994
sg25
V955
p5995
sg18
V\u03a1\u03ac\u03b4\u03b9\u03bf \u039c\u03b1\u03ba\u03b9\u03c3\u03c4\u03af\u03b1 98,6
p5996
ssS'954'
p5997
(dp5998
g23
V/logos/gr/mini/star884.gif
p5999
sg14
V\u0397\u03a1\u0391\u039a\u039b\u0395\u0399\u039f
p6000
sg25
V954
p6001
sg18
VStar 88,4
p6002
ssS'2138'
p6003
(dp6004
g4668
S'http://89.40.221.213:36800/;'
p6005
sg63
Vhttp://cdn.e-radio.gr/logos/gr/mini/my80s.png
p6006
sg65
VINTERNET RADIO
p6007
sg67
V2138
p6008
sg69
VMy 80s
p6009
ssS'2139'
p6010
(dp6011
g4668
S'http://www.parearadio.gr:8000/;'
p6012
sg63
Vhttp://cdn.e-radio.gr/logos/gr/mini/parearadio.png
p6013
sg65
VINTERNET RADIO
p6014
sg67
V2139
p6015
sg69
VParea Radio
p6016
ssS'2001'
p6017
(dp6018
g3338
S'http://s7.onweb.gr:8552'
p6019
sg23
V/logos/gr/mini/myradiokarditsa.gif
p6020
sg14
V\u039a\u0391\u03a1\u0394\u0399\u03a4\u03a3\u0391
p6021
sg25
V2001
p6022
sg18
VMy Radio 
p6023
ssS'1112'
p6024
(dp6025
g23
V/logos/gr/mini/diavlosdramas.gif
p6026
sg14
V\u0394\u03a1\u0391\u039c\u0391
p6027
sg25
V1112
p6028
sg18
V\u0394\u03af\u03b1\u03c5\u03bb\u03bf\u03c2 \u0394\u03c1\u03ac\u03bc\u03b1\u03c2 93
p6029
ssS'5'
(dp6030
g265
S'http://golive.onestreaming.com/arion2'
p6031
sg23
V/logos/gr/mini/arion_2.gif
p6032
sg14
V\u0391\u0398\u0397\u039d\u0391
p6033
sg25
V5
sg18
VArion 2 
p6034
ssS'2006'
p6035
(dp6036
g23
V/logos/gr/mini/nologo.gif
p6037
sg14
VINTERNET RADIO
p6038
sg25
V2006
p6039
sg18
VSok Radio 
p6040
ssS'467'
p6041
(dp6042
g63
Vhttp://cdn.e-radio.gr/logos/gr/mini/spam.png
p6043
sg65
VINTERNET RADIO
p6044
sg67
V467
p6045
sg69
VSpam Radio
p6046
ssS'374'
p6047
(dp6048
S'url'
p6049
S'http://eco.onestreaming.com:8280/;'
p6050
sg63
Vhttp://cdn.e-radio.gr/logos/gr/mini/echoparos.png
p6051
sg65
V\u03a0\u0391\u03a1\u039f\u03a3 - \u0391\u039d\u03a4\u0399\u03a0\u0391\u03a1\u039f\u03a3
p6052
sg67
V374
p6053
sg69
V\u0397\u03c7\u03ce FM
p6054
ssS'1713'
p6055
(dp6056
g23
V/logos/gr/mini/romeos.gif
p6057
sg14
V\u0399\u03a9\u0391\u039d\u039d\u0399\u039d\u0391
p6058
sg25
V1713
p6059
sg18
V\u03a1\u03ac\u03b4\u03b9\u03bf \u03a1\u03c9\u03bc\u03b1\u03af\u03bf\u03c2 94
p6060
ssS'796'
p6061
(dp6062
g23
V/logos/gr/mini/cgs.gif
p6063
sg14
VINTERNET RADIO
p6064
sg25
V796
p6065
sg18
V\u0395\u03ba\u03c0\u03b1\u03b9\u03b4\u03b5\u03c5\u03c4\u03ae\u03c1\u03b9\u03b1 \u039a\u03c9\u03c3\u03c4\u03ad\u03b1-\u0393\u03b5\u03af\u03c4\u03bf\u03bd\u03b1 
p6066
ssS'475'
p6067
(dp6068
g6049
S'http://live.onestreaming.com/russianwave'
p6069
sg63
Vhttp://cdn.e-radio.gr/logos/cy/mini/russianwave.png
p6070
sg65
V\u039b\u0395\u039c\u0395\u03a3\u039f\u03a3
p6071
sg67
V475
p6072
sg69
VRussianWave
p6073
ssS'460'
p6074
(dp6075
g23
V/logos/gr/mini/Hersonissos.gif
p6076
sg14
V\u0397\u03a1\u0391\u039a\u039b\u0395\u0399\u039f
p6077
sg25
V460
p6078
sg18
VRadio Hersonissos 97,2
p6079
ssS'280'
p6080
(dp6081
g6049
S'http://iservsp.mediacdn.com:80/athinaradio'
p6082
sg63
Vhttp://cdn.e-radio.gr/logos/gr/mini/parapolitikafm.png
p6083
sg65
V\u0391\u0398\u0397\u039d\u0391
p6084
sg67
V280
p6085
sg69
V\u03a0\u03b1\u03c1\u03b1\u03c0\u03bf\u03bb\u03b9\u03c4\u03b9\u03ba\u03ac FM
p6086
ssS'489'
p6087
(dp6088
g265
S'http://live.onestreaming.com/deltaradio'
p6089
sg23
V/logos/gr/mini/deltaradio.gif
p6090
sg14
V\u0398\u0395\u03a3\u03a3\u0391\u039b\u039f\u039d\u0399\u039a\u0397
p6091
sg25
V489
p6092
sg18
VIEK Delta Radio 
p6093
ssS'488'
p6094
(dp6095
g23
V/logos/gr/mini/knossosfm.gif
p6096
sg14
V\u0397\u03a1\u0391\u039a\u039b\u0395\u0399\u039f
p6097
sg25
V488
p6098
sg18
V\u039a\u03bd\u03c9\u03c3\u03c3\u03cc\u03c2 Fm 100,6
p6099
ssS'484'
p6100
(dp6101
g265
S'http://mediaserver.mad.tv:33333/madradio'
p6102
sg23
V/logos/gr/mini/madradio.gif
p6103
sg14
V\u0391\u0398\u0397\u039d\u0391
p6104
sg25
V484
p6105
sg18
VMad Radio 106,2
p6106
ssS'482'
p6107
(dp6108
g3338
S'http://s3.onweb.gr:8438'
p6109
sg23
V/logos/gr/mini/radioclub.gif
p6110
sg14
V\u03a4\u03a1\u0399\u039a\u0391\u039b\u0391
p6111
sg25
V482
p6112
sg18
V\u039b\u03ad\u03c3\u03c7\u03b7 97,6
p6113
ssS'480'
p6114
(dp6115
g3338
S'http://46.4.65.194:8025'
p6116
sg23
V/logos/gr/mini/star929.gif
p6117
sg14
V\u039d\u0391\u03a5\u03a0\u039b\u0399\u039f
p6118
sg25
V480
p6119
sg18
VStar Fm 92,9
p6120
ssS'1807'
p6121
(dp6122
g23
V/logos/gr/mini/nologo.gif
p6123
sg14
V\u0397\u03a1\u0391\u039a\u039b\u0395\u0399\u039f
p6124
sg25
V1807
p6125
sg18
VYouRadio 89
p6126
ssS'1806'
p6127
(dp6128
g3338
S'http://stream.myip.gr:8020'
p6129
sg23
V/logos/gr/mini/cosmos896.gif
p6130
sg14
V\u039a\u0391\u0392\u0391\u039b\u0391
p6131
sg25
V1806
p6132
sg18
VCosmos Fm 92,6
p6133
ssS'1805'
p6134
(dp6135
g3338
S'http://www.streamyourdream.org:8000/urbanradio'
p6136
sg23
V/logos/gr/mini/urbanradiogr.gif
p6137
sg14
VINTERNET RADIO
p6138
sg25
V1805
p6139
sg18
VUrban Radio 
p6140
ssS'1804'
p6141
(dp6142
g3338
S'http://listen.radionomy.com/midnight-events-radio.m3u'
p6143
sg23
V/logos/gr/mini/midnightevents.gif
p6144
sg14
VINTERNET RADIO
p6145
sg25
V1804
p6146
sg18
VMidnight Events Radio 
p6147
ssS'1803'
p6148
(dp6149
g3338
S'http://eco.onestreaming.com:8079'
p6150
sg23
V/logos/gr/mini/bangee.gif
p6151
sg14
V\u039b\u0391\u03a1\u0399\u03a3\u0391
p6152
sg25
V1803
p6153
sg18
VBangee 
p6154
ssS'1802'
p6155
(dp6156
g265
S'http://s3.onweb.gr:8454'
p6157
sg23
V/logos/gr/mini/superfm896.gif
p6158
sg14
V\u03a7\u0391\u039d\u0399\u0391
p6159
sg25
V1802
p6160
sg18
VSuper FM 89,6
p6161
ssS'1801'
p6162
(dp6163
g23
V/logos/gr/mini/sportfmvolos.gif
p6164
sg14
V\u0392\u039f\u039b\u039f\u03a3
p6165
sg25
V1801
p6166
sg18
VSport FM 89,5
p6167
ssS'1860'
p6168
(dp6169
g23
V/logos/gr/mini/inathensgreek.gif
p6170
sg14
VINTERNET RADIO
p6171
sg25
V1860
p6172
sg18
VIn Athens Greek Radio 
p6173
ssS'2137'
p6174
(dp6175
g6049
S'http://netradio.live24.gr/gingeradio'
p6176
sg63
Vhttp://cdn.e-radio.gr/logos/gr/mini/ginger.png
p6177
sg65
VINTERNET RADIO
p6178
sg67
V2137
p6179
sg69
VGingeRadio
p6180
ssS'790'
p6181
(dp6182
g1743
S'http://sc2.greekstream.net:4010'
p6183
sg23
V/logos/gr/mini/coolfmeu.gif
p6184
sg14
VINTERNET RADIO
p6185
sg25
V790
p6186
sg18
VCool Radio 
p6187
ssS'1809'
p6188
(dp6189
g265
S'http://legacy-100-ams.servers.mediacdn.com/mea-limnos'
p6190
sg23
V/logos/gr/mini/nologo.gif
p6191
sg14
V\u039b\u0397\u039c\u039d\u039f\u03a3
p6192
sg25
V1809
p6193
sg18
V\u039c.\u0395.\u0391.\u03a3 \u03a1\u03ac\u03b4\u03b9\u03bf \u039b\u03ae\u03bc\u03bd\u03bf\u03c2 98
p6194
ssS'1808'
p6195
(dp6196
g23
V/logos/gr/mini/nologo.gif
p6197
sg14
V\u0395\u039b\u0391\u03a3\u03a3O\u039d\u0391
p6198
sg25
V1808
p6199
sg18
V\u0397 \u03a6\u03c9\u03bd\u03ae \u03c4\u03b7\u03c2 \u0395\u03bb\u03b1\u03c3\u03c3\u03cc\u03bd\u03b1\u03c2 
p6200
ssS'472'
p6201
(dp6202
g265
S'http://live.onestreaming.com/bestmytilini'
p6203
sg23
V/logos/gr/mini/bestmytilini.gif
p6204
sg14
V\u039c\u03a5\u03a4\u0399\u039b\u0397\u039d\u0397
p6205
sg25
V472
p6206
sg18
VBest Fm 98,1
p6207
ssS'473'
p6208
(dp6209
g23
V/logos/gr/mini/topfmioannina.gif
p6210
sg14
V\u0399\u03a9\u0391\u039d\u039d\u0399\u039d\u0391
p6211
sg25
V473
p6212
sg18
VTop Fm 
p6213
ssS'2000'
p6214
(dp6215
g3338
S'http://72.55.146.84:8020'
p6216
sg23
V/logos/gr/mini/sierakozani.gif
p6217
sg14
V\u03a3\u0399\u0391\u03a4\u0399\u03a3\u03a4\u0391
p6218
sg25
V2000
p6219
sg18
VSiera FM 105,3
p6220
ssS'1862'
p6221
(dp6222
g23
V/logos/gr/mini/buzz.gif
p6223
sg14
VINTERNET RADIO
p6224
sg25
V1862
p6225
sg18
VBUZZ Radio 
p6226
ssS'2126'
p6227
(dp6228
g6049
S'http://eco.onestreaming.com:8438/;'
p6229
sg63
Vhttp://cdn.e-radio.gr/logos/gr/mini/holiday949.png
p6230
sg65
V\u039b\u0397\u039c\u039d\u039f\u03a3
p6231
sg67
V2126
p6232
sg69
VHoliday Radio
p6233
ssS'2007'
p6234
(dp6235
g23
V/logos/gr/mini/nologo.gif
p6236
sg14
VINTERNET RADIO
p6237
sg25
V2007
p6238
sg18
VRadio Isart 
p6239
ssS'2004'
p6240
(dp6241
g23
V/logos/gr/mini/beton7art.gif
p6242
sg14
VINTERNET RADIO
p6243
sg25
V2004
p6244
sg18
VBeton7 Art Radio 
p6245
ssS'2005'
p6246
(dp6247
g6049
S'http://174.36.237.66:8368/;'
p6248
sg63
Vhttp://cdn.e-radio.gr/logos/gr/mini/diavloskalamata.png
p6249
sg65
V\u039a\u0391\u039b\u0391\u039c\u0391\u03a4\u0391
p6250
sg67
V2005
p6251
sg69
V\u0394\u03af\u03b1\u03c5\u03bb\u03bf\u03c2
p6252
ssS'2008'
p6253
(dp6254
g265
S'http://live.onestreaming.com/armonia'
p6255
sg23
V/logos/gr/mini/armonia.gif
p6256
sg14
V\u0391\u0398\u0397\u039d\u0391
p6257
sg25
V2008
p6258
sg18
V\u0391\u03c1\u03bc\u03bf\u03bd\u03af\u03b1 
p6259
ssS'2116'
p6260
(dp6261
g63
Vhttp://cdn.e-radio.gr/logos/gr/mini/queen.png
p6262
sg65
VINTERNET RADIO
p6263
sg67
V2116
p6264
sg69
VQueen
p6265
ssS'1864'
p6266
(dp6267
g3338
S'http://stream.myip.gr:8054'
p6268
sg23
V/logos/gr/mini/venusthess.gif
p6269
sg14
V\u0398\u0395\u03a3\u03a3\u0391\u039b\u039f\u039d\u0399\u039a\u0397
p6270
sg25
V1864
p6271
sg18
VVenus 91,1
p6272
ss.